ARM GAS  /var/folders/td/83895s255bq6rlxfmrv9fnww0000gn/T//cc5Km2Re.s 			page 1


   1              		.cpu cortex-m3
   2              		.arch armv7-m
   3              		.fpu softvfp
   4              		.eabi_attribute 20, 1
   5              		.eabi_attribute 21, 1
   6              		.eabi_attribute 23, 3
   7              		.eabi_attribute 24, 1
   8              		.eabi_attribute 25, 1
   9              		.eabi_attribute 26, 1
  10              		.eabi_attribute 30, 2
  11              		.eabi_attribute 34, 1
  12              		.eabi_attribute 18, 4
  13              		.file	"stm32f1xx_hal_pcd_ex.c"
  14              		.text
  15              		.section	.text.HAL_PCDEx_PMAConfig,"ax",%progbits
  16              		.align	1
  17              		.p2align 2,,3
  18              		.global	HAL_PCDEx_PMAConfig
  19              		.syntax unified
  20              		.thumb
  21              		.thumb_func
  23              	HAL_PCDEx_PMAConfig:
  24              		@ args = 0, pretend = 0, frame = 0
  25              		@ frame_needed = 0, uses_anonymous_args = 0
  26              		@ link register save eliminated.
  27 0000 11F0800F 		tst	r1, #128
  28 0004 0CD0     		beq	.L2
  29 0006 01F00701 		and	r1, r1, #7
  30 000a 0131     		adds	r1, r1, #1
  31 000c 01EB8101 		add	r1, r1, r1, lsl #2
  32 0010 00EBC100 		add	r0, r0, r1, lsl #3
  33 0014 99B2     		uxth	r1, r3
  34 0016 62B9     		cbnz	r2, .L4
  35              	.L7:
  36 0018 C180     		strh	r1, [r0, #6]	@ movhi
  37 001a 0273     		strb	r2, [r0, #12]
  38 001c 0020     		movs	r0, #0
  39 001e 7047     		bx	lr
  40              	.L2:
  41 0020 01EB8101 		add	r1, r1, r1, lsl #2
  42 0024 00EBC100 		add	r0, r0, r1, lsl #3
  43 0028 00F5B470 		add	r0, r0, #360
  44 002c 99B2     		uxth	r1, r3
  45 002e 002A     		cmp	r2, #0
  46 0030 F2D0     		beq	.L7
  47              	.L4:
  48 0032 0122     		movs	r2, #1
  49 0034 8360     		str	r3, [r0, #8]
  50 0036 0273     		strb	r2, [r0, #12]
  51 0038 0020     		movs	r0, #0
  52 003a 7047     		bx	lr
  54              		.section	.text.HAL_PCDEx_SetConnectionState,"ax",%progbits
  55              		.align	1
  56              		.p2align 2,,3
  57              		.weak	HAL_PCDEx_SetConnectionState
  58              		.syntax unified
  59              		.thumb
ARM GAS  /var/folders/td/83895s255bq6rlxfmrv9fnww0000gn/T//cc5Km2Re.s 			page 2


  60              		.thumb_func
  62              	HAL_PCDEx_SetConnectionState:
  63              		@ args = 0, pretend = 0, frame = 0
  64              		@ frame_needed = 0, uses_anonymous_args = 0
  65              		@ link register save eliminated.
  66 0000 7047     		bx	lr
  68 0002 00BF     		.section	.text.HAL_PCDEx_LPM_Callback,"ax",%progbits
  69              		.align	1
  70              		.p2align 2,,3
  71              		.weak	HAL_PCDEx_LPM_Callback
  72              		.syntax unified
  73              		.thumb
  74              		.thumb_func
  76              	HAL_PCDEx_LPM_Callback:
  77              		@ args = 0, pretend = 0, frame = 0
  78              		@ frame_needed = 0, uses_anonymous_args = 0
  79              		@ link register save eliminated.
  80 0000 7047     		bx	lr
  82 0002 00BF     		.section	.text.HAL_PCDEx_BCD_Callback,"ax",%progbits
  83              		.align	1
  84              		.p2align 2,,3
  85              		.weak	HAL_PCDEx_BCD_Callback
  86              		.syntax unified
  87              		.thumb
  88              		.thumb_func
  90              	HAL_PCDEx_BCD_Callback:
  91              		@ args = 0, pretend = 0, frame = 0
  92              		@ frame_needed = 0, uses_anonymous_args = 0
  93              		@ link register save eliminated.
  94 0000 7047     		bx	lr
  96 0002 00BF     		.ident	"GCC: (Arm GNU Toolchain 13.2.rel1 (Build arm-13.7)) 13.2.1 20231009"
ARM GAS  /var/folders/td/83895s255bq6rlxfmrv9fnww0000gn/T//cc5Km2Re.s 			page 3


DEFINED SYMBOLS
                            *ABS*:00000000 stm32f1xx_hal_pcd_ex.c
/var/folders/td/83895s255bq6rlxfmrv9fnww0000gn/T//cc5Km2Re.s:16     .text.HAL_PCDEx_PMAConfig:00000000 $t
/var/folders/td/83895s255bq6rlxfmrv9fnww0000gn/T//cc5Km2Re.s:23     .text.HAL_PCDEx_PMAConfig:00000000 HAL_PCDEx_PMAConfig
/var/folders/td/83895s255bq6rlxfmrv9fnww0000gn/T//cc5Km2Re.s:55     .text.HAL_PCDEx_SetConnectionState:00000000 $t
/var/folders/td/83895s255bq6rlxfmrv9fnww0000gn/T//cc5Km2Re.s:62     .text.HAL_PCDEx_SetConnectionState:00000000 HAL_PCDEx_SetConnectionState
/var/folders/td/83895s255bq6rlxfmrv9fnww0000gn/T//cc5Km2Re.s:69     .text.HAL_PCDEx_LPM_Callback:00000000 $t
/var/folders/td/83895s255bq6rlxfmrv9fnww0000gn/T//cc5Km2Re.s:76     .text.HAL_PCDEx_LPM_Callback:00000000 HAL_PCDEx_LPM_Callback
/var/folders/td/83895s255bq6rlxfmrv9fnww0000gn/T//cc5Km2Re.s:83     .text.HAL_PCDEx_BCD_Callback:00000000 $t
/var/folders/td/83895s255bq6rlxfmrv9fnww0000gn/T//cc5Km2Re.s:90     .text.HAL_PCDEx_BCD_Callback:00000000 HAL_PCDEx_BCD_Callback

NO UNDEFINED SYMBOLS
