ARM GAS  /var/folders/td/83895s255bq6rlxfmrv9fnww0000gn/T//ccfEhr5A.s 			page 1


   1              		.cpu cortex-m3
   2              		.arch armv7-m
   3              		.fpu softvfp
   4              		.eabi_attribute 20, 1
   5              		.eabi_attribute 21, 1
   6              		.eabi_attribute 23, 3
   7              		.eabi_attribute 24, 1
   8              		.eabi_attribute 25, 1
   9              		.eabi_attribute 26, 1
  10              		.eabi_attribute 30, 2
  11              		.eabi_attribute 34, 1
  12              		.eabi_attribute 18, 4
  13              		.file	"stm32f1xx_hal_pwr.c"
  14              		.text
  15              		.section	.text.PWR_OverloadWfe,"ax",%progbits
  16              		.align	1
  17              		.p2align 2,,3
  18              		.syntax unified
  19              		.thumb
  20              		.thumb_func
  22              	PWR_OverloadWfe:
  23              		@ args = 0, pretend = 0, frame = 0
  24              		@ frame_needed = 0, uses_anonymous_args = 0
  25              		@ link register save eliminated.
  26              		.syntax unified
  27              	@ 118 "Drivers/STM32F1xx_HAL_Driver/Src/stm32f1xx_hal_pwr.c" 1
  28 0000 20BF     		wfe
  29              	@ 0 "" 2
  30              	@ 119 "Drivers/STM32F1xx_HAL_Driver/Src/stm32f1xx_hal_pwr.c" 1
  31 0002 00BF     		nop
  32              	@ 0 "" 2
  33              		.thumb
  34              		.syntax unified
  35 0004 7047     		bx	lr
  37 0006 00BF     		.section	.text.HAL_PWR_DeInit,"ax",%progbits
  38              		.align	1
  39              		.p2align 2,,3
  40              		.global	HAL_PWR_DeInit
  41              		.syntax unified
  42              		.thumb
  43              		.thumb_func
  45              	HAL_PWR_DeInit:
  46              		@ args = 0, pretend = 0, frame = 0
  47              		@ frame_needed = 0, uses_anonymous_args = 0
  48              		@ link register save eliminated.
  49 0000 044B     		ldr	r3, .L4
  50 0002 1A69     		ldr	r2, [r3, #16]
  51 0004 42F08052 		orr	r2, r2, #268435456
  52 0008 1A61     		str	r2, [r3, #16]
  53 000a 1A69     		ldr	r2, [r3, #16]
  54 000c 22F08052 		bic	r2, r2, #268435456
  55 0010 1A61     		str	r2, [r3, #16]
  56 0012 7047     		bx	lr
  57              	.L5:
  58              		.align	2
  59              	.L4:
  60 0014 00100240 		.word	1073876992
ARM GAS  /var/folders/td/83895s255bq6rlxfmrv9fnww0000gn/T//ccfEhr5A.s 			page 2


  62              		.section	.text.HAL_PWR_EnableBkUpAccess,"ax",%progbits
  63              		.align	1
  64              		.p2align 2,,3
  65              		.global	HAL_PWR_EnableBkUpAccess
  66              		.syntax unified
  67              		.thumb
  68              		.thumb_func
  70              	HAL_PWR_EnableBkUpAccess:
  71              		@ args = 0, pretend = 0, frame = 0
  72              		@ frame_needed = 0, uses_anonymous_args = 0
  73              		@ link register save eliminated.
  74 0000 0122     		movs	r2, #1
  75 0002 014B     		ldr	r3, .L7
  76 0004 1A62     		str	r2, [r3, #32]
  77 0006 7047     		bx	lr
  78              	.L8:
  79              		.align	2
  80              	.L7:
  81 0008 00000E42 		.word	1108213760
  83              		.section	.text.HAL_PWR_DisableBkUpAccess,"ax",%progbits
  84              		.align	1
  85              		.p2align 2,,3
  86              		.global	HAL_PWR_DisableBkUpAccess
  87              		.syntax unified
  88              		.thumb
  89              		.thumb_func
  91              	HAL_PWR_DisableBkUpAccess:
  92              		@ args = 0, pretend = 0, frame = 0
  93              		@ frame_needed = 0, uses_anonymous_args = 0
  94              		@ link register save eliminated.
  95 0000 0022     		movs	r2, #0
  96 0002 014B     		ldr	r3, .L10
  97 0004 1A62     		str	r2, [r3, #32]
  98 0006 7047     		bx	lr
  99              	.L11:
 100              		.align	2
 101              	.L10:
 102 0008 00000E42 		.word	1108213760
 104              		.section	.text.HAL_PWR_ConfigPVD,"ax",%progbits
 105              		.align	1
 106              		.p2align 2,,3
 107              		.global	HAL_PWR_ConfigPVD
 108              		.syntax unified
 109              		.thumb
 110              		.thumb_func
 112              	HAL_PWR_ConfigPVD:
 113              		@ args = 0, pretend = 0, frame = 0
 114              		@ frame_needed = 0, uses_anonymous_args = 0
 115              		@ link register save eliminated.
 116 0000 1B49     		ldr	r1, .L30
 117 0002 10B4     		push	{r4}
 118 0004 0A68     		ldr	r2, [r1]
 119 0006 0468     		ldr	r4, [r0]
 120 0008 22F0E002 		bic	r2, r2, #224
 121 000c 194B     		ldr	r3, .L30+4
 122 000e 2243     		orrs	r2, r2, r4
 123 0010 0A60     		str	r2, [r1]
ARM GAS  /var/folders/td/83895s255bq6rlxfmrv9fnww0000gn/T//ccfEhr5A.s 			page 3


 124 0012 5A68     		ldr	r2, [r3, #4]
 125 0014 22F48032 		bic	r2, r2, #65536
 126 0018 5A60     		str	r2, [r3, #4]
 127 001a 1A68     		ldr	r2, [r3]
 128 001c 22F48032 		bic	r2, r2, #65536
 129 0020 1A60     		str	r2, [r3]
 130 0022 DA68     		ldr	r2, [r3, #12]
 131 0024 22F48032 		bic	r2, r2, #65536
 132 0028 DA60     		str	r2, [r3, #12]
 133 002a 9A68     		ldr	r2, [r3, #8]
 134 002c 22F48032 		bic	r2, r2, #65536
 135 0030 9A60     		str	r2, [r3, #8]
 136 0032 4268     		ldr	r2, [r0, #4]
 137 0034 D403     		lsls	r4, r2, #15
 138 0036 03D5     		bpl	.L13
 139 0038 1968     		ldr	r1, [r3]
 140 003a 41F48031 		orr	r1, r1, #65536
 141 003e 1960     		str	r1, [r3]
 142              	.L13:
 143 0040 9003     		lsls	r0, r2, #14
 144 0042 04D5     		bpl	.L14
 145 0044 0B49     		ldr	r1, .L30+4
 146 0046 4B68     		ldr	r3, [r1, #4]
 147 0048 43F48033 		orr	r3, r3, #65536
 148 004c 4B60     		str	r3, [r1, #4]
 149              	.L14:
 150 004e D107     		lsls	r1, r2, #31
 151 0050 04D5     		bpl	.L15
 152 0052 0849     		ldr	r1, .L30+4
 153 0054 8B68     		ldr	r3, [r1, #8]
 154 0056 43F48033 		orr	r3, r3, #65536
 155 005a 8B60     		str	r3, [r1, #8]
 156              	.L15:
 157 005c 9307     		lsls	r3, r2, #30
 158 005e 04D5     		bpl	.L12
 159 0060 044A     		ldr	r2, .L30+4
 160 0062 D368     		ldr	r3, [r2, #12]
 161 0064 43F48033 		orr	r3, r3, #65536
 162 0068 D360     		str	r3, [r2, #12]
 163              	.L12:
 164 006a 10BC     		pop	{r4}
 165 006c 7047     		bx	lr
 166              	.L31:
 167 006e 00BF     		.align	2
 168              	.L30:
 169 0070 00700040 		.word	1073770496
 170 0074 00040140 		.word	1073808384
 172              		.section	.text.HAL_PWR_EnablePVD,"ax",%progbits
 173              		.align	1
 174              		.p2align 2,,3
 175              		.global	HAL_PWR_EnablePVD
 176              		.syntax unified
 177              		.thumb
 178              		.thumb_func
 180              	HAL_PWR_EnablePVD:
 181              		@ args = 0, pretend = 0, frame = 0
 182              		@ frame_needed = 0, uses_anonymous_args = 0
ARM GAS  /var/folders/td/83895s255bq6rlxfmrv9fnww0000gn/T//ccfEhr5A.s 			page 4


 183              		@ link register save eliminated.
 184 0000 0122     		movs	r2, #1
 185 0002 014B     		ldr	r3, .L33
 186 0004 1A61     		str	r2, [r3, #16]
 187 0006 7047     		bx	lr
 188              	.L34:
 189              		.align	2
 190              	.L33:
 191 0008 00000E42 		.word	1108213760
 193              		.section	.text.HAL_PWR_DisablePVD,"ax",%progbits
 194              		.align	1
 195              		.p2align 2,,3
 196              		.global	HAL_PWR_DisablePVD
 197              		.syntax unified
 198              		.thumb
 199              		.thumb_func
 201              	HAL_PWR_DisablePVD:
 202              		@ args = 0, pretend = 0, frame = 0
 203              		@ frame_needed = 0, uses_anonymous_args = 0
 204              		@ link register save eliminated.
 205 0000 0022     		movs	r2, #0
 206 0002 014B     		ldr	r3, .L36
 207 0004 1A61     		str	r2, [r3, #16]
 208 0006 7047     		bx	lr
 209              	.L37:
 210              		.align	2
 211              	.L36:
 212 0008 00000E42 		.word	1108213760
 214              		.section	.text.HAL_PWR_EnableWakeUpPin,"ax",%progbits
 215              		.align	1
 216              		.p2align 2,,3
 217              		.global	HAL_PWR_EnableWakeUpPin
 218              		.syntax unified
 219              		.thumb
 220              		.thumb_func
 222              	HAL_PWR_EnableWakeUpPin:
 223              		@ args = 0, pretend = 0, frame = 0
 224              		@ frame_needed = 0, uses_anonymous_args = 0
 225              		@ link register save eliminated.
 226              		.syntax unified
 227              	@ 988 "Drivers/CMSIS/Include/cmsis_gcc.h" 1
 228 0000 90FAA0F0 		rbit r0, r0
 229              	@ 0 "" 2
 230              		.thumb
 231              		.syntax unified
 232 0004 B0FA80F0 		clz	r0, r0
 233 0008 0122     		movs	r2, #1
 234 000a 024B     		ldr	r3, .L39
 235 000c 0344     		add	r3, r3, r0
 236 000e 9B00     		lsls	r3, r3, #2
 237 0010 1A60     		str	r2, [r3]
 238 0012 7047     		bx	lr
 239              	.L40:
 240              		.align	2
 241              	.L39:
 242 0014 20808310 		.word	277053472
 244              		.section	.text.HAL_PWR_DisableWakeUpPin,"ax",%progbits
ARM GAS  /var/folders/td/83895s255bq6rlxfmrv9fnww0000gn/T//ccfEhr5A.s 			page 5


 245              		.align	1
 246              		.p2align 2,,3
 247              		.global	HAL_PWR_DisableWakeUpPin
 248              		.syntax unified
 249              		.thumb
 250              		.thumb_func
 252              	HAL_PWR_DisableWakeUpPin:
 253              		@ args = 0, pretend = 0, frame = 0
 254              		@ frame_needed = 0, uses_anonymous_args = 0
 255              		@ link register save eliminated.
 256              		.syntax unified
 257              	@ 988 "Drivers/CMSIS/Include/cmsis_gcc.h" 1
 258 0000 90FAA0F0 		rbit r0, r0
 259              	@ 0 "" 2
 260              		.thumb
 261              		.syntax unified
 262 0004 B0FA80F0 		clz	r0, r0
 263 0008 0022     		movs	r2, #0
 264 000a 024B     		ldr	r3, .L42
 265 000c 0344     		add	r3, r3, r0
 266 000e 9B00     		lsls	r3, r3, #2
 267 0010 1A60     		str	r2, [r3]
 268 0012 7047     		bx	lr
 269              	.L43:
 270              		.align	2
 271              	.L42:
 272 0014 20808310 		.word	277053472
 274              		.section	.text.HAL_PWR_EnterSLEEPMode,"ax",%progbits
 275              		.align	1
 276              		.p2align 2,,3
 277              		.global	HAL_PWR_EnterSLEEPMode
 278              		.syntax unified
 279              		.thumb
 280              		.thumb_func
 282              	HAL_PWR_EnterSLEEPMode:
 283              		@ args = 0, pretend = 0, frame = 0
 284              		@ frame_needed = 0, uses_anonymous_args = 0
 285              		@ link register save eliminated.
 286 0000 064A     		ldr	r2, .L48
 287 0002 0129     		cmp	r1, #1
 288 0004 1369     		ldr	r3, [r2, #16]
 289 0006 23F00403 		bic	r3, r3, #4
 290 000a 1361     		str	r3, [r2, #16]
 291 000c 03D0     		beq	.L47
 292              		.syntax unified
 293              	@ 437 "Drivers/STM32F1xx_HAL_Driver/Src/stm32f1xx_hal_pwr.c" 1
 294 000e 40BF     		sev
 295              	@ 0 "" 2
 296              	@ 438 "Drivers/STM32F1xx_HAL_Driver/Src/stm32f1xx_hal_pwr.c" 1
 297 0010 20BF     		wfe
 298              	@ 0 "" 2
 299              	@ 439 "Drivers/STM32F1xx_HAL_Driver/Src/stm32f1xx_hal_pwr.c" 1
 300 0012 20BF     		wfe
 301              	@ 0 "" 2
 302              		.thumb
 303              		.syntax unified
 304 0014 7047     		bx	lr
ARM GAS  /var/folders/td/83895s255bq6rlxfmrv9fnww0000gn/T//ccfEhr5A.s 			page 6


 305              	.L47:
 306              		.syntax unified
 307              	@ 432 "Drivers/STM32F1xx_HAL_Driver/Src/stm32f1xx_hal_pwr.c" 1
 308 0016 30BF     		wfi
 309              	@ 0 "" 2
 310              		.thumb
 311              		.syntax unified
 312 0018 7047     		bx	lr
 313              	.L49:
 314 001a 00BF     		.align	2
 315              	.L48:
 316 001c 00ED00E0 		.word	-536810240
 318              		.section	.text.HAL_PWR_EnterSTOPMode,"ax",%progbits
 319              		.align	1
 320              		.p2align 2,,3
 321              		.global	HAL_PWR_EnterSTOPMode
 322              		.syntax unified
 323              		.thumb
 324              		.thumb_func
 326              	HAL_PWR_EnterSTOPMode:
 327              		@ args = 0, pretend = 0, frame = 0
 328              		@ frame_needed = 0, uses_anonymous_args = 0
 329 0000 0F4A     		ldr	r2, .L54
 330 0002 10B5     		push	{r4, lr}
 331 0004 1368     		ldr	r3, [r2]
 332 0006 0F4C     		ldr	r4, .L54+4
 333 0008 23F00203 		bic	r3, r3, #2
 334 000c 1360     		str	r3, [r2]
 335 000e 1368     		ldr	r3, [r2]
 336 0010 0129     		cmp	r1, #1
 337 0012 23F00103 		bic	r3, r3, #1
 338 0016 43EA0003 		orr	r3, r3, r0
 339 001a 1360     		str	r3, [r2]
 340 001c 2369     		ldr	r3, [r4, #16]
 341 001e 43F00403 		orr	r3, r3, #4
 342 0022 2361     		str	r3, [r4, #16]
 343 0024 06D1     		bne	.L51
 344              		.syntax unified
 345              	@ 481 "Drivers/STM32F1xx_HAL_Driver/Src/stm32f1xx_hal_pwr.c" 1
 346 0026 30BF     		wfi
 347              	@ 0 "" 2
 348              		.thumb
 349              		.syntax unified
 350              	.L52:
 351 0028 064A     		ldr	r2, .L54+4
 352 002a 1369     		ldr	r3, [r2, #16]
 353 002c 23F00403 		bic	r3, r3, #4
 354 0030 1361     		str	r3, [r2, #16]
 355 0032 10BD     		pop	{r4, pc}
 356              	.L51:
 357              		.syntax unified
 358              	@ 486 "Drivers/STM32F1xx_HAL_Driver/Src/stm32f1xx_hal_pwr.c" 1
 359 0034 40BF     		sev
 360              	@ 0 "" 2
 361              		.thumb
 362              		.syntax unified
 363 0036 FFF7FEFF 		bl	PWR_OverloadWfe
ARM GAS  /var/folders/td/83895s255bq6rlxfmrv9fnww0000gn/T//ccfEhr5A.s 			page 7


 364 003a FFF7FEFF 		bl	PWR_OverloadWfe
 365 003e F3E7     		b	.L52
 366              	.L55:
 367              		.align	2
 368              	.L54:
 369 0040 00700040 		.word	1073770496
 370 0044 00ED00E0 		.word	-536810240
 372              		.section	.text.HAL_PWR_EnterSTANDBYMode,"ax",%progbits
 373              		.align	1
 374              		.p2align 2,,3
 375              		.global	HAL_PWR_EnterSTANDBYMode
 376              		.syntax unified
 377              		.thumb
 378              		.thumb_func
 380              	HAL_PWR_EnterSTANDBYMode:
 381              		@ args = 0, pretend = 0, frame = 0
 382              		@ frame_needed = 0, uses_anonymous_args = 0
 383              		@ link register save eliminated.
 384 0000 0549     		ldr	r1, .L57
 385 0002 064A     		ldr	r2, .L57+4
 386 0004 0B68     		ldr	r3, [r1]
 387 0006 43F00203 		orr	r3, r3, #2
 388 000a 0B60     		str	r3, [r1]
 389 000c 1369     		ldr	r3, [r2, #16]
 390 000e 43F00403 		orr	r3, r3, #4
 391 0012 1361     		str	r3, [r2, #16]
 392              		.syntax unified
 393              	@ 515 "Drivers/STM32F1xx_HAL_Driver/Src/stm32f1xx_hal_pwr.c" 1
 394 0014 30BF     		wfi
 395              	@ 0 "" 2
 396              		.thumb
 397              		.syntax unified
 398 0016 7047     		bx	lr
 399              	.L58:
 400              		.align	2
 401              	.L57:
 402 0018 00700040 		.word	1073770496
 403 001c 00ED00E0 		.word	-536810240
 405              		.section	.text.HAL_PWR_EnableSleepOnExit,"ax",%progbits
 406              		.align	1
 407              		.p2align 2,,3
 408              		.global	HAL_PWR_EnableSleepOnExit
 409              		.syntax unified
 410              		.thumb
 411              		.thumb_func
 413              	HAL_PWR_EnableSleepOnExit:
 414              		@ args = 0, pretend = 0, frame = 0
 415              		@ frame_needed = 0, uses_anonymous_args = 0
 416              		@ link register save eliminated.
 417 0000 024A     		ldr	r2, .L60
 418 0002 1369     		ldr	r3, [r2, #16]
 419 0004 43F00203 		orr	r3, r3, #2
 420 0008 1361     		str	r3, [r2, #16]
 421 000a 7047     		bx	lr
 422              	.L61:
 423              		.align	2
 424              	.L60:
ARM GAS  /var/folders/td/83895s255bq6rlxfmrv9fnww0000gn/T//ccfEhr5A.s 			page 8


 425 000c 00ED00E0 		.word	-536810240
 427              		.section	.text.HAL_PWR_DisableSleepOnExit,"ax",%progbits
 428              		.align	1
 429              		.p2align 2,,3
 430              		.global	HAL_PWR_DisableSleepOnExit
 431              		.syntax unified
 432              		.thumb
 433              		.thumb_func
 435              	HAL_PWR_DisableSleepOnExit:
 436              		@ args = 0, pretend = 0, frame = 0
 437              		@ frame_needed = 0, uses_anonymous_args = 0
 438              		@ link register save eliminated.
 439 0000 024A     		ldr	r2, .L63
 440 0002 1369     		ldr	r3, [r2, #16]
 441 0004 23F00203 		bic	r3, r3, #2
 442 0008 1361     		str	r3, [r2, #16]
 443 000a 7047     		bx	lr
 444              	.L64:
 445              		.align	2
 446              	.L63:
 447 000c 00ED00E0 		.word	-536810240
 449              		.section	.text.HAL_PWR_EnableSEVOnPend,"ax",%progbits
 450              		.align	1
 451              		.p2align 2,,3
 452              		.global	HAL_PWR_EnableSEVOnPend
 453              		.syntax unified
 454              		.thumb
 455              		.thumb_func
 457              	HAL_PWR_EnableSEVOnPend:
 458              		@ args = 0, pretend = 0, frame = 0
 459              		@ frame_needed = 0, uses_anonymous_args = 0
 460              		@ link register save eliminated.
 461 0000 024A     		ldr	r2, .L66
 462 0002 1369     		ldr	r3, [r2, #16]
 463 0004 43F01003 		orr	r3, r3, #16
 464 0008 1361     		str	r3, [r2, #16]
 465 000a 7047     		bx	lr
 466              	.L67:
 467              		.align	2
 468              	.L66:
 469 000c 00ED00E0 		.word	-536810240
 471              		.section	.text.HAL_PWR_DisableSEVOnPend,"ax",%progbits
 472              		.align	1
 473              		.p2align 2,,3
 474              		.global	HAL_PWR_DisableSEVOnPend
 475              		.syntax unified
 476              		.thumb
 477              		.thumb_func
 479              	HAL_PWR_DisableSEVOnPend:
 480              		@ args = 0, pretend = 0, frame = 0
 481              		@ frame_needed = 0, uses_anonymous_args = 0
 482              		@ link register save eliminated.
 483 0000 024A     		ldr	r2, .L69
 484 0002 1369     		ldr	r3, [r2, #16]
 485 0004 23F01003 		bic	r3, r3, #16
 486 0008 1361     		str	r3, [r2, #16]
 487 000a 7047     		bx	lr
ARM GAS  /var/folders/td/83895s255bq6rlxfmrv9fnww0000gn/T//ccfEhr5A.s 			page 9


 488              	.L70:
 489              		.align	2
 490              	.L69:
 491 000c 00ED00E0 		.word	-536810240
 493              		.section	.text.HAL_PWR_PVDCallback,"ax",%progbits
 494              		.align	1
 495              		.p2align 2,,3
 496              		.weak	HAL_PWR_PVDCallback
 497              		.syntax unified
 498              		.thumb
 499              		.thumb_func
 501              	HAL_PWR_PVDCallback:
 502              		@ args = 0, pretend = 0, frame = 0
 503              		@ frame_needed = 0, uses_anonymous_args = 0
 504              		@ link register save eliminated.
 505 0000 7047     		bx	lr
 507 0002 00BF     		.section	.text.HAL_PWR_PVD_IRQHandler,"ax",%progbits
 508              		.align	1
 509              		.p2align 2,,3
 510              		.global	HAL_PWR_PVD_IRQHandler
 511              		.syntax unified
 512              		.thumb
 513              		.thumb_func
 515              	HAL_PWR_PVD_IRQHandler:
 516              		@ args = 0, pretend = 0, frame = 0
 517              		@ frame_needed = 0, uses_anonymous_args = 0
 518 0000 10B5     		push	{r4, lr}
 519 0002 054C     		ldr	r4, .L79
 520 0004 6369     		ldr	r3, [r4, #20]
 521 0006 DB03     		lsls	r3, r3, #15
 522 0008 00D4     		bmi	.L78
 523 000a 10BD     		pop	{r4, pc}
 524              	.L78:
 525 000c FFF7FEFF 		bl	HAL_PWR_PVDCallback
 526 0010 4FF48033 		mov	r3, #65536
 527 0014 6361     		str	r3, [r4, #20]
 528 0016 10BD     		pop	{r4, pc}
 529              	.L80:
 530              		.align	2
 531              	.L79:
 532 0018 00040140 		.word	1073808384
 534              		.ident	"GCC: (Arm GNU Toolchain 13.2.rel1 (Build arm-13.7)) 13.2.1 20231009"
ARM GAS  /var/folders/td/83895s255bq6rlxfmrv9fnww0000gn/T//ccfEhr5A.s 			page 10

