ARM GAS  /var/folders/td/83895s255bq6rlxfmrv9fnww0000gn/T//ccnjJNlt.s 			page 1


   1              		.cpu cortex-m3
   2              		.arch armv7-m
   3              		.fpu softvfp
   4              		.eabi_attribute 20, 1
   5              		.eabi_attribute 21, 1
   6              		.eabi_attribute 23, 3
   7              		.eabi_attribute 24, 1
   8              		.eabi_attribute 25, 1
   9              		.eabi_attribute 26, 1
  10              		.eabi_attribute 30, 2
  11              		.eabi_attribute 34, 1
  12              		.eabi_attribute 18, 4
  13              		.file	"stm32f1xx_hal_gpio.c"
  14              		.text
  15              		.section	.text.HAL_GPIO_Init,"ax",%progbits
  16              		.align	1
  17              		.p2align 2,,3
  18              		.global	HAL_GPIO_Init
  19              		.syntax unified
  20              		.thumb
  21              		.thumb_func
  23              	HAL_GPIO_Init:
  24              		@ args = 0, pretend = 0, frame = 16
  25              		@ frame_needed = 0, uses_anonymous_args = 0
  26 0000 2DE9F04F 		push	{r4, r5, r6, r7, r8, r9, r10, fp, lr}
  27 0004 0C68     		ldr	r4, [r1]
  28 0006 85B0     		sub	sp, sp, #20
  29 0008 002C     		cmp	r4, #0
  30 000a 00F0A480 		beq	.L1
  31 000e 0022     		movs	r2, #0
  32 0010 031D     		adds	r3, r0, #4
  33 0012 0193     		str	r3, [sp, #4]
  34 0014 0125     		movs	r5, #1
  35 0016 4FF00F08 		mov	r8, #15
  36 001a 9246     		mov	r10, r2
  37 001c 1346     		mov	r3, r2
  38 001e 8146     		mov	r9, r0
  39 0020 744F     		ldr	r7, .L45
  40 0022 06E0     		b	.L2
  41              	.L3:
  42 0024 0133     		adds	r3, r3, #1
  43 0026 34FA03F0 		lsrs	r0, r4, r3
  44 002a 02F10402 		add	r2, r2, #4
  45 002e 00F09280 		beq	.L1
  46              	.L2:
  47 0032 05FA03F0 		lsl	r0, r5, r3
  48 0036 30EA040C 		bics	ip, r0, r4
  49 003a 00EA0406 		and	r6, r0, r4
  50 003e F1D1     		bne	.L3
  51 0040 4C68     		ldr	r4, [r1, #4]
  52 0042 122C     		cmp	r4, #18
  53 0044 00F28F80 		bhi	.L4
  54 0048 122C     		cmp	r4, #18
  55 004a 0DD8     		bhi	.L5
  56 004c DFE804F0 		tbb	[pc, r4]
  57              	.L7:
  58 0050 9D       		.byte	(.L12-.L7)/2
ARM GAS  /var/folders/td/83895s255bq6rlxfmrv9fnww0000gn/T//ccnjJNlt.s 			page 2


  59 0051 0A       		.byte	(.L11-.L7)/2
  60 0052 A9       		.byte	(.L10-.L7)/2
  61 0053 CF       		.byte	(.L9-.L7)/2
  62 0054 0C       		.byte	(.L5-.L7)/2
  63 0055 0C       		.byte	(.L5-.L7)/2
  64 0056 0C       		.byte	(.L5-.L7)/2
  65 0057 0C       		.byte	(.L5-.L7)/2
  66 0058 0C       		.byte	(.L5-.L7)/2
  67 0059 0C       		.byte	(.L5-.L7)/2
  68 005a 0C       		.byte	(.L5-.L7)/2
  69 005b 0C       		.byte	(.L5-.L7)/2
  70 005c 0C       		.byte	(.L5-.L7)/2
  71 005d 0C       		.byte	(.L5-.L7)/2
  72 005e 0C       		.byte	(.L5-.L7)/2
  73 005f 0C       		.byte	(.L5-.L7)/2
  74 0060 0C       		.byte	(.L5-.L7)/2
  75 0061 B1       		.byte	(.L8-.L7)/2
  76 0062 AD       		.byte	(.L6-.L7)/2
  77 0063 00       		.p2align 1
  78              	.L11:
  79 0064 D1F80CA0 		ldr	r10, [r1, #12]
  80              	.L5:
  81 0068 FF2E     		cmp	r6, #255
  82 006a 99BF     		ittee	ls
  83 006c 4C46     		movls	r4, r9
  84 006e 9446     		movls	ip, r2
  85 0070 019C     		ldrhi	r4, [sp, #4]
  86 0072 A2F1200C 		subhi	ip, r2, #32
  87 0076 2068     		ldr	r0, [r4]
  88 0078 08FA0CFE 		lsl	lr, r8, ip
  89 007c 20EA0E00 		bic	r0, r0, lr
  90 0080 0AFA0CFC 		lsl	ip, r10, ip
  91 0084 40EA0C00 		orr	r0, r0, ip
  92 0088 2060     		str	r0, [r4]
  93 008a 4C68     		ldr	r4, [r1, #4]
  94 008c E000     		lsls	r0, r4, #3
  95 008e 68D5     		bpl	.L40
  96 0090 B869     		ldr	r0, [r7, #24]
  97 0092 23F0030C 		bic	ip, r3, #3
  98 0096 40F00100 		orr	r0, r0, #1
  99 009a B861     		str	r0, [r7, #24]
 100 009c B869     		ldr	r0, [r7, #24]
 101 009e 0CF1804C 		add	ip, ip, #1073741824
 102 00a2 00F00100 		and	r0, r0, #1
 103 00a6 0390     		str	r0, [sp, #12]
 104 00a8 0CF5803C 		add	ip, ip, #65536
 105 00ac 03F0030E 		and	lr, r3, #3
 106 00b0 0398     		ldr	r0, [sp, #12]
 107 00b2 4FEA8E0E 		lsl	lr, lr, #2
 108 00b6 DCF80800 		ldr	r0, [ip, #8]
 109 00ba 08FA0EFB 		lsl	fp, r8, lr
 110 00be 20EA0B00 		bic	r0, r0, fp
 111 00c2 DFF834B1 		ldr	fp, .L45+4
 112 00c6 D945     		cmp	r9, fp
 113 00c8 13D0     		beq	.L19
 114 00ca 0BF5806B 		add	fp, fp, #1024
 115 00ce D945     		cmp	r9, fp
ARM GAS  /var/folders/td/83895s255bq6rlxfmrv9fnww0000gn/T//ccnjJNlt.s 			page 3


 116 00d0 73D0     		beq	.L42
 117 00d2 DFF828B1 		ldr	fp, .L45+8
 118 00d6 D945     		cmp	r9, fp
 119 00d8 5CD0     		beq	.L43
 120 00da DFF824B1 		ldr	fp, .L45+12
 121 00de D945     		cmp	r9, fp
 122 00e0 0CBF     		ite	eq
 123 00e2 4FF0030B 		moveq	fp, #3
 124 00e6 4FF0040B 		movne	fp, #4
 125 00ea 0BFA0EFB 		lsl	fp, fp, lr
 126 00ee 40EA0B00 		orr	r0, r0, fp
 127              	.L19:
 128 00f2 CCF80800 		str	r0, [ip, #8]
 129 00f6 DFF80CC1 		ldr	ip, .L45+16
 130 00fa 14F4801F 		tst	r4, #1048576
 131 00fe DCF80800 		ldr	r0, [ip, #8]
 132 0102 14BF     		ite	ne
 133 0104 3043     		orrne	r0, r0, r6
 134 0106 B043     		biceq	r0, r0, r6
 135 0108 CCF80800 		str	r0, [ip, #8]
 136 010c DFF8F4C0 		ldr	ip, .L45+16
 137 0110 14F4001F 		tst	r4, #2097152
 138 0114 DCF80C00 		ldr	r0, [ip, #12]
 139 0118 14BF     		ite	ne
 140 011a 3043     		orrne	r0, r0, r6
 141 011c B043     		biceq	r0, r0, r6
 142 011e CCF80C00 		str	r0, [ip, #12]
 143 0122 DFF8E0C0 		ldr	ip, .L45+16
 144 0126 14F4003F 		tst	r4, #131072
 145 012a DCF80400 		ldr	r0, [ip, #4]
 146 012e 14BF     		ite	ne
 147 0130 3043     		orrne	r0, r0, r6
 148 0132 B043     		biceq	r0, r0, r6
 149 0134 14F4803F 		tst	r4, #65536
 150 0138 324C     		ldr	r4, .L45+16
 151 013a CCF80400 		str	r0, [ip, #4]
 152 013e 2068     		ldr	r0, [r4]
 153 0140 0CD0     		beq	.L29
 154 0142 3043     		orrs	r0, r0, r6
 155 0144 2060     		str	r0, [r4]
 156 0146 0C68     		ldr	r4, [r1]
 157 0148 0133     		adds	r3, r3, #1
 158 014a 34FA03F0 		lsrs	r0, r4, r3
 159 014e 02F10402 		add	r2, r2, #4
 160 0152 7FF46EAF 		bne	.L2
 161              	.L1:
 162 0156 05B0     		add	sp, sp, #20
 163              		@ sp needed
 164 0158 BDE8F08F 		pop	{r4, r5, r6, r7, r8, r9, r10, fp, pc}
 165              	.L29:
 166 015c 20EA0600 		bic	r0, r0, r6
 167 0160 2060     		str	r0, [r4]
 168              	.L40:
 169 0162 0C68     		ldr	r4, [r1]
 170 0164 5EE7     		b	.L3
 171              	.L4:
 172 0166 DFF8A0C0 		ldr	ip, .L45+20
ARM GAS  /var/folders/td/83895s255bq6rlxfmrv9fnww0000gn/T//ccnjJNlt.s 			page 4


 173 016a 6445     		cmp	r4, ip
 174 016c 0DD0     		beq	.L12
 175 016e 2BD8     		bhi	.L13
 176 0170 ACF5801C 		sub	ip, ip, #1048576
 177 0174 6445     		cmp	r4, ip
 178 0176 08D0     		beq	.L12
 179 0178 0CF5702C 		add	ip, ip, #983040
 180 017c 6445     		cmp	r4, ip
 181 017e 04D0     		beq	.L12
 182 0180 ACF5801C 		sub	ip, ip, #1048576
 183 0184 6445     		cmp	r4, ip
 184 0186 7FF46FAF 		bne	.L5
 185              	.L12:
 186 018a 8C68     		ldr	r4, [r1, #8]
 187 018c 34BB     		cbnz	r4, .L44
 188 018e 4FF0040A 		mov	r10, #4
 189 0192 69E7     		b	.L5
 190              	.L43:
 191 0194 4FF0020B 		mov	fp, #2
 192 0198 0BFA0EFB 		lsl	fp, fp, lr
 193 019c 40EA0B00 		orr	r0, r0, fp
 194 01a0 A7E7     		b	.L19
 195              	.L10:
 196 01a2 C868     		ldr	r0, [r1, #12]
 197 01a4 00F1080A 		add	r10, r0, #8
 198 01a8 5EE7     		b	.L5
 199              	.L6:
 200 01aa C868     		ldr	r0, [r1, #12]
 201 01ac 00F10C0A 		add	r10, r0, #12
 202 01b0 5AE7     		b	.L5
 203              	.L8:
 204 01b2 C868     		ldr	r0, [r1, #12]
 205 01b4 00F1040A 		add	r10, r0, #4
 206 01b8 56E7     		b	.L5
 207              	.L42:
 208 01ba 4FF0010B 		mov	fp, #1
 209 01be 0BFA0EFB 		lsl	fp, fp, lr
 210 01c2 40EA0B00 		orr	r0, r0, fp
 211 01c6 94E7     		b	.L19
 212              	.L13:
 213 01c8 DFF840C0 		ldr	ip, .L45+24
 214 01cc 6445     		cmp	r4, ip
 215 01ce DCD0     		beq	.L12
 216 01d0 0CF5803C 		add	ip, ip, #65536
 217 01d4 6445     		cmp	r4, ip
 218 01d6 7FF447AF 		bne	.L5
 219 01da D6E7     		b	.L12
 220              	.L44:
 221 01dc 012C     		cmp	r4, #1
 222 01de 4FF0080A 		mov	r10, #8
 223 01e2 0CBF     		ite	eq
 224 01e4 C9F81000 		streq	r0, [r9, #16]
 225 01e8 C9F81400 		strne	r0, [r9, #20]
 226 01ec 3CE7     		b	.L5
 227              	.L9:
 228 01ee 4FF0000A 		mov	r10, #0
 229 01f2 39E7     		b	.L5
ARM GAS  /var/folders/td/83895s255bq6rlxfmrv9fnww0000gn/T//ccnjJNlt.s 			page 5


 230              	.L46:
 231              		.align	2
 232              	.L45:
 233 01f4 00100240 		.word	1073876992
 234 01f8 00080140 		.word	1073809408
 235 01fc 00100140 		.word	1073811456
 236 0200 00140140 		.word	1073812480
 237 0204 00040140 		.word	1073808384
 238 0208 00002210 		.word	270663680
 239 020c 00003110 		.word	271646720
 241              		.section	.text.HAL_GPIO_DeInit,"ax",%progbits
 242              		.align	1
 243              		.p2align 2,,3
 244              		.global	HAL_GPIO_DeInit
 245              		.syntax unified
 246              		.thumb
 247              		.thumb_func
 249              	HAL_GPIO_DeInit:
 250              		@ args = 0, pretend = 0, frame = 8
 251              		@ frame_needed = 0, uses_anonymous_args = 0
 252 0000 0029     		cmp	r1, #0
 253 0002 00F08380 		beq	.L65
 254 0006 2DE9F04F 		push	{r4, r5, r6, r7, r8, r9, r10, fp, lr}
 255 000a 4FF0040A 		mov	r10, #4
 256 000e 4FF0000E 		mov	lr, #0
 257 0012 00EB0A03 		add	r3, r0, r10
 258 0016 83B0     		sub	sp, sp, #12
 259 0018 0193     		str	r3, [sp, #4]
 260 001a 0127     		movs	r7, #1
 261 001c 4FF00F09 		mov	r9, #15
 262 0020 7346     		mov	r3, lr
 263 0022 3B4E     		ldr	r6, .L72
 264 0024 4DE0     		b	.L48
 265              	.L71:
 266 0026 0BF5806B 		add	fp, fp, #1024
 267 002a 5845     		cmp	r0, fp
 268 002c 66D0     		beq	.L68
 269 002e DFF8E4B0 		ldr	fp, .L72+4
 270 0032 5845     		cmp	r0, fp
 271 0034 65D0     		beq	.L69
 272 0036 DFF8E0B0 		ldr	fp, .L72+8
 273 003a 5845     		cmp	r0, fp
 274 003c 0ABF     		itet	eq
 275 003e 4FF0030B 		moveq	fp, #3
 276 0042 0AFA05FB 		lslne	fp, r10, r5
 277 0046 0BFA05FB 		lsleq	fp, fp, r5
 278              	.L50:
 279 004a DC45     		cmp	ip, fp
 280 004c 6FEA0205 		mvn	r5, r2
 281 0050 1DD1     		bne	.L54
 282 0052 D6F800C0 		ldr	ip, [r6]
 283 0056 0CEA050C 		and	ip, ip, r5
 284 005a C6F800C0 		str	ip, [r6]
 285 005e D6F804C0 		ldr	ip, [r6, #4]
 286 0062 0CEA050C 		and	ip, ip, r5
 287 0066 C6F804C0 		str	ip, [r6, #4]
 288 006a D6F80CC0 		ldr	ip, [r6, #12]
ARM GAS  /var/folders/td/83895s255bq6rlxfmrv9fnww0000gn/T//ccnjJNlt.s 			page 6


 289 006e 0CEA050C 		and	ip, ip, r5
 290 0072 C6F80CC0 		str	ip, [r6, #12]
 291 0076 D6F808C0 		ldr	ip, [r6, #8]
 292 007a 0CEA050C 		and	ip, ip, r5
 293 007e C6F808C0 		str	ip, [r6, #8]
 294 0082 D4F808C0 		ldr	ip, [r4, #8]
 295 0086 2CEA080C 		bic	ip, ip, r8
 296 008a C4F808C0 		str	ip, [r4, #8]
 297              	.L54:
 298 008e FF2A     		cmp	r2, #255
 299 0090 99BF     		ittee	ls
 300 0092 0446     		movls	r4, r0
 301 0094 F446     		movls	ip, lr
 302 0096 019C     		ldrhi	r4, [sp, #4]
 303 0098 AEF1200C 		subhi	ip, lr, #32
 304 009c 2268     		ldr	r2, [r4]
 305 009e 09FA0CF8 		lsl	r8, r9, ip
 306 00a2 22EA0802 		bic	r2, r2, r8
 307 00a6 0AFA0CFC 		lsl	ip, r10, ip
 308 00aa 42EA0C02 		orr	r2, r2, ip
 309 00ae 2260     		str	r2, [r4]
 310 00b0 C268     		ldr	r2, [r0, #12]
 311 00b2 2A40     		ands	r2, r2, r5
 312 00b4 C260     		str	r2, [r0, #12]
 313              	.L49:
 314 00b6 0133     		adds	r3, r3, #1
 315 00b8 31FA03F2 		lsrs	r2, r1, r3
 316 00bc 0EF1040E 		add	lr, lr, #4
 317 00c0 19D0     		beq	.L70
 318              	.L48:
 319 00c2 07FA03F2 		lsl	r2, r7, r3
 320 00c6 0A40     		ands	r2, r2, r1
 321 00c8 F5D0     		beq	.L49
 322 00ca 23F00304 		bic	r4, r3, #3
 323 00ce 04F18044 		add	r4, r4, #1073741824
 324 00d2 DFF848B0 		ldr	fp, .L72+12
 325 00d6 04F58034 		add	r4, r4, #65536
 326 00da 03F00305 		and	r5, r3, #3
 327 00de D4F808C0 		ldr	ip, [r4, #8]
 328 00e2 AD00     		lsls	r5, r5, #2
 329 00e4 09FA05F8 		lsl	r8, r9, r5
 330 00e8 5845     		cmp	r0, fp
 331 00ea 08EA0C0C 		and	ip, r8, ip
 332 00ee 9AD1     		bne	.L71
 333 00f0 4FF0000B 		mov	fp, #0
 334 00f4 A9E7     		b	.L50
 335              	.L70:
 336 00f6 03B0     		add	sp, sp, #12
 337              		@ sp needed
 338 00f8 BDE8F08F 		pop	{r4, r5, r6, r7, r8, r9, r10, fp, pc}
 339              	.L68:
 340 00fc 07FA05FB 		lsl	fp, r7, r5
 341 0100 A3E7     		b	.L50
 342              	.L69:
 343 0102 4FF0020B 		mov	fp, #2
 344 0106 0BFA05FB 		lsl	fp, fp, r5
 345 010a 9EE7     		b	.L50
ARM GAS  /var/folders/td/83895s255bq6rlxfmrv9fnww0000gn/T//ccnjJNlt.s 			page 7


 346              	.L65:
 347 010c 7047     		bx	lr
 348              	.L73:
 349 010e 00BF     		.align	2
 350              	.L72:
 351 0110 00040140 		.word	1073808384
 352 0114 00100140 		.word	1073811456
 353 0118 00140140 		.word	1073812480
 354 011c 00080140 		.word	1073809408
 356              		.section	.text.HAL_GPIO_ReadPin,"ax",%progbits
 357              		.align	1
 358              		.p2align 2,,3
 359              		.global	HAL_GPIO_ReadPin
 360              		.syntax unified
 361              		.thumb
 362              		.thumb_func
 364              	HAL_GPIO_ReadPin:
 365              		@ args = 0, pretend = 0, frame = 0
 366              		@ frame_needed = 0, uses_anonymous_args = 0
 367              		@ link register save eliminated.
 368 0000 8368     		ldr	r3, [r0, #8]
 369 0002 1942     		tst	r1, r3
 370 0004 14BF     		ite	ne
 371 0006 0120     		movne	r0, #1
 372 0008 0020     		moveq	r0, #0
 373 000a 7047     		bx	lr
 375              		.section	.text.HAL_GPIO_WritePin,"ax",%progbits
 376              		.align	1
 377              		.p2align 2,,3
 378              		.global	HAL_GPIO_WritePin
 379              		.syntax unified
 380              		.thumb
 381              		.thumb_func
 383              	HAL_GPIO_WritePin:
 384              		@ args = 0, pretend = 0, frame = 0
 385              		@ frame_needed = 0, uses_anonymous_args = 0
 386              		@ link register save eliminated.
 387 0000 02B9     		cbnz	r2, .L78
 388 0002 0904     		lsls	r1, r1, #16
 389              	.L78:
 390 0004 0161     		str	r1, [r0, #16]
 391 0006 7047     		bx	lr
 393              		.section	.text.HAL_GPIO_TogglePin,"ax",%progbits
 394              		.align	1
 395              		.p2align 2,,3
 396              		.global	HAL_GPIO_TogglePin
 397              		.syntax unified
 398              		.thumb
 399              		.thumb_func
 401              	HAL_GPIO_TogglePin:
 402              		@ args = 0, pretend = 0, frame = 0
 403              		@ frame_needed = 0, uses_anonymous_args = 0
 404              		@ link register save eliminated.
 405 0000 C368     		ldr	r3, [r0, #12]
 406 0002 01EA0302 		and	r2, r1, r3
 407 0006 21EA0301 		bic	r1, r1, r3
 408 000a 41EA0241 		orr	r1, r1, r2, lsl #16
ARM GAS  /var/folders/td/83895s255bq6rlxfmrv9fnww0000gn/T//ccnjJNlt.s 			page 8


 409 000e 0161     		str	r1, [r0, #16]
 410 0010 7047     		bx	lr
 412 0012 00BF     		.section	.text.HAL_GPIO_LockPin,"ax",%progbits
 413              		.align	1
 414              		.p2align 2,,3
 415              		.global	HAL_GPIO_LockPin
 416              		.syntax unified
 417              		.thumb
 418              		.thumb_func
 420              	HAL_GPIO_LockPin:
 421              		@ args = 0, pretend = 0, frame = 8
 422              		@ frame_needed = 0, uses_anonymous_args = 0
 423              		@ link register save eliminated.
 424 0000 4FF48033 		mov	r3, #65536
 425 0004 82B0     		sub	sp, sp, #8
 426 0006 0193     		str	r3, [sp, #4]
 427 0008 019B     		ldr	r3, [sp, #4]
 428 000a 0B43     		orrs	r3, r3, r1
 429 000c 0193     		str	r3, [sp, #4]
 430 000e 019B     		ldr	r3, [sp, #4]
 431 0010 8361     		str	r3, [r0, #24]
 432 0012 8161     		str	r1, [r0, #24]
 433 0014 019B     		ldr	r3, [sp, #4]
 434 0016 8361     		str	r3, [r0, #24]
 435 0018 8369     		ldr	r3, [r0, #24]
 436 001a 0193     		str	r3, [sp, #4]
 437 001c 8069     		ldr	r0, [r0, #24]
 438 001e 80F48030 		eor	r0, r0, #65536
 439 0022 C0F30040 		ubfx	r0, r0, #16, #1
 440 0026 02B0     		add	sp, sp, #8
 441              		@ sp needed
 442 0028 7047     		bx	lr
 444 002a 00BF     		.section	.text.HAL_GPIO_EXTI_Callback,"ax",%progbits
 445              		.align	1
 446              		.p2align 2,,3
 447              		.weak	HAL_GPIO_EXTI_Callback
 448              		.syntax unified
 449              		.thumb
 450              		.thumb_func
 452              	HAL_GPIO_EXTI_Callback:
 453              		@ args = 0, pretend = 0, frame = 0
 454              		@ frame_needed = 0, uses_anonymous_args = 0
 455              		@ link register save eliminated.
 456 0000 7047     		bx	lr
 458 0002 00BF     		.section	.text.HAL_GPIO_EXTI_IRQHandler,"ax",%progbits
 459              		.align	1
 460              		.p2align 2,,3
 461              		.global	HAL_GPIO_EXTI_IRQHandler
 462              		.syntax unified
 463              		.thumb
 464              		.thumb_func
 466              	HAL_GPIO_EXTI_IRQHandler:
 467              		@ args = 0, pretend = 0, frame = 0
 468              		@ frame_needed = 0, uses_anonymous_args = 0
 469 0000 044A     		ldr	r2, .L93
 470 0002 5169     		ldr	r1, [r2, #20]
 471 0004 0142     		tst	r1, r0
ARM GAS  /var/folders/td/83895s255bq6rlxfmrv9fnww0000gn/T//ccnjJNlt.s 			page 9


 472 0006 00D1     		bne	.L92
 473 0008 7047     		bx	lr
 474              	.L92:
 475 000a 08B5     		push	{r3, lr}
 476 000c 5061     		str	r0, [r2, #20]
 477 000e FFF7FEFF 		bl	HAL_GPIO_EXTI_Callback
 478 0012 08BD     		pop	{r3, pc}
 479              	.L94:
 480              		.align	2
 481              	.L93:
 482 0014 00040140 		.word	1073808384
 484              		.ident	"GCC: (Arm GNU Toolchain 13.2.rel1 (Build arm-13.7)) 13.2.1 20231009"
ARM GAS  /var/folders/td/83895s255bq6rlxfmrv9fnww0000gn/T//ccnjJNlt.s 			page 10

