ARM GAS  /var/folders/td/83895s255bq6rlxfmrv9fnww0000gn/T//ccLSMB9j.s 			page 1


   1              		.cpu cortex-m3
   2              		.arch armv7-m
   3              		.fpu softvfp
   4              		.eabi_attribute 20, 1
   5              		.eabi_attribute 21, 1
   6              		.eabi_attribute 23, 3
   7              		.eabi_attribute 24, 1
   8              		.eabi_attribute 25, 1
   9              		.eabi_attribute 26, 1
  10              		.eabi_attribute 30, 2
  11              		.eabi_attribute 34, 1
  12              		.eabi_attribute 18, 4
  13              		.file	"stm32f1xx_hal_rcc_ex.c"
  14              		.text
  15              		.section	.text.HAL_RCCEx_PeriphCLKConfig,"ax",%progbits
  16              		.align	1
  17              		.p2align 2,,3
  18              		.global	HAL_RCCEx_PeriphCLKConfig
  19              		.syntax unified
  20              		.thumb
  21              		.thumb_func
  23              	HAL_RCCEx_PeriphCLKConfig:
  24              		@ args = 0, pretend = 0, frame = 8
  25              		@ frame_needed = 0, uses_anonymous_args = 0
  26 0000 2DE9F041 		push	{r4, r5, r6, r7, r8, lr}
  27 0004 0368     		ldr	r3, [r0]
  28 0006 0446     		mov	r4, r0
  29 0008 D807     		lsls	r0, r3, #31
  30 000a 82B0     		sub	sp, sp, #8
  31 000c 2CD5     		bpl	.L2
  32 000e 394B     		ldr	r3, .L32
  33 0010 DA69     		ldr	r2, [r3, #28]
  34 0012 D100     		lsls	r1, r2, #3
  35 0014 3FD5     		bpl	.L31
  36 0016 384D     		ldr	r5, .L32+4
  37 0018 0026     		movs	r6, #0
  38 001a 2B68     		ldr	r3, [r5]
  39 001c DA05     		lsls	r2, r3, #23
  40 001e 48D5     		bpl	.L4
  41              	.L10:
  42 0020 344D     		ldr	r5, .L32
  43 0022 6168     		ldr	r1, [r4, #4]
  44 0024 2B6A     		ldr	r3, [r5, #32]
  45 0026 13F44073 		ands	r3, r3, #768
  46 002a 11D0     		beq	.L6
  47 002c 01F44072 		and	r2, r1, #768
  48 0030 9A42     		cmp	r2, r3
  49 0032 0DD0     		beq	.L6
  50 0034 0020     		movs	r0, #0
  51 0036 0127     		movs	r7, #1
  52 0038 2B6A     		ldr	r3, [r5, #32]
  53 003a 304A     		ldr	r2, .L32+8
  54 003c 23F44071 		bic	r1, r3, #768
  55 0040 C2F84074 		str	r7, [r2, #1088]
  56 0044 C2F84004 		str	r0, [r2, #1088]
  57 0048 D807     		lsls	r0, r3, #31
  58 004a 2962     		str	r1, [r5, #32]
ARM GAS  /var/folders/td/83895s255bq6rlxfmrv9fnww0000gn/T//ccLSMB9j.s 			page 2


  59 004c 44D4     		bmi	.L11
  60              	.L28:
  61 004e 6168     		ldr	r1, [r4, #4]
  62              	.L6:
  63 0050 284A     		ldr	r2, .L32
  64 0052 136A     		ldr	r3, [r2, #32]
  65 0054 23F44073 		bic	r3, r3, #768
  66 0058 0B43     		orrs	r3, r3, r1
  67 005a 1362     		str	r3, [r2, #32]
  68 005c 1EB1     		cbz	r6, .L29
  69 005e D369     		ldr	r3, [r2, #28]
  70 0060 23F08053 		bic	r3, r3, #268435456
  71 0064 D361     		str	r3, [r2, #28]
  72              	.L29:
  73 0066 2368     		ldr	r3, [r4]
  74              	.L2:
  75 0068 9A07     		lsls	r2, r3, #30
  76 006a 06D5     		bpl	.L16
  77 006c 2149     		ldr	r1, .L32
  78 006e A068     		ldr	r0, [r4, #8]
  79 0070 4A68     		ldr	r2, [r1, #4]
  80 0072 22F44042 		bic	r2, r2, #49152
  81 0076 0243     		orrs	r2, r2, r0
  82 0078 4A60     		str	r2, [r1, #4]
  83              	.L16:
  84 007a DB06     		lsls	r3, r3, #27
  85 007c 03D4     		bmi	.L17
  86              	.L18:
  87 007e 0020     		movs	r0, #0
  88 0080 02B0     		add	sp, sp, #8
  89              		@ sp needed
  90 0082 BDE8F081 		pop	{r4, r5, r6, r7, r8, pc}
  91              	.L17:
  92 0086 1B4A     		ldr	r2, .L32
  93 0088 E168     		ldr	r1, [r4, #12]
  94 008a 5368     		ldr	r3, [r2, #4]
  95 008c 23F48003 		bic	r3, r3, #4194304
  96 0090 0B43     		orrs	r3, r3, r1
  97 0092 5360     		str	r3, [r2, #4]
  98 0094 F3E7     		b	.L18
  99              	.L31:
 100 0096 DA69     		ldr	r2, [r3, #28]
 101 0098 174D     		ldr	r5, .L32+4
 102 009a 42F08052 		orr	r2, r2, #268435456
 103 009e DA61     		str	r2, [r3, #28]
 104 00a0 DB69     		ldr	r3, [r3, #28]
 105 00a2 0126     		movs	r6, #1
 106 00a4 03F08053 		and	r3, r3, #268435456
 107 00a8 0193     		str	r3, [sp, #4]
 108 00aa 019B     		ldr	r3, [sp, #4]
 109 00ac 2B68     		ldr	r3, [r5]
 110 00ae DA05     		lsls	r2, r3, #23
 111 00b0 B6D4     		bmi	.L10
 112              	.L4:
 113 00b2 2B68     		ldr	r3, [r5]
 114 00b4 43F48073 		orr	r3, r3, #256
 115 00b8 2B60     		str	r3, [r5]
ARM GAS  /var/folders/td/83895s255bq6rlxfmrv9fnww0000gn/T//ccLSMB9j.s 			page 3


 116 00ba FFF7FEFF 		bl	HAL_GetTick
 117 00be 0746     		mov	r7, r0
 118              	.L7:
 119 00c0 2B68     		ldr	r3, [r5]
 120 00c2 DB05     		lsls	r3, r3, #23
 121 00c4 ACD4     		bmi	.L10
 122 00c6 FFF7FEFF 		bl	HAL_GetTick
 123 00ca C31B     		subs	r3, r0, r7
 124 00cc 642B     		cmp	r3, #100
 125 00ce F7D9     		bls	.L7
 126              	.L13:
 127 00d0 0320     		movs	r0, #3
 128 00d2 02B0     		add	sp, sp, #8
 129              		@ sp needed
 130 00d4 BDE8F081 		pop	{r4, r5, r6, r7, r8, pc}
 131              	.L11:
 132 00d8 FFF7FEFF 		bl	HAL_GetTick
 133 00dc 41F28838 		movw	r8, #5000
 134 00e0 0746     		mov	r7, r0
 135              	.L12:
 136 00e2 2B6A     		ldr	r3, [r5, #32]
 137 00e4 9907     		lsls	r1, r3, #30
 138 00e6 B2D4     		bmi	.L28
 139 00e8 FFF7FEFF 		bl	HAL_GetTick
 140 00ec C01B     		subs	r0, r0, r7
 141 00ee 4045     		cmp	r0, r8
 142 00f0 F7D9     		bls	.L12
 143 00f2 EDE7     		b	.L13
 144              	.L33:
 145              		.align	2
 146              	.L32:
 147 00f4 00100240 		.word	1073876992
 148 00f8 00700040 		.word	1073770496
 149 00fc 00004242 		.word	1111621632
 151              		.section	.text.HAL_RCCEx_GetPeriphCLKConfig,"ax",%progbits
 152              		.align	1
 153              		.p2align 2,,3
 154              		.global	HAL_RCCEx_GetPeriphCLKConfig
 155              		.syntax unified
 156              		.thumb
 157              		.thumb_func
 159              	HAL_RCCEx_GetPeriphCLKConfig:
 160              		@ args = 0, pretend = 0, frame = 0
 161              		@ frame_needed = 0, uses_anonymous_args = 0
 162              		@ link register save eliminated.
 163 0000 1321     		movs	r1, #19
 164 0002 074B     		ldr	r3, .L35
 165 0004 1A6A     		ldr	r2, [r3, #32]
 166 0006 02F44072 		and	r2, r2, #768
 167 000a 4260     		str	r2, [r0, #4]
 168 000c 5A68     		ldr	r2, [r3, #4]
 169 000e 0160     		str	r1, [r0]
 170 0010 02F44042 		and	r2, r2, #49152
 171 0014 8260     		str	r2, [r0, #8]
 172 0016 5B68     		ldr	r3, [r3, #4]
 173 0018 03F48003 		and	r3, r3, #4194304
 174 001c C360     		str	r3, [r0, #12]
ARM GAS  /var/folders/td/83895s255bq6rlxfmrv9fnww0000gn/T//ccLSMB9j.s 			page 4


 175 001e 7047     		bx	lr
 176              	.L36:
 177              		.align	2
 178              	.L35:
 179 0020 00100240 		.word	1073876992
 181              		.section	.text.HAL_RCCEx_GetPeriphCLKFreq,"ax",%progbits
 182              		.align	1
 183              		.p2align 2,,3
 184              		.global	HAL_RCCEx_GetPeriphCLKFreq
 185              		.syntax unified
 186              		.thumb
 187              		.thumb_func
 189              	HAL_RCCEx_GetPeriphCLKFreq:
 190              		@ args = 0, pretend = 0, frame = 0
 191              		@ frame_needed = 0, uses_anonymous_args = 0
 192 0000 0228     		cmp	r0, #2
 193 0002 08B5     		push	{r3, lr}
 194 0004 3DD0     		beq	.L38
 195 0006 1028     		cmp	r0, #16
 196 0008 19D0     		beq	.L39
 197 000a 0128     		cmp	r0, #1
 198 000c 37D1     		bne	.L48
 199 000e 40F20232 		movw	r2, #770
 200 0012 2949     		ldr	r1, .L52
 201 0014 0B6A     		ldr	r3, [r1, #32]
 202 0016 1A40     		ands	r2, r2, r3
 203 0018 B2F5817F 		cmp	r2, #258
 204 001c 3CD0     		beq	.L46
 205 001e 03F44073 		and	r3, r3, #768
 206 0022 B3F5007F 		cmp	r3, #512
 207 0026 3AD0     		beq	.L51
 208 0028 B3F5407F 		cmp	r3, #768
 209 002c 27D1     		bne	.L48
 210 002e 0B68     		ldr	r3, [r1]
 211 0030 4FF22440 		movw	r0, #62500
 212 0034 13F4003F 		tst	r3, #131072
 213 0038 08BF     		it	eq
 214 003a 0020     		moveq	r0, #0
 215              	.L37:
 216 003c 08BD     		pop	{r3, pc}
 217              	.L39:
 218 003e 1E4B     		ldr	r3, .L52
 219 0040 5A68     		ldr	r2, [r3, #4]
 220 0042 1868     		ldr	r0, [r3]
 221 0044 10F08070 		ands	r0, r0, #16777216
 222 0048 F8D0     		beq	.L37
 223 004a 1C48     		ldr	r0, .L52+4
 224 004c C2F38341 		ubfx	r1, r2, #18, #4
 225 0050 D203     		lsls	r2, r2, #15
 226 0052 405C     		ldrb	r0, [r0, r1]	@ zero_extendqisi2
 227 0054 2BD5     		bpl	.L42
 228 0056 5B68     		ldr	r3, [r3, #4]
 229 0058 194A     		ldr	r2, .L52+8
 230 005a C3F34043 		ubfx	r3, r3, #17, #1
 231 005e D25C     		ldrb	r2, [r2, r3]	@ zero_extendqisi2
 232 0060 184B     		ldr	r3, .L52+12
 233 0062 B3FBF2F3 		udiv	r3, r3, r2
ARM GAS  /var/folders/td/83895s255bq6rlxfmrv9fnww0000gn/T//ccLSMB9j.s 			page 5


 234 0066 03FB00F0 		mul	r0, r3, r0
 235              	.L43:
 236 006a 134B     		ldr	r3, .L52
 237 006c 5B68     		ldr	r3, [r3, #4]
 238 006e 5B02     		lsls	r3, r3, #9
 239 0070 E4D4     		bmi	.L37
 240 0072 154B     		ldr	r3, .L52+16
 241 0074 4000     		lsls	r0, r0, #1
 242 0076 A3FB0030 		umull	r3, r0, r3, r0
 243 007a 4008     		lsrs	r0, r0, #1
 244 007c 08BD     		pop	{r3, pc}
 245              	.L48:
 246 007e 0020     		movs	r0, #0
 247 0080 08BD     		pop	{r3, pc}
 248              	.L38:
 249 0082 FFF7FEFF 		bl	HAL_RCC_GetPCLK2Freq
 250 0086 0C4B     		ldr	r3, .L52
 251 0088 5B68     		ldr	r3, [r3, #4]
 252 008a C3F38133 		ubfx	r3, r3, #14, #2
 253 008e 0133     		adds	r3, r3, #1
 254 0090 5B00     		lsls	r3, r3, #1
 255 0092 B0FBF3F0 		udiv	r0, r0, r3
 256 0096 08BD     		pop	{r3, pc}
 257              	.L46:
 258 0098 4FF40040 		mov	r0, #32768
 259 009c 08BD     		pop	{r3, pc}
 260              	.L51:
 261 009e 4B6A     		ldr	r3, [r1, #36]
 262 00a0 49F64040 		movw	r0, #40000
 263 00a4 13F0020F 		tst	r3, #2
 264 00a8 08BF     		it	eq
 265 00aa 0020     		moveq	r0, #0
 266 00ac 08BD     		pop	{r3, pc}
 267              	.L42:
 268 00ae 074B     		ldr	r3, .L52+20
 269 00b0 03FB00F0 		mul	r0, r3, r0
 270 00b4 D9E7     		b	.L43
 271              	.L53:
 272 00b6 00BF     		.align	2
 273              	.L52:
 274 00b8 00100240 		.word	1073876992
 275 00bc 00000000 		.word	aPLLMULFactorTable.1
 276 00c0 00000000 		.word	aPredivFactorTable.0
 277 00c4 00127A00 		.word	8000000
 278 00c8 ABAAAAAA 		.word	-1431655765
 279 00cc 00093D00 		.word	4000000
 281              		.section	.rodata.aPredivFactorTable.0,"a"
 282              		.align	2
 285              	aPredivFactorTable.0:
 286 0000 0102     		.ascii	"\001\002"
 287              		.section	.rodata.aPLLMULFactorTable.1,"a"
 288              		.align	2
 291              	aPLLMULFactorTable.1:
 292 0000 02030405 		.ascii	"\002\003\004\005\006\007\010\011\012\013\014\015\016"
 292      06070809 
 292      0A0B0C0D 
 292      0E
ARM GAS  /var/folders/td/83895s255bq6rlxfmrv9fnww0000gn/T//ccLSMB9j.s 			page 6


 293 000d 0F1010   		.ascii	"\017\020\020"
 294              		.ident	"GCC: (Arm GNU Toolchain 13.2.rel1 (Build arm-13.7)) 13.2.1 20231009"
ARM GAS  /var/folders/td/83895s255bq6rlxfmrv9fnww0000gn/T//ccLSMB9j.s 			page 7

