ARM GAS  /var/folders/td/83895s255bq6rlxfmrv9fnww0000gn/T//ccMrHecU.s 			page 1


   1              		.cpu cortex-m3
   2              		.arch armv7-m
   3              		.fpu softvfp
   4              		.eabi_attribute 20, 1
   5              		.eabi_attribute 21, 1
   6              		.eabi_attribute 23, 3
   7              		.eabi_attribute 24, 1
   8              		.eabi_attribute 25, 1
   9              		.eabi_attribute 26, 1
  10              		.eabi_attribute 30, 2
  11              		.eabi_attribute 34, 1
  12              		.eabi_attribute 18, 4
  13              		.file	"stm32f1xx_hal_flash_ex.c"
  14              		.text
  15              		.section	.text.FLASH_OB_RDP_LevelConfig,"ax",%progbits
  16              		.align	1
  17              		.p2align 2,,3
  18              		.syntax unified
  19              		.thumb
  20              		.thumb_func
  22              	FLASH_OB_RDP_LevelConfig:
  23              		@ args = 0, pretend = 0, frame = 0
  24              		@ frame_needed = 0, uses_anonymous_args = 0
  25 0000 38B5     		push	{r3, r4, r5, lr}
  26 0002 0546     		mov	r5, r0
  27 0004 4CF25030 		movw	r0, #50000
  28 0008 FFF7FEFF 		bl	FLASH_WaitForLastOperation
  29 000c 00B1     		cbz	r0, .L5
  30              	.L2:
  31 000e 38BD     		pop	{r3, r4, r5, pc}
  32              	.L5:
  33 0010 114B     		ldr	r3, .L6
  34 0012 124C     		ldr	r4, .L6+4
  35 0014 D861     		str	r0, [r3, #28]
  36 0016 2369     		ldr	r3, [r4, #16]
  37 0018 4CF25030 		movw	r0, #50000
  38 001c 43F02003 		orr	r3, r3, #32
  39 0020 2361     		str	r3, [r4, #16]
  40 0022 2369     		ldr	r3, [r4, #16]
  41 0024 43F04003 		orr	r3, r3, #64
  42 0028 2361     		str	r3, [r4, #16]
  43 002a FFF7FEFF 		bl	FLASH_WaitForLastOperation
  44 002e 2369     		ldr	r3, [r4, #16]
  45 0030 23F02003 		bic	r3, r3, #32
  46 0034 2361     		str	r3, [r4, #16]
  47 0036 0028     		cmp	r0, #0
  48 0038 E9D1     		bne	.L2
  49 003a 2369     		ldr	r3, [r4, #16]
  50 003c 084A     		ldr	r2, .L6+8
  51 003e 43F01003 		orr	r3, r3, #16
  52 0042 2361     		str	r3, [r4, #16]
  53 0044 4CF25030 		movw	r0, #50000
  54 0048 1580     		strh	r5, [r2]	@ movhi
  55 004a FFF7FEFF 		bl	FLASH_WaitForLastOperation
  56 004e 2369     		ldr	r3, [r4, #16]
  57 0050 23F01003 		bic	r3, r3, #16
  58 0054 2361     		str	r3, [r4, #16]
ARM GAS  /var/folders/td/83895s255bq6rlxfmrv9fnww0000gn/T//ccMrHecU.s 			page 2


  59 0056 38BD     		pop	{r3, r4, r5, pc}
  60              	.L7:
  61              		.align	2
  62              	.L6:
  63 0058 00000000 		.word	pFlash
  64 005c 00200240 		.word	1073881088
  65 0060 00F8FF1F 		.word	536868864
  67              		.section	.text.HAL_FLASHEx_Erase,"ax",%progbits
  68              		.align	1
  69              		.p2align 2,,3
  70              		.global	HAL_FLASHEx_Erase
  71              		.syntax unified
  72              		.thumb
  73              		.thumb_func
  75              	HAL_FLASHEx_Erase:
  76              		@ args = 0, pretend = 0, frame = 0
  77              		@ frame_needed = 0, uses_anonymous_args = 0
  78 0000 2DE9F843 		push	{r3, r4, r5, r6, r7, r8, r9, lr}
  79 0004 2D4E     		ldr	r6, .L20
  80 0006 337E     		ldrb	r3, [r6, #24]	@ zero_extendqisi2
  81 0008 012B     		cmp	r3, #1
  82 000a 54D0     		beq	.L15
  83 000c 0123     		movs	r3, #1
  84 000e 3376     		strb	r3, [r6, #24]
  85 0010 0368     		ldr	r3, [r0]
  86 0012 8146     		mov	r9, r0
  87 0014 022B     		cmp	r3, #2
  88 0016 31D0     		beq	.L18
  89 0018 4CF25030 		movw	r0, #50000
  90 001c 8846     		mov	r8, r1
  91 001e FFF7FEFF 		bl	FLASH_WaitForLastOperation
  92 0022 0746     		mov	r7, r0
  93 0024 78BB     		cbnz	r0, .L11
  94 0026 4FF0FF33 		mov	r3, #-1
  95 002a C8F80030 		str	r3, [r8]
  96 002e D9E90253 		ldrd	r5, r3, [r9, #8]
  97 0032 05EB8323 		add	r3, r5, r3, lsl #10
  98 0036 9D42     		cmp	r5, r3
  99 0038 25D2     		bcs	.L11
 100 003a 214C     		ldr	r4, .L20+4
 101 003c 07E0     		b	.L14
 102              	.L13:
 103 003e 05F58065 		add	r5, r5, #1024
 104 0042 D9E90232 		ldrd	r3, r2, [r9, #8]
 105 0046 03EB8223 		add	r3, r3, r2, lsl #10
 106 004a AB42     		cmp	r3, r5
 107 004c 1CD9     		bls	.L12
 108              	.L14:
 109 004e F761     		str	r7, [r6, #28]
 110 0050 2369     		ldr	r3, [r4, #16]
 111 0052 4CF25030 		movw	r0, #50000
 112 0056 43F00203 		orr	r3, r3, #2
 113 005a 2361     		str	r3, [r4, #16]
 114 005c 6561     		str	r5, [r4, #20]
 115 005e 2369     		ldr	r3, [r4, #16]
 116 0060 43F04003 		orr	r3, r3, #64
 117 0064 2361     		str	r3, [r4, #16]
ARM GAS  /var/folders/td/83895s255bq6rlxfmrv9fnww0000gn/T//ccMrHecU.s 			page 3


 118 0066 FFF7FEFF 		bl	FLASH_WaitForLastOperation
 119 006a 2369     		ldr	r3, [r4, #16]
 120 006c 23F00203 		bic	r3, r3, #2
 121 0070 2361     		str	r3, [r4, #16]
 122 0072 0028     		cmp	r0, #0
 123 0074 E3D0     		beq	.L13
 124 0076 C8F80050 		str	r5, [r8]
 125 007a 05E0     		b	.L12
 126              	.L18:
 127 007c 4CF25030 		movw	r0, #50000
 128 0080 FFF7FEFF 		bl	FLASH_WaitForLastOperation
 129 0084 20B1     		cbz	r0, .L19
 130              	.L11:
 131 0086 0120     		movs	r0, #1
 132              	.L12:
 133 0088 0023     		movs	r3, #0
 134 008a 3376     		strb	r3, [r6, #24]
 135 008c BDE8F883 		pop	{r3, r4, r5, r6, r7, r8, r9, pc}
 136              	.L19:
 137 0090 0B4C     		ldr	r4, .L20+4
 138 0092 F061     		str	r0, [r6, #28]
 139 0094 2369     		ldr	r3, [r4, #16]
 140 0096 4CF25030 		movw	r0, #50000
 141 009a 43F00403 		orr	r3, r3, #4
 142 009e 2361     		str	r3, [r4, #16]
 143 00a0 2369     		ldr	r3, [r4, #16]
 144 00a2 43F04003 		orr	r3, r3, #64
 145 00a6 2361     		str	r3, [r4, #16]
 146 00a8 FFF7FEFF 		bl	FLASH_WaitForLastOperation
 147 00ac 2369     		ldr	r3, [r4, #16]
 148 00ae 23F00403 		bic	r3, r3, #4
 149 00b2 2361     		str	r3, [r4, #16]
 150 00b4 E8E7     		b	.L12
 151              	.L15:
 152 00b6 0220     		movs	r0, #2
 153 00b8 BDE8F883 		pop	{r3, r4, r5, r6, r7, r8, r9, pc}
 154              	.L21:
 155              		.align	2
 156              	.L20:
 157 00bc 00000000 		.word	pFlash
 158 00c0 00200240 		.word	1073881088
 160              		.section	.text.HAL_FLASHEx_Erase_IT,"ax",%progbits
 161              		.align	1
 162              		.p2align 2,,3
 163              		.global	HAL_FLASHEx_Erase_IT
 164              		.syntax unified
 165              		.thumb
 166              		.thumb_func
 168              	HAL_FLASHEx_Erase_IT:
 169              		@ args = 0, pretend = 0, frame = 0
 170              		@ frame_needed = 0, uses_anonymous_args = 0
 171              		@ link register save eliminated.
 172 0000 1B4B     		ldr	r3, .L33
 173 0002 1A7E     		ldrb	r2, [r3, #24]	@ zero_extendqisi2
 174 0004 012A     		cmp	r2, #1
 175 0006 31D0     		beq	.L26
 176 0008 4FF0010C 		mov	ip, #1
ARM GAS  /var/folders/td/83895s255bq6rlxfmrv9fnww0000gn/T//ccMrHecU.s 			page 4


 177 000c 1A78     		ldrb	r2, [r3]	@ zero_extendqisi2
 178 000e 0146     		mov	r1, r0
 179 0010 83F818C0 		strb	ip, [r3, #24]
 180 0014 02F0FF00 		and	r0, r2, #255
 181 0018 D2B9     		cbnz	r2, .L27
 182 001a 164A     		ldr	r2, .L33+4
 183 001c 10B4     		push	{r4}
 184 001e 1469     		ldr	r4, [r2, #16]
 185 0020 44F4A054 		orr	r4, r4, #5120
 186 0024 1461     		str	r4, [r2, #16]
 187 0026 0C68     		ldr	r4, [r1]
 188 0028 022C     		cmp	r4, #2
 189 002a 13D0     		beq	.L32
 190 002c CC68     		ldr	r4, [r1, #12]
 191 002e 8968     		ldr	r1, [r1, #8]
 192 0030 83F800C0 		strb	ip, [r3]
 193 0034 5C60     		str	r4, [r3, #4]
 194 0036 9960     		str	r1, [r3, #8]
 195 0038 D861     		str	r0, [r3, #28]
 196 003a 1369     		ldr	r3, [r2, #16]
 197 003c 10BC     		pop	{r4}
 198 003e 43F00203 		orr	r3, r3, #2
 199 0042 1361     		str	r3, [r2, #16]
 200 0044 5161     		str	r1, [r2, #20]
 201 0046 1369     		ldr	r3, [r2, #16]
 202 0048 43F04003 		orr	r3, r3, #64
 203 004c 1361     		str	r3, [r2, #16]
 204 004e 7047     		bx	lr
 205              	.L27:
 206 0050 6046     		mov	r0, ip
 207 0052 7047     		bx	lr
 208              	.L32:
 209 0054 1C70     		strb	r4, [r3]
 210 0056 D861     		str	r0, [r3, #28]
 211 0058 1369     		ldr	r3, [r2, #16]
 212 005a 10BC     		pop	{r4}
 213 005c 43F00403 		orr	r3, r3, #4
 214 0060 1361     		str	r3, [r2, #16]
 215 0062 1369     		ldr	r3, [r2, #16]
 216 0064 43F04003 		orr	r3, r3, #64
 217 0068 1361     		str	r3, [r2, #16]
 218 006a 7047     		bx	lr
 219              	.L26:
 220 006c 0220     		movs	r0, #2
 221 006e 7047     		bx	lr
 222              	.L34:
 223              		.align	2
 224              	.L33:
 225 0070 00000000 		.word	pFlash
 226 0074 00200240 		.word	1073881088
 228              		.section	.text.HAL_FLASHEx_OBErase,"ax",%progbits
 229              		.align	1
 230              		.p2align 2,,3
 231              		.global	HAL_FLASHEx_OBErase
 232              		.syntax unified
 233              		.thumb
 234              		.thumb_func
ARM GAS  /var/folders/td/83895s255bq6rlxfmrv9fnww0000gn/T//ccMrHecU.s 			page 5


 236              	HAL_FLASHEx_OBErase:
 237              		@ args = 0, pretend = 0, frame = 0
 238              		@ frame_needed = 0, uses_anonymous_args = 0
 239 0000 38B5     		push	{r3, r4, r5, lr}
 240 0002 134C     		ldr	r4, .L41
 241 0004 4CF25030 		movw	r0, #50000
 242 0008 E369     		ldr	r3, [r4, #28]
 243 000a 13F0020F 		tst	r3, #2
 244 000e 0CBF     		ite	eq
 245 0010 A525     		moveq	r5, #165
 246 0012 0025     		movne	r5, #0
 247 0014 FFF7FEFF 		bl	FLASH_WaitForLastOperation
 248 0018 00B1     		cbz	r0, .L40
 249              	.L37:
 250 001a 38BD     		pop	{r3, r4, r5, pc}
 251              	.L40:
 252 001c 0346     		mov	r3, r0
 253 001e 0D4A     		ldr	r2, .L41+4
 254 0020 4CF25030 		movw	r0, #50000
 255 0024 D361     		str	r3, [r2, #28]
 256 0026 2369     		ldr	r3, [r4, #16]
 257 0028 43F02003 		orr	r3, r3, #32
 258 002c 2361     		str	r3, [r4, #16]
 259 002e 2369     		ldr	r3, [r4, #16]
 260 0030 43F04003 		orr	r3, r3, #64
 261 0034 2361     		str	r3, [r4, #16]
 262 0036 FFF7FEFF 		bl	FLASH_WaitForLastOperation
 263 003a 2369     		ldr	r3, [r4, #16]
 264 003c 23F02003 		bic	r3, r3, #32
 265 0040 2361     		str	r3, [r4, #16]
 266 0042 0028     		cmp	r0, #0
 267 0044 E9D1     		bne	.L37
 268 0046 2846     		mov	r0, r5
 269 0048 BDE83840 		pop	{r3, r4, r5, lr}
 270 004c FFF7FEBF 		b	FLASH_OB_RDP_LevelConfig
 271              	.L42:
 272              		.align	2
 273              	.L41:
 274 0050 00200240 		.word	1073881088
 275 0054 00000000 		.word	pFlash
 277              		.section	.text.HAL_FLASHEx_OBProgram,"ax",%progbits
 278              		.align	1
 279              		.p2align 2,,3
 280              		.global	HAL_FLASHEx_OBProgram
 281              		.syntax unified
 282              		.thumb
 283              		.thumb_func
 285              	HAL_FLASHEx_OBProgram:
 286              		@ args = 0, pretend = 0, frame = 0
 287              		@ frame_needed = 0, uses_anonymous_args = 0
 288 0000 2DE9F843 		push	{r3, r4, r5, r6, r7, r8, r9, lr}
 289 0004 8E4E     		ldr	r6, .L115
 290 0006 337E     		ldrb	r3, [r6, #24]	@ zero_extendqisi2
 291 0008 012B     		cmp	r3, #1
 292 000a 00F0EA80 		beq	.L69
 293 000e 0124     		movs	r4, #1
 294 0010 3476     		strb	r4, [r6, #24]
ARM GAS  /var/folders/td/83895s255bq6rlxfmrv9fnww0000gn/T//ccMrHecU.s 			page 6


 295 0012 0368     		ldr	r3, [r0]
 296 0014 0746     		mov	r7, r0
 297 0016 D807     		lsls	r0, r3, #31
 298 0018 19D5     		bpl	.L45
 299 001a D7E90138 		ldrd	r3, r8, [r7, #4]
 300 001e 894D     		ldr	r5, .L115+4
 301 0020 A342     		cmp	r3, r4
 302 0022 4CF25030 		movw	r0, #50000
 303 0026 D5F82090 		ldr	r9, [r5, #32]
 304 002a 00F0B380 		beq	.L111
 305 002e FFF7FEFF 		bl	FLASH_WaitForLastOperation
 306 0032 0446     		mov	r4, r0
 307 0034 0028     		cmp	r0, #0
 308 0036 59D0     		beq	.L112
 309              	.L67:
 310 0038 0023     		movs	r3, #0
 311 003a 3376     		strb	r3, [r6, #24]
 312 003c 2046     		mov	r0, r4
 313 003e BDE8F883 		pop	{r3, r4, r5, r6, r7, r8, r9, pc}
 314              	.L110:
 315 0042 804A     		ldr	r2, .L115+4
 316 0044 1369     		ldr	r3, [r2, #16]
 317 0046 23F01003 		bic	r3, r3, #16
 318 004a 1361     		str	r3, [r2, #16]
 319 004c 3B68     		ldr	r3, [r7]
 320              	.L45:
 321 004e 9907     		lsls	r1, r3, #30
 322 0050 1FD4     		bmi	.L113
 323 0052 5A07     		lsls	r2, r3, #29
 324 0054 26D4     		bmi	.L114
 325              	.L65:
 326 0056 1B07     		lsls	r3, r3, #28
 327 0058 EED5     		bpl	.L67
 328 005a 4CF25030 		movw	r0, #50000
 329 005e D7F81480 		ldr	r8, [r7, #20]
 330 0062 3F7E     		ldrb	r7, [r7, #24]	@ zero_extendqisi2
 331 0064 FFF7FEFF 		bl	FLASH_WaitForLastOperation
 332 0068 0446     		mov	r4, r0
 333 006a 0028     		cmp	r0, #0
 334 006c E4D1     		bne	.L67
 335 006e 754D     		ldr	r5, .L115+4
 336 0070 F061     		str	r0, [r6, #28]
 337 0072 2B69     		ldr	r3, [r5, #16]
 338 0074 4CF25030 		movw	r0, #50000
 339 0078 43F01003 		orr	r3, r3, #16
 340 007c 2B61     		str	r3, [r5, #16]
 341 007e A8F80070 		strh	r7, [r8]	@ movhi
 342 0082 FFF7FEFF 		bl	FLASH_WaitForLastOperation
 343 0086 2B69     		ldr	r3, [r5, #16]
 344 0088 0446     		mov	r4, r0
 345 008a 23F01003 		bic	r3, r3, #16
 346 008e 2B61     		str	r3, [r5, #16]
 347 0090 D2E7     		b	.L67
 348              	.L113:
 349 0092 387C     		ldrb	r0, [r7, #16]	@ zero_extendqisi2
 350 0094 FFF7FEFF 		bl	FLASH_OB_RDP_LevelConfig
 351 0098 0446     		mov	r4, r0
ARM GAS  /var/folders/td/83895s255bq6rlxfmrv9fnww0000gn/T//ccMrHecU.s 			page 7


 352 009a 0028     		cmp	r0, #0
 353 009c CCD1     		bne	.L67
 354 009e 3B68     		ldr	r3, [r7]
 355 00a0 5A07     		lsls	r2, r3, #29
 356 00a2 D8D5     		bpl	.L65
 357              	.L114:
 358 00a4 4CF25030 		movw	r0, #50000
 359 00a8 7D7C     		ldrb	r5, [r7, #17]	@ zero_extendqisi2
 360 00aa FFF7FEFF 		bl	FLASH_WaitForLastOperation
 361 00ae 0446     		mov	r4, r0
 362 00b0 0028     		cmp	r0, #0
 363 00b2 C1D1     		bne	.L67
 364 00b4 DFF88C81 		ldr	r8, .L115+4
 365 00b8 F061     		str	r0, [r6, #28]
 366 00ba D8F81030 		ldr	r3, [r8, #16]
 367 00be 45F08805 		orr	r5, r5, #136
 368 00c2 43F01003 		orr	r3, r3, #16
 369 00c6 C8F81030 		str	r3, [r8, #16]
 370 00ca 5F4B     		ldr	r3, .L115+8
 371 00cc 4CF25030 		movw	r0, #50000
 372 00d0 5D80     		strh	r5, [r3, #2]	@ movhi
 373 00d2 FFF7FEFF 		bl	FLASH_WaitForLastOperation
 374 00d6 D8F81030 		ldr	r3, [r8, #16]
 375 00da 0446     		mov	r4, r0
 376 00dc 23F01003 		bic	r3, r3, #16
 377 00e0 C8F81030 		str	r3, [r8, #16]
 378 00e4 0028     		cmp	r0, #0
 379 00e6 A7D1     		bne	.L67
 380 00e8 3B68     		ldr	r3, [r7]
 381 00ea B4E7     		b	.L65
 382              	.L112:
 383 00ec F061     		str	r0, [r6, #28]
 384 00ee FFF7FEFF 		bl	HAL_FLASHEx_OBErase
 385 00f2 0446     		mov	r4, r0
 386 00f4 0028     		cmp	r0, #0
 387 00f6 9FD1     		bne	.L67
 388 00f8 2B69     		ldr	r3, [r5, #16]
 389 00fa 49EA0809 		orr	r9, r9, r8
 390 00fe 43F01003 		orr	r3, r3, #16
 391 0102 2B61     		str	r3, [r5, #16]
 392 0104 5FFA89F3 		uxtb	r3, r9
 393 0108 FF2B     		cmp	r3, #255
 394 010a 0AD0     		beq	.L59
 395 010c 4E49     		ldr	r1, .L115+8
 396 010e 4CF25030 		movw	r0, #50000
 397 0112 0A89     		ldrh	r2, [r1, #8]
 398 0114 92B2     		uxth	r2, r2
 399 0116 1343     		orrs	r3, r3, r2
 400 0118 0B81     		strh	r3, [r1, #8]	@ movhi
 401 011a FFF7FEFF 		bl	FLASH_WaitForLastOperation
 402 011e 0028     		cmp	r0, #0
 403 0120 58D1     		bne	.L60
 404              	.L59:
 405 0122 C9F30723 		ubfx	r3, r9, #8, #8
 406 0126 FF2B     		cmp	r3, #255
 407 0128 0AD0     		beq	.L58
 408 012a 4749     		ldr	r1, .L115+8
ARM GAS  /var/folders/td/83895s255bq6rlxfmrv9fnww0000gn/T//ccMrHecU.s 			page 8


 409 012c 4CF25030 		movw	r0, #50000
 410 0130 4A89     		ldrh	r2, [r1, #10]
 411 0132 92B2     		uxth	r2, r2
 412 0134 1343     		orrs	r3, r3, r2
 413 0136 4B81     		strh	r3, [r1, #10]	@ movhi
 414 0138 FFF7FEFF 		bl	FLASH_WaitForLastOperation
 415 013c 0028     		cmp	r0, #0
 416 013e 49D1     		bne	.L60
 417              	.L58:
 418 0140 C9F30743 		ubfx	r3, r9, #16, #8
 419 0144 FF2B     		cmp	r3, #255
 420 0146 0AD0     		beq	.L61
 421 0148 3F49     		ldr	r1, .L115+8
 422 014a 4CF25030 		movw	r0, #50000
 423 014e 8A89     		ldrh	r2, [r1, #12]
 424 0150 92B2     		uxth	r2, r2
 425 0152 1343     		orrs	r3, r3, r2
 426 0154 8B81     		strh	r3, [r1, #12]	@ movhi
 427 0156 FFF7FEFF 		bl	FLASH_WaitForLastOperation
 428 015a 0028     		cmp	r0, #0
 429 015c 3AD1     		bne	.L60
 430              	.L61:
 431 015e 4FEA1969 		lsr	r9, r9, #24
 432 0162 B9F1FF0F 		cmp	r9, #255
 433 0166 3FF46CAF 		beq	.L110
 434 016a 4CF25030 		movw	r0, #50000
 435 016e 364A     		ldr	r2, .L115+8
 436 0170 D389     		ldrh	r3, [r2, #14]
 437 0172 9BB2     		uxth	r3, r3
 438 0174 43EA0903 		orr	r3, r3, r9
 439 0178 D381     		strh	r3, [r2, #14]	@ movhi
 440              	.L108:
 441 017a FFF7FEFF 		bl	FLASH_WaitForLastOperation
 442 017e 314A     		ldr	r2, .L115+4
 443 0180 0446     		mov	r4, r0
 444 0182 1369     		ldr	r3, [r2, #16]
 445 0184 23F01003 		bic	r3, r3, #16
 446 0188 1361     		str	r3, [r2, #16]
 447 018a 0028     		cmp	r0, #0
 448 018c 7FF454AF 		bne	.L67
 449 0190 3B68     		ldr	r3, [r7]
 450 0192 5CE7     		b	.L45
 451              	.L111:
 452 0194 FFF7FEFF 		bl	FLASH_WaitForLastOperation
 453 0198 0446     		mov	r4, r0
 454 019a 0028     		cmp	r0, #0
 455 019c 7FF44CAF 		bne	.L67
 456 01a0 F061     		str	r0, [r6, #28]
 457 01a2 FFF7FEFF 		bl	HAL_FLASHEx_OBErase
 458 01a6 0446     		mov	r4, r0
 459 01a8 0028     		cmp	r0, #0
 460 01aa 7FF445AF 		bne	.L67
 461 01ae 2B69     		ldr	r3, [r5, #16]
 462 01b0 29EA0809 		bic	r9, r9, r8
 463 01b4 43F01003 		orr	r3, r3, #16
 464 01b8 2B61     		str	r3, [r5, #16]
 465 01ba 5FFA89F3 		uxtb	r3, r9
ARM GAS  /var/folders/td/83895s255bq6rlxfmrv9fnww0000gn/T//ccMrHecU.s 			page 9


 466 01be FF2B     		cmp	r3, #255
 467 01c0 13D0     		beq	.L51
 468 01c2 214A     		ldr	r2, .L115+8
 469 01c4 4CF25030 		movw	r0, #50000
 470 01c8 1189     		ldrh	r1, [r2, #8]
 471 01ca 0B40     		ands	r3, r3, r1
 472 01cc 1381     		strh	r3, [r2, #8]	@ movhi
 473 01ce FFF7FEFF 		bl	FLASH_WaitForLastOperation
 474 01d2 50B1     		cbz	r0, .L51
 475              	.L60:
 476 01d4 1B4A     		ldr	r2, .L115+4
 477 01d6 0446     		mov	r4, r0
 478 01d8 1369     		ldr	r3, [r2, #16]
 479 01da 23F01003 		bic	r3, r3, #16
 480 01de 1361     		str	r3, [r2, #16]
 481 01e0 2AE7     		b	.L67
 482              	.L69:
 483 01e2 0224     		movs	r4, #2
 484 01e4 2046     		mov	r0, r4
 485 01e6 BDE8F883 		pop	{r3, r4, r5, r6, r7, r8, r9, pc}
 486              	.L51:
 487 01ea C9F30723 		ubfx	r3, r9, #8, #8
 488 01ee FF2B     		cmp	r3, #255
 489 01f0 09D0     		beq	.L50
 490 01f2 154A     		ldr	r2, .L115+8
 491 01f4 4CF25030 		movw	r0, #50000
 492 01f8 5189     		ldrh	r1, [r2, #10]
 493 01fa 0B40     		ands	r3, r3, r1
 494 01fc 5381     		strh	r3, [r2, #10]	@ movhi
 495 01fe FFF7FEFF 		bl	FLASH_WaitForLastOperation
 496 0202 0028     		cmp	r0, #0
 497 0204 E6D1     		bne	.L60
 498              	.L50:
 499 0206 C9F30743 		ubfx	r3, r9, #16, #8
 500 020a FF2B     		cmp	r3, #255
 501 020c 09D0     		beq	.L53
 502 020e 0E4A     		ldr	r2, .L115+8
 503 0210 4CF25030 		movw	r0, #50000
 504 0214 9189     		ldrh	r1, [r2, #12]
 505 0216 0B40     		ands	r3, r3, r1
 506 0218 9381     		strh	r3, [r2, #12]	@ movhi
 507 021a FFF7FEFF 		bl	FLASH_WaitForLastOperation
 508 021e 0028     		cmp	r0, #0
 509 0220 D8D1     		bne	.L60
 510              	.L53:
 511 0222 4FEA1969 		lsr	r9, r9, #24
 512 0226 B9F1FF0F 		cmp	r9, #255
 513 022a 3FF40AAF 		beq	.L110
 514 022e 064B     		ldr	r3, .L115+8
 515 0230 4CF25030 		movw	r0, #50000
 516 0234 DA89     		ldrh	r2, [r3, #14]
 517 0236 09EA0209 		and	r9, r9, r2
 518 023a A3F80E90 		strh	r9, [r3, #14]	@ movhi
 519 023e 9CE7     		b	.L108
 520              	.L116:
 521              		.align	2
 522              	.L115:
ARM GAS  /var/folders/td/83895s255bq6rlxfmrv9fnww0000gn/T//ccMrHecU.s 			page 10


 523 0240 00000000 		.word	pFlash
 524 0244 00200240 		.word	1073881088
 525 0248 00F8FF1F 		.word	536868864
 527              		.section	.text.HAL_FLASHEx_OBGetConfig,"ax",%progbits
 528              		.align	1
 529              		.p2align 2,,3
 530              		.global	HAL_FLASHEx_OBGetConfig
 531              		.syntax unified
 532              		.thumb
 533              		.thumb_func
 535              	HAL_FLASHEx_OBGetConfig:
 536              		@ args = 0, pretend = 0, frame = 0
 537              		@ frame_needed = 0, uses_anonymous_args = 0
 538              		@ link register save eliminated.
 539 0000 0722     		movs	r2, #7
 540 0002 084B     		ldr	r3, .L120
 541 0004 0260     		str	r2, [r0]
 542 0006 1A6A     		ldr	r2, [r3, #32]
 543 0008 8260     		str	r2, [r0, #8]
 544 000a DA69     		ldr	r2, [r3, #28]
 545 000c 12F0020F 		tst	r2, #2
 546 0010 0CBF     		ite	eq
 547 0012 A522     		moveq	r2, #165
 548 0014 0022     		movne	r2, #0
 549 0016 0274     		strb	r2, [r0, #16]
 550 0018 DB69     		ldr	r3, [r3, #28]
 551 001a C3F38203 		ubfx	r3, r3, #2, #3
 552 001e 4374     		strb	r3, [r0, #17]
 553 0020 7047     		bx	lr
 554              	.L121:
 555 0022 00BF     		.align	2
 556              	.L120:
 557 0024 00200240 		.word	1073881088
 559              		.section	.text.HAL_FLASHEx_OBGetUserData,"ax",%progbits
 560              		.align	1
 561              		.p2align 2,,3
 562              		.global	HAL_FLASHEx_OBGetUserData
 563              		.syntax unified
 564              		.thumb
 565              		.thumb_func
 567              	HAL_FLASHEx_OBGetUserData:
 568              		@ args = 0, pretend = 0, frame = 0
 569              		@ frame_needed = 0, uses_anonymous_args = 0
 570              		@ link register save eliminated.
 571 0000 044B     		ldr	r3, .L125
 572 0002 9842     		cmp	r0, r3
 573 0004 044B     		ldr	r3, .L125+4
 574 0006 D869     		ldr	r0, [r3, #28]
 575 0008 0CBF     		ite	eq
 576 000a C0F38720 		ubfxeq	r0, r0, #10, #8
 577 000e C0F38740 		ubfxne	r0, r0, #18, #8
 578 0012 7047     		bx	lr
 579              	.L126:
 580              		.align	2
 581              	.L125:
 582 0014 04F8FF1F 		.word	536868868
 583 0018 00200240 		.word	1073881088
ARM GAS  /var/folders/td/83895s255bq6rlxfmrv9fnww0000gn/T//ccMrHecU.s 			page 11


 585              		.section	.text.FLASH_PageErase,"ax",%progbits
 586              		.align	1
 587              		.p2align 2,,3
 588              		.global	FLASH_PageErase
 589              		.syntax unified
 590              		.thumb
 591              		.thumb_func
 593              	FLASH_PageErase:
 594              		@ args = 0, pretend = 0, frame = 0
 595              		@ frame_needed = 0, uses_anonymous_args = 0
 596              		@ link register save eliminated.
 597 0000 0021     		movs	r1, #0
 598 0002 064A     		ldr	r2, .L128
 599 0004 064B     		ldr	r3, .L128+4
 600 0006 D161     		str	r1, [r2, #28]
 601 0008 1A69     		ldr	r2, [r3, #16]
 602 000a 42F00202 		orr	r2, r2, #2
 603 000e 1A61     		str	r2, [r3, #16]
 604 0010 5861     		str	r0, [r3, #20]
 605 0012 1A69     		ldr	r2, [r3, #16]
 606 0014 42F04002 		orr	r2, r2, #64
 607 0018 1A61     		str	r2, [r3, #16]
 608 001a 7047     		bx	lr
 609              	.L129:
 610              		.align	2
 611              	.L128:
 612 001c 00000000 		.word	pFlash
 613 0020 00200240 		.word	1073881088
 615              		.ident	"GCC: (Arm GNU Toolchain 13.2.rel1 (Build arm-13.7)) 13.2.1 20231009"
ARM GAS  /var/folders/td/83895s255bq6rlxfmrv9fnww0000gn/T//ccMrHecU.s 			page 12

