ARM GAS  /var/folders/td/83895s255bq6rlxfmrv9fnww0000gn/T//ccczYGAH.s 			page 1


   1              		.cpu cortex-m3
   2              		.arch armv7-m
   3              		.fpu softvfp
   4              		.eabi_attribute 20, 1
   5              		.eabi_attribute 21, 1
   6              		.eabi_attribute 23, 3
   7              		.eabi_attribute 24, 1
   8              		.eabi_attribute 25, 1
   9              		.eabi_attribute 26, 1
  10              		.eabi_attribute 30, 2
  11              		.eabi_attribute 34, 1
  12              		.eabi_attribute 18, 4
  13              		.file	"stm32f1xx_hal_tim.c"
  14              		.text
  15              		.section	.text.TIM_OC1_SetConfig,"ax",%progbits
  16              		.align	1
  17              		.p2align 2,,3
  18              		.syntax unified
  19              		.thumb
  20              		.thumb_func
  22              	TIM_OC1_SetConfig:
  23              		@ args = 0, pretend = 0, frame = 0
  24              		@ frame_needed = 0, uses_anonymous_args = 0
  25              		@ link register save eliminated.
  26 0000 036A     		ldr	r3, [r0, #32]
  27 0002 026A     		ldr	r2, [r0, #32]
  28 0004 70B4     		push	{r4, r5, r6}
  29 0006 22F00102 		bic	r2, r2, #1
  30 000a 0262     		str	r2, [r0, #32]
  31 000c 4468     		ldr	r4, [r0, #4]
  32 000e 8269     		ldr	r2, [r0, #24]
  33 0010 0E68     		ldr	r6, [r1]
  34 0012 0F4D     		ldr	r5, .L6
  35 0014 22F07302 		bic	r2, r2, #115
  36 0018 3243     		orrs	r2, r2, r6
  37 001a 8E68     		ldr	r6, [r1, #8]
  38 001c 23F00203 		bic	r3, r3, #2
  39 0020 A842     		cmp	r0, r5
  40 0022 43EA0603 		orr	r3, r3, r6
  41 0026 06D0     		beq	.L5
  42              	.L2:
  43 0028 4968     		ldr	r1, [r1, #4]
  44 002a 4460     		str	r4, [r0, #4]
  45 002c 8261     		str	r2, [r0, #24]
  46 002e 70BC     		pop	{r4, r5, r6}
  47 0030 4163     		str	r1, [r0, #52]
  48 0032 0362     		str	r3, [r0, #32]
  49 0034 7047     		bx	lr
  50              	.L5:
  51 0036 CD68     		ldr	r5, [r1, #12]
  52 0038 23F00803 		bic	r3, r3, #8
  53 003c 2B43     		orrs	r3, r3, r5
  54 003e 24F44074 		bic	r4, r4, #768
  55 0042 D1E90556 		ldrd	r5, r6, [r1, #20]
  56 0046 3543     		orrs	r5, r5, r6
  57 0048 23F00403 		bic	r3, r3, #4
  58 004c 2C43     		orrs	r4, r4, r5
ARM GAS  /var/folders/td/83895s255bq6rlxfmrv9fnww0000gn/T//ccczYGAH.s 			page 2


  59 004e EBE7     		b	.L2
  60              	.L7:
  61              		.align	2
  62              	.L6:
  63 0050 002C0140 		.word	1073818624
  65              		.section	.text.TIM_OC3_SetConfig,"ax",%progbits
  66              		.align	1
  67              		.p2align 2,,3
  68              		.syntax unified
  69              		.thumb
  70              		.thumb_func
  72              	TIM_OC3_SetConfig:
  73              		@ args = 0, pretend = 0, frame = 0
  74              		@ frame_needed = 0, uses_anonymous_args = 0
  75              		@ link register save eliminated.
  76 0000 036A     		ldr	r3, [r0, #32]
  77 0002 026A     		ldr	r2, [r0, #32]
  78 0004 70B4     		push	{r4, r5, r6}
  79 0006 22F48072 		bic	r2, r2, #256
  80 000a 0262     		str	r2, [r0, #32]
  81 000c 4468     		ldr	r4, [r0, #4]
  82 000e C269     		ldr	r2, [r0, #28]
  83 0010 0E68     		ldr	r6, [r1]
  84 0012 104D     		ldr	r5, .L12
  85 0014 22F07302 		bic	r2, r2, #115
  86 0018 3243     		orrs	r2, r2, r6
  87 001a 8E68     		ldr	r6, [r1, #8]
  88 001c 23F40073 		bic	r3, r3, #512
  89 0020 A842     		cmp	r0, r5
  90 0022 43EA0623 		orr	r3, r3, r6, lsl #8
  91 0026 06D0     		beq	.L11
  92              	.L9:
  93 0028 4968     		ldr	r1, [r1, #4]
  94 002a 4460     		str	r4, [r0, #4]
  95 002c C261     		str	r2, [r0, #28]
  96 002e 70BC     		pop	{r4, r5, r6}
  97 0030 C163     		str	r1, [r0, #60]
  98 0032 0362     		str	r3, [r0, #32]
  99 0034 7047     		bx	lr
 100              	.L11:
 101 0036 CD68     		ldr	r5, [r1, #12]
 102 0038 23F40063 		bic	r3, r3, #2048
 103 003c 43EA0523 		orr	r3, r3, r5, lsl #8
 104 0040 24F44054 		bic	r4, r4, #12288
 105 0044 D1E90556 		ldrd	r5, r6, [r1, #20]
 106 0048 3543     		orrs	r5, r5, r6
 107 004a 23F48063 		bic	r3, r3, #1024
 108 004e 44EA0514 		orr	r4, r4, r5, lsl #4
 109 0052 E9E7     		b	.L9
 110              	.L13:
 111              		.align	2
 112              	.L12:
 113 0054 002C0140 		.word	1073818624
 115              		.section	.text.TIM_OC4_SetConfig,"ax",%progbits
 116              		.align	1
 117              		.p2align 2,,3
 118              		.syntax unified
ARM GAS  /var/folders/td/83895s255bq6rlxfmrv9fnww0000gn/T//ccczYGAH.s 			page 3


 119              		.thumb
 120              		.thumb_func
 122              	TIM_OC4_SetConfig:
 123              		@ args = 0, pretend = 0, frame = 0
 124              		@ frame_needed = 0, uses_anonymous_args = 0
 125              		@ link register save eliminated.
 126 0000 036A     		ldr	r3, [r0, #32]
 127 0002 026A     		ldr	r2, [r0, #32]
 128 0004 30B4     		push	{r4, r5}
 129 0006 22F48052 		bic	r2, r2, #4096
 130 000a 0262     		str	r2, [r0, #32]
 131 000c 4468     		ldr	r4, [r0, #4]
 132 000e C269     		ldr	r2, [r0, #28]
 133 0010 D1F800C0 		ldr	ip, [r1]
 134 0014 0C4D     		ldr	r5, .L18
 135 0016 22F4E642 		bic	r2, r2, #29440
 136 001a 42EA0C22 		orr	r2, r2, ip, lsl #8
 137 001e D1F808C0 		ldr	ip, [r1, #8]
 138 0022 23F40053 		bic	r3, r3, #8192
 139 0026 A842     		cmp	r0, r5
 140 0028 43EA0C33 		orr	r3, r3, ip, lsl #12
 141 002c 06D0     		beq	.L17
 142              	.L15:
 143 002e 4968     		ldr	r1, [r1, #4]
 144 0030 4460     		str	r4, [r0, #4]
 145 0032 C261     		str	r2, [r0, #28]
 146 0034 30BC     		pop	{r4, r5}
 147 0036 0164     		str	r1, [r0, #64]
 148 0038 0362     		str	r3, [r0, #32]
 149 003a 7047     		bx	lr
 150              	.L17:
 151 003c 4D69     		ldr	r5, [r1, #20]
 152 003e 24F48044 		bic	r4, r4, #16384
 153 0042 44EA8514 		orr	r4, r4, r5, lsl #6
 154 0046 F2E7     		b	.L15
 155              	.L19:
 156              		.align	2
 157              	.L18:
 158 0048 002C0140 		.word	1073818624
 160              		.section	.text.TIM_SlaveTimer_SetConfig.constprop.0,"ax",%progbits
 161              		.align	1
 162              		.p2align 2,,3
 163              		.syntax unified
 164              		.thumb
 165              		.thumb_func
 167              	TIM_SlaveTimer_SetConfig.constprop.0:
 168              		@ args = 0, pretend = 0, frame = 0
 169              		@ frame_needed = 0, uses_anonymous_args = 0
 170              		@ link register save eliminated.
 171 0000 30B4     		push	{r4, r5}
 172 0002 0468     		ldr	r4, [r0]
 173 0004 D1E90020 		ldrd	r2, r0, [r1]
 174 0008 A368     		ldr	r3, [r4, #8]
 175 000a 5028     		cmp	r0, #80
 176 000c 23F07003 		bic	r3, r3, #112
 177 0010 43EA0003 		orr	r3, r3, r0
 178 0014 23F00703 		bic	r3, r3, #7
ARM GAS  /var/folders/td/83895s255bq6rlxfmrv9fnww0000gn/T//ccczYGAH.s 			page 4


 179 0018 43EA0203 		orr	r3, r3, r2
 180 001c A360     		str	r3, [r4, #8]
 181 001e 22D0     		beq	.L21
 182 0020 11D9     		bls	.L35
 183 0022 6028     		cmp	r0, #96
 184 0024 31D0     		beq	.L27
 185 0026 7028     		cmp	r0, #112
 186 0028 1AD1     		bne	.L30
 187 002a D1E90203 		ldrd	r0, r3, [r1, #8]
 188 002e A268     		ldr	r2, [r4, #8]
 189 0030 0969     		ldr	r1, [r1, #16]
 190 0032 0343     		orrs	r3, r3, r0
 191 0034 22F47F42 		bic	r2, r2, #65280
 192 0038 43EA0123 		orr	r3, r3, r1, lsl #8
 193 003c 1343     		orrs	r3, r3, r2
 194 003e A360     		str	r3, [r4, #8]
 195              	.L25:
 196 0040 0020     		movs	r0, #0
 197 0042 30BC     		pop	{r4, r5}
 198 0044 7047     		bx	lr
 199              	.L35:
 200 0046 4028     		cmp	r0, #64
 201 0048 32D0     		beq	.L23
 202 004a 09D8     		bhi	.L30
 203 004c 2028     		cmp	r0, #32
 204 004e F7D0     		beq	.L25
 205 0050 3ED8     		bhi	.L26
 206 0052 30F01003 		bics	r3, r0, #16
 207 0056 14BF     		ite	ne
 208 0058 0120     		movne	r0, #1
 209 005a 0020     		moveq	r0, #0
 210              	.L24:
 211 005c 30BC     		pop	{r4, r5}
 212 005e 7047     		bx	lr
 213              	.L30:
 214 0060 0120     		movs	r0, #1
 215 0062 30BC     		pop	{r4, r5}
 216 0064 7047     		bx	lr
 217              	.L21:
 218 0066 206A     		ldr	r0, [r4, #32]
 219 0068 236A     		ldr	r3, [r4, #32]
 220 006a 8A68     		ldr	r2, [r1, #8]
 221 006c 23F00103 		bic	r3, r3, #1
 222 0070 0D69     		ldr	r5, [r1, #16]
 223 0072 2362     		str	r3, [r4, #32]
 224 0074 A369     		ldr	r3, [r4, #24]
 225 0076 20F00A01 		bic	r1, r0, #10
 226 007a 23F0F003 		bic	r3, r3, #240
 227 007e 43EA0513 		orr	r3, r3, r5, lsl #4
 228 0082 0A43     		orrs	r2, r2, r1
 229 0084 A361     		str	r3, [r4, #24]
 230 0086 2262     		str	r2, [r4, #32]
 231 0088 DAE7     		b	.L25
 232              	.L27:
 233 008a 236A     		ldr	r3, [r4, #32]
 234 008c 226A     		ldr	r2, [r4, #32]
 235 008e 8868     		ldr	r0, [r1, #8]
ARM GAS  /var/folders/td/83895s255bq6rlxfmrv9fnww0000gn/T//ccczYGAH.s 			page 5


 236 0090 22F01002 		bic	r2, r2, #16
 237 0094 0969     		ldr	r1, [r1, #16]
 238 0096 2262     		str	r2, [r4, #32]
 239 0098 A269     		ldr	r2, [r4, #24]
 240 009a 23F0A003 		bic	r3, r3, #160
 241 009e 22F47042 		bic	r2, r2, #61440
 242 00a2 42EA0132 		orr	r2, r2, r1, lsl #12
 243 00a6 43EA0013 		orr	r3, r3, r0, lsl #4
 244 00aa A261     		str	r2, [r4, #24]
 245 00ac 2362     		str	r3, [r4, #32]
 246 00ae C7E7     		b	.L25
 247              	.L23:
 248 00b0 052A     		cmp	r2, #5
 249 00b2 D5D0     		beq	.L30
 250 00b4 226A     		ldr	r2, [r4, #32]
 251 00b6 236A     		ldr	r3, [r4, #32]
 252 00b8 0969     		ldr	r1, [r1, #16]
 253 00ba 23F00103 		bic	r3, r3, #1
 254 00be 2362     		str	r3, [r4, #32]
 255 00c0 A369     		ldr	r3, [r4, #24]
 256 00c2 23F0F003 		bic	r3, r3, #240
 257 00c6 43EA0113 		orr	r3, r3, r1, lsl #4
 258 00ca A361     		str	r3, [r4, #24]
 259 00cc 2262     		str	r2, [r4, #32]
 260 00ce B7E7     		b	.L25
 261              	.L26:
 262 00d0 3038     		subs	r0, r0, #48
 263 00d2 18BF     		it	ne
 264 00d4 0120     		movne	r0, #1
 265 00d6 C1E7     		b	.L24
 267              		.section	.text.HAL_TIM_Base_MspInit,"ax",%progbits
 268              		.align	1
 269              		.p2align 2,,3
 270              		.weak	HAL_TIM_Base_MspInit
 271              		.syntax unified
 272              		.thumb
 273              		.thumb_func
 275              	HAL_TIM_Base_MspInit:
 276              		@ args = 0, pretend = 0, frame = 0
 277              		@ frame_needed = 0, uses_anonymous_args = 0
 278              		@ link register save eliminated.
 279 0000 7047     		bx	lr
 281 0002 00BF     		.section	.text.HAL_TIM_Base_MspDeInit,"ax",%progbits
 282              		.align	1
 283              		.p2align 2,,3
 284              		.weak	HAL_TIM_Base_MspDeInit
 285              		.syntax unified
 286              		.thumb
 287              		.thumb_func
 289              	HAL_TIM_Base_MspDeInit:
 290              		@ args = 0, pretend = 0, frame = 0
 291              		@ frame_needed = 0, uses_anonymous_args = 0
 292              		@ link register save eliminated.
 293 0000 7047     		bx	lr
 295 0002 00BF     		.section	.text.HAL_TIM_Base_DeInit,"ax",%progbits
 296              		.align	1
 297              		.p2align 2,,3
ARM GAS  /var/folders/td/83895s255bq6rlxfmrv9fnww0000gn/T//ccczYGAH.s 			page 6


 298              		.global	HAL_TIM_Base_DeInit
 299              		.syntax unified
 300              		.thumb
 301              		.thumb_func
 303              	HAL_TIM_Base_DeInit:
 304              		@ args = 0, pretend = 0, frame = 0
 305              		@ frame_needed = 0, uses_anonymous_args = 0
 306 0000 0221     		movs	r1, #2
 307 0002 41F21112 		movw	r2, #4369
 308 0006 0368     		ldr	r3, [r0]
 309 0008 10B5     		push	{r4, lr}
 310 000a 80F83D10 		strb	r1, [r0, #61]
 311 000e 196A     		ldr	r1, [r3, #32]
 312 0010 0446     		mov	r4, r0
 313 0012 1142     		tst	r1, r2
 314 0014 08D1     		bne	.L39
 315 0016 40F24442 		movw	r2, #1092
 316 001a 196A     		ldr	r1, [r3, #32]
 317 001c 1142     		tst	r1, r2
 318 001e 03D1     		bne	.L39
 319 0020 1A68     		ldr	r2, [r3]
 320 0022 22F00102 		bic	r2, r2, #1
 321 0026 1A60     		str	r2, [r3]
 322              	.L39:
 323 0028 2046     		mov	r0, r4
 324 002a FFF7FEFF 		bl	HAL_TIM_Base_MspDeInit
 325 002e 0020     		movs	r0, #0
 326 0030 84F84600 		strb	r0, [r4, #70]
 327 0034 84F83C00 		strb	r0, [r4, #60]
 328 0038 84F83E00 		strb	r0, [r4, #62]
 329 003c 84F83F00 		strb	r0, [r4, #63]
 330 0040 84F84000 		strb	r0, [r4, #64]
 331 0044 84F84100 		strb	r0, [r4, #65]
 332 0048 84F84200 		strb	r0, [r4, #66]
 333 004c 84F84300 		strb	r0, [r4, #67]
 334 0050 84F84400 		strb	r0, [r4, #68]
 335 0054 84F84500 		strb	r0, [r4, #69]
 336 0058 84F83D00 		strb	r0, [r4, #61]
 337 005c 10BD     		pop	{r4, pc}
 339 005e 00BF     		.section	.text.HAL_TIM_Base_Start,"ax",%progbits
 340              		.align	1
 341              		.p2align 2,,3
 342              		.global	HAL_TIM_Base_Start
 343              		.syntax unified
 344              		.thumb
 345              		.thumb_func
 347              	HAL_TIM_Base_Start:
 348              		@ args = 0, pretend = 0, frame = 0
 349              		@ frame_needed = 0, uses_anonymous_args = 0
 350              		@ link register save eliminated.
 351 0000 90F83D30 		ldrb	r3, [r0, #61]	@ zero_extendqisi2
 352 0004 012B     		cmp	r3, #1
 353 0006 1CD1     		bne	.L46
 354 0008 0221     		movs	r1, #2
 355 000a 0368     		ldr	r3, [r0]
 356 000c 0E4A     		ldr	r2, .L54
 357 000e 80F83D10 		strb	r1, [r0, #61]
ARM GAS  /var/folders/td/83895s255bq6rlxfmrv9fnww0000gn/T//ccczYGAH.s 			page 7


 358 0012 9342     		cmp	r3, r2
 359 0014 0AD0     		beq	.L43
 360 0016 B3F1804F 		cmp	r3, #1073741824
 361 001a 07D0     		beq	.L43
 362 001c A2F59432 		sub	r2, r2, #75776
 363 0020 9342     		cmp	r3, r2
 364 0022 03D0     		beq	.L43
 365 0024 02F58062 		add	r2, r2, #1024
 366 0028 9342     		cmp	r3, r2
 367 002a 04D1     		bne	.L53
 368              	.L43:
 369 002c 9A68     		ldr	r2, [r3, #8]
 370 002e 02F00702 		and	r2, r2, #7
 371 0032 062A     		cmp	r2, #6
 372 0034 03D0     		beq	.L45
 373              	.L53:
 374 0036 1A68     		ldr	r2, [r3]
 375 0038 42F00102 		orr	r2, r2, #1
 376 003c 1A60     		str	r2, [r3]
 377              	.L45:
 378 003e 0020     		movs	r0, #0
 379 0040 7047     		bx	lr
 380              	.L46:
 381 0042 0120     		movs	r0, #1
 382 0044 7047     		bx	lr
 383              	.L55:
 384 0046 00BF     		.align	2
 385              	.L54:
 386 0048 002C0140 		.word	1073818624
 388              		.section	.text.HAL_TIM_Base_Stop,"ax",%progbits
 389              		.align	1
 390              		.p2align 2,,3
 391              		.global	HAL_TIM_Base_Stop
 392              		.syntax unified
 393              		.thumb
 394              		.thumb_func
 396              	HAL_TIM_Base_Stop:
 397              		@ args = 0, pretend = 0, frame = 0
 398              		@ frame_needed = 0, uses_anonymous_args = 0
 399              		@ link register save eliminated.
 400 0000 41F21111 		movw	r1, #4369
 401 0004 0268     		ldr	r2, [r0]
 402 0006 0346     		mov	r3, r0
 403 0008 106A     		ldr	r0, [r2, #32]
 404 000a 0842     		tst	r0, r1
 405 000c 08D1     		bne	.L57
 406 000e 40F24441 		movw	r1, #1092
 407 0012 106A     		ldr	r0, [r2, #32]
 408 0014 0842     		tst	r0, r1
 409 0016 03D1     		bne	.L57
 410 0018 1168     		ldr	r1, [r2]
 411 001a 21F00101 		bic	r1, r1, #1
 412 001e 1160     		str	r1, [r2]
 413              	.L57:
 414 0020 0122     		movs	r2, #1
 415 0022 0020     		movs	r0, #0
 416 0024 83F83D20 		strb	r2, [r3, #61]
ARM GAS  /var/folders/td/83895s255bq6rlxfmrv9fnww0000gn/T//ccczYGAH.s 			page 8


 417 0028 7047     		bx	lr
 419 002a 00BF     		.section	.text.HAL_TIM_Base_Start_IT,"ax",%progbits
 420              		.align	1
 421              		.p2align 2,,3
 422              		.global	HAL_TIM_Base_Start_IT
 423              		.syntax unified
 424              		.thumb
 425              		.thumb_func
 427              	HAL_TIM_Base_Start_IT:
 428              		@ args = 0, pretend = 0, frame = 0
 429              		@ frame_needed = 0, uses_anonymous_args = 0
 430              		@ link register save eliminated.
 431 0000 90F83D30 		ldrb	r3, [r0, #61]	@ zero_extendqisi2
 432 0004 012B     		cmp	r3, #1
 433 0006 1FD1     		bne	.L63
 434 0008 0222     		movs	r2, #2
 435 000a 0368     		ldr	r3, [r0]
 436 000c 80F83D20 		strb	r2, [r0, #61]
 437 0010 DA68     		ldr	r2, [r3, #12]
 438 0012 0E49     		ldr	r1, .L71
 439 0014 42F00102 		orr	r2, r2, #1
 440 0018 8B42     		cmp	r3, r1
 441 001a DA60     		str	r2, [r3, #12]
 442 001c 09D0     		beq	.L60
 443 001e B3F1804F 		cmp	r3, #1073741824
 444 0022 06D0     		beq	.L60
 445 0024 0A4A     		ldr	r2, .L71+4
 446 0026 9342     		cmp	r3, r2
 447 0028 03D0     		beq	.L60
 448 002a 02F58062 		add	r2, r2, #1024
 449 002e 9342     		cmp	r3, r2
 450 0030 04D1     		bne	.L70
 451              	.L60:
 452 0032 9A68     		ldr	r2, [r3, #8]
 453 0034 02F00702 		and	r2, r2, #7
 454 0038 062A     		cmp	r2, #6
 455 003a 03D0     		beq	.L62
 456              	.L70:
 457 003c 1A68     		ldr	r2, [r3]
 458 003e 42F00102 		orr	r2, r2, #1
 459 0042 1A60     		str	r2, [r3]
 460              	.L62:
 461 0044 0020     		movs	r0, #0
 462 0046 7047     		bx	lr
 463              	.L63:
 464 0048 0120     		movs	r0, #1
 465 004a 7047     		bx	lr
 466              	.L72:
 467              		.align	2
 468              	.L71:
 469 004c 002C0140 		.word	1073818624
 470 0050 00040040 		.word	1073742848
 472              		.section	.text.HAL_TIM_Base_Stop_IT,"ax",%progbits
 473              		.align	1
 474              		.p2align 2,,3
 475              		.global	HAL_TIM_Base_Stop_IT
 476              		.syntax unified
ARM GAS  /var/folders/td/83895s255bq6rlxfmrv9fnww0000gn/T//ccczYGAH.s 			page 9


 477              		.thumb
 478              		.thumb_func
 480              	HAL_TIM_Base_Stop_IT:
 481              		@ args = 0, pretend = 0, frame = 0
 482              		@ frame_needed = 0, uses_anonymous_args = 0
 483              		@ link register save eliminated.
 484 0000 41F2111C 		movw	ip, #4369
 485 0004 0268     		ldr	r2, [r0]
 486 0006 0346     		mov	r3, r0
 487 0008 D168     		ldr	r1, [r2, #12]
 488 000a 21F00101 		bic	r1, r1, #1
 489 000e D160     		str	r1, [r2, #12]
 490 0010 116A     		ldr	r1, [r2, #32]
 491 0012 11EA0C0F 		tst	r1, ip
 492 0016 08D1     		bne	.L74
 493 0018 40F24441 		movw	r1, #1092
 494 001c 106A     		ldr	r0, [r2, #32]
 495 001e 0842     		tst	r0, r1
 496 0020 03D1     		bne	.L74
 497 0022 1168     		ldr	r1, [r2]
 498 0024 21F00101 		bic	r1, r1, #1
 499 0028 1160     		str	r1, [r2]
 500              	.L74:
 501 002a 0122     		movs	r2, #1
 502 002c 0020     		movs	r0, #0
 503 002e 83F83D20 		strb	r2, [r3, #61]
 504 0032 7047     		bx	lr
 506              		.section	.text.HAL_TIM_Base_Start_DMA,"ax",%progbits
 507              		.align	1
 508              		.p2align 2,,3
 509              		.global	HAL_TIM_Base_Start_DMA
 510              		.syntax unified
 511              		.thumb
 512              		.thumb_func
 514              	HAL_TIM_Base_Start_DMA:
 515              		@ args = 0, pretend = 0, frame = 0
 516              		@ frame_needed = 0, uses_anonymous_args = 0
 517 0000 F8B5     		push	{r3, r4, r5, r6, r7, lr}
 518 0002 90F83DC0 		ldrb	ip, [r0, #61]	@ zero_extendqisi2
 519 0006 0446     		mov	r4, r0
 520 0008 BCF1020F 		cmp	ip, #2
 521 000c 5FFA8CF0 		uxtb	r0, ip
 522 0010 06D0     		beq	.L76
 523 0012 94F83D00 		ldrb	r0, [r4, #61]	@ zero_extendqisi2
 524 0016 0128     		cmp	r0, #1
 525 0018 01D1     		bne	.L78
 526 001a 01B1     		cbz	r1, .L78
 527 001c 0AB9     		cbnz	r2, .L98
 528              	.L78:
 529 001e 0120     		movs	r0, #1
 530              	.L76:
 531 0020 F8BD     		pop	{r3, r4, r5, r6, r7, pc}
 532              	.L98:
 533 0022 4FF0020C 		mov	ip, #2
 534 0026 206A     		ldr	r0, [r4, #32]
 535 0028 1346     		mov	r3, r2
 536 002a 154F     		ldr	r7, .L99
ARM GAS  /var/folders/td/83895s255bq6rlxfmrv9fnww0000gn/T//ccczYGAH.s 			page 10


 537 002c 2268     		ldr	r2, [r4]
 538 002e 154E     		ldr	r6, .L99+4
 539 0030 154D     		ldr	r5, .L99+8
 540 0032 84F83DC0 		strb	ip, [r4, #61]
 541 0036 2C32     		adds	r2, r2, #44
 542 0038 C0E90A76 		strd	r7, r6, [r0, #40]
 543 003c 0563     		str	r5, [r0, #48]
 544 003e FFF7FEFF 		bl	HAL_DMA_Start_IT
 545 0042 0028     		cmp	r0, #0
 546 0044 EBD1     		bne	.L78
 547 0046 2368     		ldr	r3, [r4]
 548 0048 1049     		ldr	r1, .L99+12
 549 004a DA68     		ldr	r2, [r3, #12]
 550 004c 8B42     		cmp	r3, r1
 551 004e 42F48072 		orr	r2, r2, #256
 552 0052 DA60     		str	r2, [r3, #12]
 553 0054 09D0     		beq	.L79
 554 0056 B3F1804F 		cmp	r3, #1073741824
 555 005a 06D0     		beq	.L79
 556 005c 0C4A     		ldr	r2, .L99+16
 557 005e 9342     		cmp	r3, r2
 558 0060 03D0     		beq	.L79
 559 0062 02F58062 		add	r2, r2, #1024
 560 0066 9342     		cmp	r3, r2
 561 0068 04D1     		bne	.L80
 562              	.L79:
 563 006a 9A68     		ldr	r2, [r3, #8]
 564 006c 02F00702 		and	r2, r2, #7
 565 0070 062A     		cmp	r2, #6
 566 0072 D5D0     		beq	.L76
 567              	.L80:
 568 0074 1A68     		ldr	r2, [r3]
 569 0076 42F00102 		orr	r2, r2, #1
 570 007a 1A60     		str	r2, [r3]
 571 007c F8BD     		pop	{r3, r4, r5, r6, r7, pc}
 572              	.L100:
 573 007e 00BF     		.align	2
 574              	.L99:
 575 0080 00000000 		.word	TIM_DMAPeriodElapsedCplt
 576 0084 00000000 		.word	TIM_DMAPeriodElapsedHalfCplt
 577 0088 00000000 		.word	TIM_DMAError
 578 008c 002C0140 		.word	1073818624
 579 0090 00040040 		.word	1073742848
 581              		.section	.text.HAL_TIM_Base_Stop_DMA,"ax",%progbits
 582              		.align	1
 583              		.p2align 2,,3
 584              		.global	HAL_TIM_Base_Stop_DMA
 585              		.syntax unified
 586              		.thumb
 587              		.thumb_func
 589              	HAL_TIM_Base_Stop_DMA:
 590              		@ args = 0, pretend = 0, frame = 0
 591              		@ frame_needed = 0, uses_anonymous_args = 0
 592 0000 0268     		ldr	r2, [r0]
 593 0002 10B5     		push	{r4, lr}
 594 0004 D368     		ldr	r3, [r2, #12]
 595 0006 0446     		mov	r4, r0
ARM GAS  /var/folders/td/83895s255bq6rlxfmrv9fnww0000gn/T//ccczYGAH.s 			page 11


 596 0008 23F48073 		bic	r3, r3, #256
 597 000c 006A     		ldr	r0, [r0, #32]
 598 000e D360     		str	r3, [r2, #12]
 599 0010 FFF7FEFF 		bl	HAL_DMA_Abort_IT
 600 0014 41F21112 		movw	r2, #4369
 601 0018 2368     		ldr	r3, [r4]
 602 001a 196A     		ldr	r1, [r3, #32]
 603 001c 1142     		tst	r1, r2
 604 001e 08D1     		bne	.L102
 605 0020 40F24442 		movw	r2, #1092
 606 0024 196A     		ldr	r1, [r3, #32]
 607 0026 1142     		tst	r1, r2
 608 0028 03D1     		bne	.L102
 609 002a 1A68     		ldr	r2, [r3]
 610 002c 22F00102 		bic	r2, r2, #1
 611 0030 1A60     		str	r2, [r3]
 612              	.L102:
 613 0032 0123     		movs	r3, #1
 614 0034 84F83D30 		strb	r3, [r4, #61]
 615 0038 0020     		movs	r0, #0
 616 003a 10BD     		pop	{r4, pc}
 618              		.section	.text.HAL_TIM_OC_MspInit,"ax",%progbits
 619              		.align	1
 620              		.p2align 2,,3
 621              		.weak	HAL_TIM_OC_MspInit
 622              		.syntax unified
 623              		.thumb
 624              		.thumb_func
 626              	HAL_TIM_OC_MspInit:
 627              		@ args = 0, pretend = 0, frame = 0
 628              		@ frame_needed = 0, uses_anonymous_args = 0
 629              		@ link register save eliminated.
 630 0000 7047     		bx	lr
 632 0002 00BF     		.section	.text.HAL_TIM_OC_MspDeInit,"ax",%progbits
 633              		.align	1
 634              		.p2align 2,,3
 635              		.weak	HAL_TIM_OC_MspDeInit
 636              		.syntax unified
 637              		.thumb
 638              		.thumb_func
 640              	HAL_TIM_OC_MspDeInit:
 641              		@ args = 0, pretend = 0, frame = 0
 642              		@ frame_needed = 0, uses_anonymous_args = 0
 643              		@ link register save eliminated.
 644 0000 7047     		bx	lr
 646 0002 00BF     		.section	.text.HAL_TIM_OC_DeInit,"ax",%progbits
 647              		.align	1
 648              		.p2align 2,,3
 649              		.global	HAL_TIM_OC_DeInit
 650              		.syntax unified
 651              		.thumb
 652              		.thumb_func
 654              	HAL_TIM_OC_DeInit:
 655              		@ args = 0, pretend = 0, frame = 0
 656              		@ frame_needed = 0, uses_anonymous_args = 0
 657 0000 0221     		movs	r1, #2
 658 0002 41F21112 		movw	r2, #4369
ARM GAS  /var/folders/td/83895s255bq6rlxfmrv9fnww0000gn/T//ccczYGAH.s 			page 12


 659 0006 0368     		ldr	r3, [r0]
 660 0008 10B5     		push	{r4, lr}
 661 000a 80F83D10 		strb	r1, [r0, #61]
 662 000e 196A     		ldr	r1, [r3, #32]
 663 0010 0446     		mov	r4, r0
 664 0012 1142     		tst	r1, r2
 665 0014 08D1     		bne	.L107
 666 0016 40F24442 		movw	r2, #1092
 667 001a 196A     		ldr	r1, [r3, #32]
 668 001c 1142     		tst	r1, r2
 669 001e 03D1     		bne	.L107
 670 0020 1A68     		ldr	r2, [r3]
 671 0022 22F00102 		bic	r2, r2, #1
 672 0026 1A60     		str	r2, [r3]
 673              	.L107:
 674 0028 2046     		mov	r0, r4
 675 002a FFF7FEFF 		bl	HAL_TIM_OC_MspDeInit
 676 002e 0020     		movs	r0, #0
 677 0030 84F84600 		strb	r0, [r4, #70]
 678 0034 84F83C00 		strb	r0, [r4, #60]
 679 0038 84F83E00 		strb	r0, [r4, #62]
 680 003c 84F83F00 		strb	r0, [r4, #63]
 681 0040 84F84000 		strb	r0, [r4, #64]
 682 0044 84F84100 		strb	r0, [r4, #65]
 683 0048 84F84200 		strb	r0, [r4, #66]
 684 004c 84F84300 		strb	r0, [r4, #67]
 685 0050 84F84400 		strb	r0, [r4, #68]
 686 0054 84F84500 		strb	r0, [r4, #69]
 687 0058 84F83D00 		strb	r0, [r4, #61]
 688 005c 10BD     		pop	{r4, pc}
 690 005e 00BF     		.section	.text.HAL_TIM_OC_Start,"ax",%progbits
 691              		.align	1
 692              		.p2align 2,,3
 693              		.global	HAL_TIM_OC_Start
 694              		.syntax unified
 695              		.thumb
 696              		.thumb_func
 698              	HAL_TIM_OC_Start:
 699              		@ args = 0, pretend = 0, frame = 0
 700              		@ frame_needed = 0, uses_anonymous_args = 0
 701              		@ link register save eliminated.
 702 0000 39BB     		cbnz	r1, .L110
 703 0002 90F83E30 		ldrb	r3, [r0, #62]	@ zero_extendqisi2
 704 0006 012B     		cmp	r3, #1
 705 0008 2BD1     		bne	.L126
 706 000a 0223     		movs	r3, #2
 707 000c 80F83E30 		strb	r3, [r0, #62]
 708              	.L118:
 709 0010 0122     		movs	r2, #1
 710 0012 0368     		ldr	r3, [r0]
 711 0014 01F01F01 		and	r1, r1, #31
 712 0018 186A     		ldr	r0, [r3, #32]
 713 001a 8A40     		lsls	r2, r2, r1
 714 001c 20EA0200 		bic	r0, r0, r2
 715 0020 10B4     		push	{r4}
 716 0022 1862     		str	r0, [r3, #32]
 717 0024 196A     		ldr	r1, [r3, #32]
ARM GAS  /var/folders/td/83895s255bq6rlxfmrv9fnww0000gn/T//ccczYGAH.s 			page 13


 718 0026 204C     		ldr	r4, .L145
 719 0028 0A43     		orrs	r2, r2, r1
 720 002a A342     		cmp	r3, r4
 721 002c 1A62     		str	r2, [r3, #32]
 722 002e 1AD0     		beq	.L142
 723 0030 B3F1804F 		cmp	r3, #1073741824
 724 0034 1BD0     		beq	.L120
 725 0036 1D4A     		ldr	r2, .L145+4
 726 0038 9342     		cmp	r3, r2
 727 003a 18D0     		beq	.L120
 728 003c 02F58062 		add	r2, r2, #1024
 729 0040 9342     		cmp	r3, r2
 730 0042 14D0     		beq	.L120
 731              	.L140:
 732 0044 1A68     		ldr	r2, [r3]
 733 0046 0020     		movs	r0, #0
 734 0048 42F00102 		orr	r2, r2, #1
 735 004c 10BC     		pop	{r4}
 736 004e 1A60     		str	r2, [r3]
 737 0050 7047     		bx	lr
 738              	.L110:
 739 0052 0429     		cmp	r1, #4
 740 0054 17D0     		beq	.L143
 741 0056 0829     		cmp	r1, #8
 742 0058 1DD0     		beq	.L144
 743 005a 90F84130 		ldrb	r3, [r0, #65]	@ zero_extendqisi2
 744 005e 012B     		cmp	r3, #1
 745 0060 0DD0     		beq	.L136
 746              	.L126:
 747 0062 0120     		movs	r0, #1
 748 0064 7047     		bx	lr
 749              	.L142:
 750 0066 5A6C     		ldr	r2, [r3, #68]
 751 0068 42F40042 		orr	r2, r2, #32768
 752 006c 5A64     		str	r2, [r3, #68]
 753              	.L120:
 754 006e 9A68     		ldr	r2, [r3, #8]
 755 0070 02F00702 		and	r2, r2, #7
 756 0074 062A     		cmp	r2, #6
 757 0076 E5D1     		bne	.L140
 758 0078 0020     		movs	r0, #0
 759 007a 10BC     		pop	{r4}
 760 007c 7047     		bx	lr
 761              	.L136:
 762 007e 0223     		movs	r3, #2
 763 0080 80F84130 		strb	r3, [r0, #65]
 764 0084 C4E7     		b	.L118
 765              	.L143:
 766 0086 90F83F30 		ldrb	r3, [r0, #63]	@ zero_extendqisi2
 767 008a 012B     		cmp	r3, #1
 768 008c E9D1     		bne	.L126
 769 008e 0223     		movs	r3, #2
 770 0090 80F83F30 		strb	r3, [r0, #63]
 771 0094 BCE7     		b	.L118
 772              	.L144:
 773 0096 90F84030 		ldrb	r3, [r0, #64]	@ zero_extendqisi2
 774 009a 012B     		cmp	r3, #1
ARM GAS  /var/folders/td/83895s255bq6rlxfmrv9fnww0000gn/T//ccczYGAH.s 			page 14


 775 009c E1D1     		bne	.L126
 776 009e 0223     		movs	r3, #2
 777 00a0 80F84030 		strb	r3, [r0, #64]
 778 00a4 B4E7     		b	.L118
 779              	.L146:
 780 00a6 00BF     		.align	2
 781              	.L145:
 782 00a8 002C0140 		.word	1073818624
 783 00ac 00040040 		.word	1073742848
 785              		.section	.text.HAL_TIM_OC_Stop,"ax",%progbits
 786              		.align	1
 787              		.p2align 2,,3
 788              		.global	HAL_TIM_OC_Stop
 789              		.syntax unified
 790              		.thumb
 791              		.thumb_func
 793              	HAL_TIM_OC_Stop:
 794              		@ args = 0, pretend = 0, frame = 0
 795              		@ frame_needed = 0, uses_anonymous_args = 0
 796              		@ link register save eliminated.
 797 0000 0122     		movs	r2, #1
 798 0002 0368     		ldr	r3, [r0]
 799 0004 01F01F0C 		and	ip, r1, #31
 800 0008 02FA0CFC 		lsl	ip, r2, ip
 801 000c 1A6A     		ldr	r2, [r3, #32]
 802 000e 10B4     		push	{r4}
 803 0010 22EA0C02 		bic	r2, r2, ip
 804 0014 1A62     		str	r2, [r3, #32]
 805 0016 1D4C     		ldr	r4, .L158
 806 0018 1A6A     		ldr	r2, [r3, #32]
 807 001a A342     		cmp	r3, r4
 808 001c 1A62     		str	r2, [r3, #32]
 809 001e 20D0     		beq	.L155
 810              	.L148:
 811 0020 41F21112 		movw	r2, #4369
 812 0024 1C6A     		ldr	r4, [r3, #32]
 813 0026 1442     		tst	r4, r2
 814 0028 04D1     		bne	.L149
 815 002a 40F24442 		movw	r2, #1092
 816 002e 1C6A     		ldr	r4, [r3, #32]
 817 0030 1442     		tst	r4, r2
 818 0032 11D0     		beq	.L156
 819              	.L149:
 820 0034 0123     		movs	r3, #1
 821 0036 21B9     		cbnz	r1, .L150
 822 0038 80F83E30 		strb	r3, [r0, #62]
 823 003c 10BC     		pop	{r4}
 824 003e 0020     		movs	r0, #0
 825 0040 7047     		bx	lr
 826              	.L150:
 827 0042 0429     		cmp	r1, #4
 828 0044 1CD0     		beq	.L157
 829 0046 0829     		cmp	r1, #8
 830 0048 0CBF     		ite	eq
 831 004a 80F84030 		strbeq	r3, [r0, #64]
 832 004e 80F84130 		strbne	r3, [r0, #65]
 833 0052 10BC     		pop	{r4}
ARM GAS  /var/folders/td/83895s255bq6rlxfmrv9fnww0000gn/T//ccczYGAH.s 			page 15


 834 0054 0020     		movs	r0, #0
 835 0056 7047     		bx	lr
 836              	.L156:
 837 0058 1A68     		ldr	r2, [r3]
 838 005a 22F00102 		bic	r2, r2, #1
 839 005e 1A60     		str	r2, [r3]
 840 0060 E8E7     		b	.L149
 841              	.L155:
 842 0062 41F21112 		movw	r2, #4369
 843 0066 1C6A     		ldr	r4, [r3, #32]
 844 0068 1442     		tst	r4, r2
 845 006a D9D1     		bne	.L148
 846 006c 40F24442 		movw	r2, #1092
 847 0070 1C6A     		ldr	r4, [r3, #32]
 848 0072 1442     		tst	r4, r2
 849 0074 D4D1     		bne	.L148
 850 0076 5A6C     		ldr	r2, [r3, #68]
 851 0078 22F40042 		bic	r2, r2, #32768
 852 007c 5A64     		str	r2, [r3, #68]
 853 007e CFE7     		b	.L148
 854              	.L157:
 855 0080 80F83F30 		strb	r3, [r0, #63]
 856 0084 10BC     		pop	{r4}
 857 0086 0020     		movs	r0, #0
 858 0088 7047     		bx	lr
 859              	.L159:
 860 008a 00BF     		.align	2
 861              	.L158:
 862 008c 002C0140 		.word	1073818624
 864              		.section	.text.HAL_TIM_OC_Start_IT,"ax",%progbits
 865              		.align	1
 866              		.p2align 2,,3
 867              		.global	HAL_TIM_OC_Start_IT
 868              		.syntax unified
 869              		.thumb
 870              		.thumb_func
 872              	HAL_TIM_OC_Start_IT:
 873              		@ args = 0, pretend = 0, frame = 0
 874              		@ frame_needed = 0, uses_anonymous_args = 0
 875              		@ link register save eliminated.
 876 0000 0029     		cmp	r1, #0
 877 0002 35D1     		bne	.L161
 878 0004 90F83E30 		ldrb	r3, [r0, #62]	@ zero_extendqisi2
 879 0008 012B     		cmp	r3, #1
 880 000a 3ED1     		bne	.L162
 881 000c 0222     		movs	r2, #2
 882 000e 0368     		ldr	r3, [r0]
 883 0010 80F83E20 		strb	r2, [r0, #62]
 884 0014 DA68     		ldr	r2, [r3, #12]
 885 0016 42F00202 		orr	r2, r2, #2
 886 001a DA60     		str	r2, [r3, #12]
 887              	.L169:
 888 001c 0122     		movs	r2, #1
 889 001e 186A     		ldr	r0, [r3, #32]
 890 0020 8A40     		lsls	r2, r2, r1
 891 0022 20EA0200 		bic	r0, r0, r2
 892 0026 10B4     		push	{r4}
ARM GAS  /var/folders/td/83895s255bq6rlxfmrv9fnww0000gn/T//ccczYGAH.s 			page 16


 893 0028 1862     		str	r0, [r3, #32]
 894 002a 196A     		ldr	r1, [r3, #32]
 895 002c 284C     		ldr	r4, .L190
 896 002e 0A43     		orrs	r2, r2, r1
 897 0030 A342     		cmp	r3, r4
 898 0032 1A62     		str	r2, [r3, #32]
 899 0034 10D0     		beq	.L186
 900 0036 B3F1804F 		cmp	r3, #1073741824
 901 003a 11D0     		beq	.L171
 902 003c 254A     		ldr	r2, .L190+4
 903 003e 9342     		cmp	r3, r2
 904 0040 0ED0     		beq	.L171
 905 0042 02F58062 		add	r2, r2, #1024
 906 0046 9342     		cmp	r3, r2
 907 0048 0AD0     		beq	.L171
 908              	.L172:
 909 004a 1A68     		ldr	r2, [r3]
 910 004c 0020     		movs	r0, #0
 911 004e 42F00102 		orr	r2, r2, #1
 912 0052 10BC     		pop	{r4}
 913 0054 1A60     		str	r2, [r3]
 914 0056 7047     		bx	lr
 915              	.L186:
 916 0058 5A6C     		ldr	r2, [r3, #68]
 917 005a 42F40042 		orr	r2, r2, #32768
 918 005e 5A64     		str	r2, [r3, #68]
 919              	.L171:
 920 0060 9A68     		ldr	r2, [r3, #8]
 921 0062 02F00702 		and	r2, r2, #7
 922 0066 062A     		cmp	r2, #6
 923 0068 EFD1     		bne	.L172
 924 006a 0020     		movs	r0, #0
 925 006c 10BC     		pop	{r4}
 926 006e 7047     		bx	lr
 927              	.L161:
 928 0070 0429     		cmp	r1, #4
 929 0072 0CD0     		beq	.L187
 930 0074 0829     		cmp	r1, #8
 931 0076 17D0     		beq	.L188
 932 0078 90F84130 		ldrb	r3, [r0, #65]	@ zero_extendqisi2
 933 007c 012B     		cmp	r3, #1
 934 007e 04D1     		bne	.L162
 935 0080 0223     		movs	r3, #2
 936 0082 0C29     		cmp	r1, #12
 937 0084 80F84130 		strb	r3, [r0, #65]
 938 0088 1BD0     		beq	.L189
 939              	.L162:
 940 008a 0120     		movs	r0, #1
 941 008c 7047     		bx	lr
 942              	.L187:
 943 008e 90F83F30 		ldrb	r3, [r0, #63]	@ zero_extendqisi2
 944 0092 012B     		cmp	r3, #1
 945 0094 F9D1     		bne	.L162
 946 0096 0222     		movs	r2, #2
 947 0098 0368     		ldr	r3, [r0]
 948 009a 80F83F20 		strb	r2, [r0, #63]
 949 009e DA68     		ldr	r2, [r3, #12]
ARM GAS  /var/folders/td/83895s255bq6rlxfmrv9fnww0000gn/T//ccczYGAH.s 			page 17


 950 00a0 42F00402 		orr	r2, r2, #4
 951 00a4 DA60     		str	r2, [r3, #12]
 952 00a6 B9E7     		b	.L169
 953              	.L188:
 954 00a8 90F84030 		ldrb	r3, [r0, #64]	@ zero_extendqisi2
 955 00ac 012B     		cmp	r3, #1
 956 00ae ECD1     		bne	.L162
 957 00b0 0222     		movs	r2, #2
 958 00b2 0368     		ldr	r3, [r0]
 959 00b4 80F84020 		strb	r2, [r0, #64]
 960 00b8 DA68     		ldr	r2, [r3, #12]
 961 00ba 42F00802 		orr	r2, r2, #8
 962 00be DA60     		str	r2, [r3, #12]
 963 00c0 ACE7     		b	.L169
 964              	.L189:
 965 00c2 0368     		ldr	r3, [r0]
 966 00c4 DA68     		ldr	r2, [r3, #12]
 967 00c6 42F01002 		orr	r2, r2, #16
 968 00ca DA60     		str	r2, [r3, #12]
 969 00cc A6E7     		b	.L169
 970              	.L191:
 971 00ce 00BF     		.align	2
 972              	.L190:
 973 00d0 002C0140 		.word	1073818624
 974 00d4 00040040 		.word	1073742848
 976              		.section	.text.HAL_TIM_OC_Stop_IT,"ax",%progbits
 977              		.align	1
 978              		.p2align 2,,3
 979              		.global	HAL_TIM_OC_Stop_IT
 980              		.syntax unified
 981              		.thumb
 982              		.thumb_func
 984              	HAL_TIM_OC_Stop_IT:
 985              		@ args = 0, pretend = 0, frame = 0
 986              		@ frame_needed = 0, uses_anonymous_args = 0
 987              		@ link register save eliminated.
 988 0000 0C29     		cmp	r1, #12
 989 0002 08D8     		bhi	.L206
 990 0004 DFE801F0 		tbb	[pc, r1]
 991              	.L195:
 992 0008 3D       		.byte	(.L198-.L195)/2
 993 0009 07       		.byte	(.L206-.L195)/2
 994 000a 07       		.byte	(.L206-.L195)/2
 995 000b 07       		.byte	(.L206-.L195)/2
 996 000c 37       		.byte	(.L197-.L195)/2
 997 000d 07       		.byte	(.L206-.L195)/2
 998 000e 07       		.byte	(.L206-.L195)/2
 999 000f 07       		.byte	(.L206-.L195)/2
 1000 0010 31       		.byte	(.L196-.L195)/2
 1001 0011 07       		.byte	(.L206-.L195)/2
 1002 0012 07       		.byte	(.L206-.L195)/2
 1003 0013 07       		.byte	(.L206-.L195)/2
 1004 0014 09       		.byte	(.L194-.L195)/2
 1005 0015 00       		.p2align 1
 1006              	.L206:
 1007 0016 0120     		movs	r0, #1
 1008 0018 7047     		bx	lr
ARM GAS  /var/folders/td/83895s255bq6rlxfmrv9fnww0000gn/T//ccczYGAH.s 			page 18


 1009              	.L194:
 1010 001a 0368     		ldr	r3, [r0]
 1011 001c DA68     		ldr	r2, [r3, #12]
 1012 001e 22F01002 		bic	r2, r2, #16
 1013 0022 DA60     		str	r2, [r3, #12]
 1014              	.L199:
 1015 0024 4FF0010C 		mov	ip, #1
 1016 0028 1A6A     		ldr	r2, [r3, #32]
 1017 002a 0CFA01FC 		lsl	ip, ip, r1
 1018 002e 22EA0C02 		bic	r2, r2, ip
 1019 0032 10B4     		push	{r4}
 1020 0034 1A62     		str	r2, [r3, #32]
 1021 0036 244C     		ldr	r4, .L212
 1022 0038 1A6A     		ldr	r2, [r3, #32]
 1023 003a A342     		cmp	r3, r4
 1024 003c 1A62     		str	r2, [r3, #32]
 1025 003e 31D0     		beq	.L210
 1026              	.L200:
 1027 0040 41F21112 		movw	r2, #4369
 1028 0044 1C6A     		ldr	r4, [r3, #32]
 1029 0046 1442     		tst	r4, r2
 1030 0048 08D1     		bne	.L201
 1031 004a 40F24442 		movw	r2, #1092
 1032 004e 1C6A     		ldr	r4, [r3, #32]
 1033 0050 1442     		tst	r4, r2
 1034 0052 03D1     		bne	.L201
 1035 0054 1A68     		ldr	r2, [r3]
 1036 0056 22F00102 		bic	r2, r2, #1
 1037 005a 1A60     		str	r2, [r3]
 1038              	.L201:
 1039 005c 0123     		movs	r3, #1
 1040 005e B1B9     		cbnz	r1, .L202
 1041 0060 80F83E30 		strb	r3, [r0, #62]
 1042              	.L203:
 1043 0064 0020     		movs	r0, #0
 1044 0066 10BC     		pop	{r4}
 1045 0068 7047     		bx	lr
 1046              	.L196:
 1047 006a 0368     		ldr	r3, [r0]
 1048 006c DA68     		ldr	r2, [r3, #12]
 1049 006e 22F00802 		bic	r2, r2, #8
 1050 0072 DA60     		str	r2, [r3, #12]
 1051 0074 D6E7     		b	.L199
 1052              	.L197:
 1053 0076 0368     		ldr	r3, [r0]
 1054 0078 DA68     		ldr	r2, [r3, #12]
 1055 007a 22F00402 		bic	r2, r2, #4
 1056 007e DA60     		str	r2, [r3, #12]
 1057 0080 D0E7     		b	.L199
 1058              	.L198:
 1059 0082 0368     		ldr	r3, [r0]
 1060 0084 DA68     		ldr	r2, [r3, #12]
 1061 0086 22F00202 		bic	r2, r2, #2
 1062 008a DA60     		str	r2, [r3, #12]
 1063 008c CAE7     		b	.L199
 1064              	.L202:
 1065 008e 0429     		cmp	r1, #4
ARM GAS  /var/folders/td/83895s255bq6rlxfmrv9fnww0000gn/T//ccczYGAH.s 			page 19


 1066 0090 17D0     		beq	.L211
 1067 0092 0829     		cmp	r1, #8
 1068 0094 0CBF     		ite	eq
 1069 0096 80F84030 		strbeq	r3, [r0, #64]
 1070 009a 80F84130 		strbne	r3, [r0, #65]
 1071 009e 10BC     		pop	{r4}
 1072 00a0 0020     		movs	r0, #0
 1073 00a2 7047     		bx	lr
 1074              	.L210:
 1075 00a4 41F21112 		movw	r2, #4369
 1076 00a8 1C6A     		ldr	r4, [r3, #32]
 1077 00aa 1442     		tst	r4, r2
 1078 00ac C8D1     		bne	.L200
 1079 00ae 40F24442 		movw	r2, #1092
 1080 00b2 1C6A     		ldr	r4, [r3, #32]
 1081 00b4 1442     		tst	r4, r2
 1082 00b6 C3D1     		bne	.L200
 1083 00b8 5A6C     		ldr	r2, [r3, #68]
 1084 00ba 22F40042 		bic	r2, r2, #32768
 1085 00be 5A64     		str	r2, [r3, #68]
 1086 00c0 BEE7     		b	.L200
 1087              	.L211:
 1088 00c2 80F83F30 		strb	r3, [r0, #63]
 1089 00c6 CDE7     		b	.L203
 1090              	.L213:
 1091              		.align	2
 1092              	.L212:
 1093 00c8 002C0140 		.word	1073818624
 1095              		.section	.text.HAL_TIM_OC_Start_DMA,"ax",%progbits
 1096              		.align	1
 1097              		.p2align 2,,3
 1098              		.global	HAL_TIM_OC_Start_DMA
 1099              		.syntax unified
 1100              		.thumb
 1101              		.thumb_func
 1103              	HAL_TIM_OC_Start_DMA:
 1104              		@ args = 0, pretend = 0, frame = 0
 1105              		@ frame_needed = 0, uses_anonymous_args = 0
 1106 0000 F8B5     		push	{r3, r4, r5, r6, r7, lr}
 1107 0002 0446     		mov	r4, r0
 1108 0004 0D46     		mov	r5, r1
 1109 0006 0029     		cmp	r1, #0
 1110 0008 40D1     		bne	.L215
 1111 000a 90F83E10 		ldrb	r1, [r0, #62]	@ zero_extendqisi2
 1112 000e 0229     		cmp	r1, #2
 1113 0010 C8B2     		uxtb	r0, r1
 1114 0012 3AD0     		beq	.L216
 1115 0014 94F83E10 		ldrb	r1, [r4, #62]	@ zero_extendqisi2
 1116 0018 0129     		cmp	r1, #1
 1117 001a 4BD1     		bne	.L232
 1118 001c 002A     		cmp	r2, #0
 1119 001e 49D0     		beq	.L232
 1120 0020 002B     		cmp	r3, #0
 1121 0022 47D0     		beq	.L232
 1122 0024 4FF0020E 		mov	lr, #2
 1123 0028 606A     		ldr	r0, [r4, #36]
 1124 002a 1146     		mov	r1, r2
ARM GAS  /var/folders/td/83895s255bq6rlxfmrv9fnww0000gn/T//ccczYGAH.s 			page 20


 1125 002c DFF85CC1 		ldr	ip, .L295
 1126 0030 2268     		ldr	r2, [r4]
 1127 0032 574F     		ldr	r7, .L295+4
 1128 0034 574E     		ldr	r6, .L295+8
 1129 0036 84F83EE0 		strb	lr, [r4, #62]
 1130 003a 3432     		adds	r2, r2, #52
 1131 003c C0E90AC7 		strd	ip, r7, [r0, #40]
 1132 0040 0663     		str	r6, [r0, #48]
 1133 0042 FFF7FEFF 		bl	HAL_DMA_Start_IT
 1134 0046 0028     		cmp	r0, #0
 1135 0048 34D1     		bne	.L232
 1136 004a 2368     		ldr	r3, [r4]
 1137 004c DA68     		ldr	r2, [r3, #12]
 1138 004e 42F40072 		orr	r2, r2, #512
 1139 0052 DA60     		str	r2, [r3, #12]
 1140              	.L233:
 1141 0054 0122     		movs	r2, #1
 1142 0056 196A     		ldr	r1, [r3, #32]
 1143 0058 AA40     		lsls	r2, r2, r5
 1144 005a 21EA0201 		bic	r1, r1, r2
 1145 005e 1962     		str	r1, [r3, #32]
 1146 0060 196A     		ldr	r1, [r3, #32]
 1147 0062 4D48     		ldr	r0, .L295+12
 1148 0064 0A43     		orrs	r2, r2, r1
 1149 0066 8342     		cmp	r3, r0
 1150 0068 1A62     		str	r2, [r3, #32]
 1151 006a 25D0     		beq	.L291
 1152 006c B3F1804F 		cmp	r3, #1073741824
 1153 0070 26D0     		beq	.L235
 1154 0072 4A4A     		ldr	r2, .L295+16
 1155 0074 9342     		cmp	r3, r2
 1156 0076 23D0     		beq	.L235
 1157 0078 02F58062 		add	r2, r2, #1024
 1158 007c 9342     		cmp	r3, r2
 1159 007e 1FD0     		beq	.L235
 1160              	.L236:
 1161 0080 1A68     		ldr	r2, [r3]
 1162 0082 42F00102 		orr	r2, r2, #1
 1163 0086 1A60     		str	r2, [r3]
 1164              	.L237:
 1165 0088 0020     		movs	r0, #0
 1166              	.L216:
 1167 008a F8BD     		pop	{r3, r4, r5, r6, r7, pc}
 1168              	.L215:
 1169 008c 0429     		cmp	r1, #4
 1170 008e 1DD0     		beq	.L292
 1171 0090 0829     		cmp	r1, #8
 1172 0092 41D0     		beq	.L293
 1173 0094 90F84110 		ldrb	r1, [r0, #65]	@ zero_extendqisi2
 1174 0098 0229     		cmp	r1, #2
 1175 009a C8B2     		uxtb	r0, r1
 1176 009c F5D0     		beq	.L216
 1177 009e 94F84110 		ldrb	r1, [r4, #65]	@ zero_extendqisi2
 1178 00a2 0129     		cmp	r1, #1
 1179 00a4 06D1     		bne	.L232
 1180 00a6 2AB1     		cbz	r2, .L232
 1181 00a8 23B1     		cbz	r3, .L232
ARM GAS  /var/folders/td/83895s255bq6rlxfmrv9fnww0000gn/T//ccczYGAH.s 			page 21


 1182 00aa 0221     		movs	r1, #2
 1183 00ac 0C2D     		cmp	r5, #12
 1184 00ae 84F84110 		strb	r1, [r4, #65]
 1185 00b2 57D0     		beq	.L294
 1186              	.L232:
 1187 00b4 0120     		movs	r0, #1
 1188 00b6 F8BD     		pop	{r3, r4, r5, r6, r7, pc}
 1189              	.L291:
 1190 00b8 5A6C     		ldr	r2, [r3, #68]
 1191 00ba 42F40042 		orr	r2, r2, #32768
 1192 00be 5A64     		str	r2, [r3, #68]
 1193              	.L235:
 1194 00c0 9A68     		ldr	r2, [r3, #8]
 1195 00c2 02F00702 		and	r2, r2, #7
 1196 00c6 062A     		cmp	r2, #6
 1197 00c8 DAD1     		bne	.L236
 1198 00ca DDE7     		b	.L237
 1199              	.L292:
 1200 00cc 90F83F10 		ldrb	r1, [r0, #63]	@ zero_extendqisi2
 1201 00d0 0229     		cmp	r1, #2
 1202 00d2 C8B2     		uxtb	r0, r1
 1203 00d4 D9D0     		beq	.L216
 1204 00d6 94F83F10 		ldrb	r1, [r4, #63]	@ zero_extendqisi2
 1205 00da 0129     		cmp	r1, #1
 1206 00dc EAD1     		bne	.L232
 1207 00de 002A     		cmp	r2, #0
 1208 00e0 E8D0     		beq	.L232
 1209 00e2 002B     		cmp	r3, #0
 1210 00e4 E6D0     		beq	.L232
 1211 00e6 4FF0020E 		mov	lr, #2
 1212 00ea A06A     		ldr	r0, [r4, #40]
 1213 00ec 1146     		mov	r1, r2
 1214 00ee DFF89CC0 		ldr	ip, .L295
 1215 00f2 2268     		ldr	r2, [r4]
 1216 00f4 264F     		ldr	r7, .L295+4
 1217 00f6 274E     		ldr	r6, .L295+8
 1218 00f8 84F83FE0 		strb	lr, [r4, #63]
 1219 00fc 3832     		adds	r2, r2, #56
 1220 00fe C0E90AC7 		strd	ip, r7, [r0, #40]
 1221 0102 0663     		str	r6, [r0, #48]
 1222 0104 FFF7FEFF 		bl	HAL_DMA_Start_IT
 1223 0108 0028     		cmp	r0, #0
 1224 010a D3D1     		bne	.L232
 1225 010c 2368     		ldr	r3, [r4]
 1226 010e DA68     		ldr	r2, [r3, #12]
 1227 0110 42F48062 		orr	r2, r2, #1024
 1228 0114 DA60     		str	r2, [r3, #12]
 1229 0116 9DE7     		b	.L233
 1230              	.L293:
 1231 0118 90F84010 		ldrb	r1, [r0, #64]	@ zero_extendqisi2
 1232 011c 0229     		cmp	r1, #2
 1233 011e C8B2     		uxtb	r0, r1
 1234 0120 B3D0     		beq	.L216
 1235 0122 94F84010 		ldrb	r1, [r4, #64]	@ zero_extendqisi2
 1236 0126 0129     		cmp	r1, #1
 1237 0128 C4D1     		bne	.L232
 1238 012a 002A     		cmp	r2, #0
ARM GAS  /var/folders/td/83895s255bq6rlxfmrv9fnww0000gn/T//ccczYGAH.s 			page 22


 1239 012c C2D0     		beq	.L232
 1240 012e 002B     		cmp	r3, #0
 1241 0130 C0D0     		beq	.L232
 1242 0132 4FF0020E 		mov	lr, #2
 1243 0136 E06A     		ldr	r0, [r4, #44]
 1244 0138 1146     		mov	r1, r2
 1245 013a DFF850C0 		ldr	ip, .L295
 1246 013e 2268     		ldr	r2, [r4]
 1247 0140 134F     		ldr	r7, .L295+4
 1248 0142 144E     		ldr	r6, .L295+8
 1249 0144 84F840E0 		strb	lr, [r4, #64]
 1250 0148 3C32     		adds	r2, r2, #60
 1251 014a C0E90AC7 		strd	ip, r7, [r0, #40]
 1252 014e 0663     		str	r6, [r0, #48]
 1253 0150 FFF7FEFF 		bl	HAL_DMA_Start_IT
 1254 0154 0028     		cmp	r0, #0
 1255 0156 ADD1     		bne	.L232
 1256 0158 2368     		ldr	r3, [r4]
 1257 015a DA68     		ldr	r2, [r3, #12]
 1258 015c 42F40062 		orr	r2, r2, #2048
 1259 0160 DA60     		str	r2, [r3, #12]
 1260 0162 77E7     		b	.L233
 1261              	.L294:
 1262 0164 206B     		ldr	r0, [r4, #48]
 1263 0166 1146     		mov	r1, r2
 1264 0168 084A     		ldr	r2, .L295
 1265 016a 8262     		str	r2, [r0, #40]
 1266 016c 084A     		ldr	r2, .L295+4
 1267 016e C262     		str	r2, [r0, #44]
 1268 0170 084A     		ldr	r2, .L295+8
 1269 0172 0263     		str	r2, [r0, #48]
 1270 0174 2268     		ldr	r2, [r4]
 1271 0176 4032     		adds	r2, r2, #64
 1272 0178 FFF7FEFF 		bl	HAL_DMA_Start_IT
 1273 017c 0028     		cmp	r0, #0
 1274 017e 99D1     		bne	.L232
 1275 0180 2368     		ldr	r3, [r4]
 1276 0182 DA68     		ldr	r2, [r3, #12]
 1277 0184 42F48052 		orr	r2, r2, #4096
 1278 0188 DA60     		str	r2, [r3, #12]
 1279 018a 63E7     		b	.L233
 1280              	.L296:
 1281              		.align	2
 1282              	.L295:
 1283 018c 00000000 		.word	TIM_DMADelayPulseCplt
 1284 0190 00000000 		.word	TIM_DMADelayPulseHalfCplt
 1285 0194 00000000 		.word	TIM_DMAError
 1286 0198 002C0140 		.word	1073818624
 1287 019c 00040040 		.word	1073742848
 1289              		.section	.text.HAL_TIM_OC_Stop_DMA,"ax",%progbits
 1290              		.align	1
 1291              		.p2align 2,,3
 1292              		.global	HAL_TIM_OC_Stop_DMA
 1293              		.syntax unified
 1294              		.thumb
 1295              		.thumb_func
 1297              	HAL_TIM_OC_Stop_DMA:
ARM GAS  /var/folders/td/83895s255bq6rlxfmrv9fnww0000gn/T//ccczYGAH.s 			page 23


 1298              		@ args = 0, pretend = 0, frame = 0
 1299              		@ frame_needed = 0, uses_anonymous_args = 0
 1300 0000 38B5     		push	{r3, r4, r5, lr}
 1301 0002 0C46     		mov	r4, r1
 1302 0004 0546     		mov	r5, r0
 1303 0006 0C29     		cmp	r1, #12
 1304 0008 08D8     		bhi	.L311
 1305 000a DFE801F0 		tbb	[pc, r1]
 1306              	.L300:
 1307 000e 43       		.byte	(.L303-.L300)/2
 1308 000f 07       		.byte	(.L311-.L300)/2
 1309 0010 07       		.byte	(.L311-.L300)/2
 1310 0011 07       		.byte	(.L311-.L300)/2
 1311 0012 3A       		.byte	(.L302-.L300)/2
 1312 0013 07       		.byte	(.L311-.L300)/2
 1313 0014 07       		.byte	(.L311-.L300)/2
 1314 0015 07       		.byte	(.L311-.L300)/2
 1315 0016 31       		.byte	(.L301-.L300)/2
 1316 0017 07       		.byte	(.L311-.L300)/2
 1317 0018 07       		.byte	(.L311-.L300)/2
 1318 0019 07       		.byte	(.L311-.L300)/2
 1319 001a 09       		.byte	(.L299-.L300)/2
 1320 001b 00       		.p2align 1
 1321              	.L311:
 1322 001c 0120     		movs	r0, #1
 1323 001e 38BD     		pop	{r3, r4, r5, pc}
 1324              	.L299:
 1325 0020 0268     		ldr	r2, [r0]
 1326 0022 006B     		ldr	r0, [r0, #48]
 1327 0024 D368     		ldr	r3, [r2, #12]
 1328 0026 23F48053 		bic	r3, r3, #4096
 1329 002a D360     		str	r3, [r2, #12]
 1330 002c FFF7FEFF 		bl	HAL_DMA_Abort_IT
 1331              	.L304:
 1332 0030 0121     		movs	r1, #1
 1333 0032 2B68     		ldr	r3, [r5]
 1334 0034 A140     		lsls	r1, r1, r4
 1335 0036 1A6A     		ldr	r2, [r3, #32]
 1336 0038 2848     		ldr	r0, .L315
 1337 003a 22EA0102 		bic	r2, r2, r1
 1338 003e 1A62     		str	r2, [r3, #32]
 1339 0040 1A6A     		ldr	r2, [r3, #32]
 1340 0042 8342     		cmp	r3, r0
 1341 0044 1A62     		str	r2, [r3, #32]
 1342 0046 37D0     		beq	.L313
 1343              	.L305:
 1344 0048 41F21112 		movw	r2, #4369
 1345 004c 196A     		ldr	r1, [r3, #32]
 1346 004e 1142     		tst	r1, r2
 1347 0050 08D1     		bne	.L306
 1348 0052 40F24442 		movw	r2, #1092
 1349 0056 196A     		ldr	r1, [r3, #32]
 1350 0058 1142     		tst	r1, r2
 1351 005a 03D1     		bne	.L306
 1352 005c 1A68     		ldr	r2, [r3]
 1353 005e 22F00102 		bic	r2, r2, #1
 1354 0062 1A60     		str	r2, [r3]
ARM GAS  /var/folders/td/83895s255bq6rlxfmrv9fnww0000gn/T//ccczYGAH.s 			page 24


 1355              	.L306:
 1356 0064 0123     		movs	r3, #1
 1357 0066 F4B9     		cbnz	r4, .L307
 1358 0068 85F83E30 		strb	r3, [r5, #62]
 1359              	.L308:
 1360 006c 0020     		movs	r0, #0
 1361 006e 38BD     		pop	{r3, r4, r5, pc}
 1362              	.L301:
 1363 0070 0268     		ldr	r2, [r0]
 1364 0072 C06A     		ldr	r0, [r0, #44]
 1365 0074 D368     		ldr	r3, [r2, #12]
 1366 0076 23F40063 		bic	r3, r3, #2048
 1367 007a D360     		str	r3, [r2, #12]
 1368 007c FFF7FEFF 		bl	HAL_DMA_Abort_IT
 1369 0080 D6E7     		b	.L304
 1370              	.L302:
 1371 0082 0268     		ldr	r2, [r0]
 1372 0084 806A     		ldr	r0, [r0, #40]
 1373 0086 D368     		ldr	r3, [r2, #12]
 1374 0088 23F48063 		bic	r3, r3, #1024
 1375 008c D360     		str	r3, [r2, #12]
 1376 008e FFF7FEFF 		bl	HAL_DMA_Abort_IT
 1377 0092 CDE7     		b	.L304
 1378              	.L303:
 1379 0094 0268     		ldr	r2, [r0]
 1380 0096 406A     		ldr	r0, [r0, #36]
 1381 0098 D368     		ldr	r3, [r2, #12]
 1382 009a 23F40073 		bic	r3, r3, #512
 1383 009e D360     		str	r3, [r2, #12]
 1384 00a0 FFF7FEFF 		bl	HAL_DMA_Abort_IT
 1385 00a4 C4E7     		b	.L304
 1386              	.L307:
 1387 00a6 042C     		cmp	r4, #4
 1388 00a8 15D0     		beq	.L314
 1389 00aa 082C     		cmp	r4, #8
 1390 00ac 0CBF     		ite	eq
 1391 00ae 85F84030 		strbeq	r3, [r5, #64]
 1392 00b2 85F84130 		strbne	r3, [r5, #65]
 1393 00b6 D9E7     		b	.L308
 1394              	.L313:
 1395 00b8 41F21112 		movw	r2, #4369
 1396 00bc 196A     		ldr	r1, [r3, #32]
 1397 00be 1142     		tst	r1, r2
 1398 00c0 C2D1     		bne	.L305
 1399 00c2 40F24442 		movw	r2, #1092
 1400 00c6 196A     		ldr	r1, [r3, #32]
 1401 00c8 1142     		tst	r1, r2
 1402 00ca BDD1     		bne	.L305
 1403 00cc 5A6C     		ldr	r2, [r3, #68]
 1404 00ce 22F40042 		bic	r2, r2, #32768
 1405 00d2 5A64     		str	r2, [r3, #68]
 1406 00d4 B8E7     		b	.L305
 1407              	.L314:
 1408 00d6 85F83F30 		strb	r3, [r5, #63]
 1409 00da C7E7     		b	.L308
 1410              	.L316:
 1411              		.align	2
ARM GAS  /var/folders/td/83895s255bq6rlxfmrv9fnww0000gn/T//ccczYGAH.s 			page 25


 1412              	.L315:
 1413 00dc 002C0140 		.word	1073818624
 1415              		.section	.text.HAL_TIM_PWM_MspInit,"ax",%progbits
 1416              		.align	1
 1417              		.p2align 2,,3
 1418              		.weak	HAL_TIM_PWM_MspInit
 1419              		.syntax unified
 1420              		.thumb
 1421              		.thumb_func
 1423              	HAL_TIM_PWM_MspInit:
 1424              		@ args = 0, pretend = 0, frame = 0
 1425              		@ frame_needed = 0, uses_anonymous_args = 0
 1426              		@ link register save eliminated.
 1427 0000 7047     		bx	lr
 1429 0002 00BF     		.section	.text.HAL_TIM_PWM_MspDeInit,"ax",%progbits
 1430              		.align	1
 1431              		.p2align 2,,3
 1432              		.weak	HAL_TIM_PWM_MspDeInit
 1433              		.syntax unified
 1434              		.thumb
 1435              		.thumb_func
 1437              	HAL_TIM_PWM_MspDeInit:
 1438              		@ args = 0, pretend = 0, frame = 0
 1439              		@ frame_needed = 0, uses_anonymous_args = 0
 1440              		@ link register save eliminated.
 1441 0000 7047     		bx	lr
 1443 0002 00BF     		.section	.text.HAL_TIM_PWM_DeInit,"ax",%progbits
 1444              		.align	1
 1445              		.p2align 2,,3
 1446              		.global	HAL_TIM_PWM_DeInit
 1447              		.syntax unified
 1448              		.thumb
 1449              		.thumb_func
 1451              	HAL_TIM_PWM_DeInit:
 1452              		@ args = 0, pretend = 0, frame = 0
 1453              		@ frame_needed = 0, uses_anonymous_args = 0
 1454 0000 0221     		movs	r1, #2
 1455 0002 41F21112 		movw	r2, #4369
 1456 0006 0368     		ldr	r3, [r0]
 1457 0008 10B5     		push	{r4, lr}
 1458 000a 80F83D10 		strb	r1, [r0, #61]
 1459 000e 196A     		ldr	r1, [r3, #32]
 1460 0010 0446     		mov	r4, r0
 1461 0012 1142     		tst	r1, r2
 1462 0014 08D1     		bne	.L320
 1463 0016 40F24442 		movw	r2, #1092
 1464 001a 196A     		ldr	r1, [r3, #32]
 1465 001c 1142     		tst	r1, r2
 1466 001e 03D1     		bne	.L320
 1467 0020 1A68     		ldr	r2, [r3]
 1468 0022 22F00102 		bic	r2, r2, #1
 1469 0026 1A60     		str	r2, [r3]
 1470              	.L320:
 1471 0028 2046     		mov	r0, r4
 1472 002a FFF7FEFF 		bl	HAL_TIM_PWM_MspDeInit
 1473 002e 0020     		movs	r0, #0
 1474 0030 84F84600 		strb	r0, [r4, #70]
ARM GAS  /var/folders/td/83895s255bq6rlxfmrv9fnww0000gn/T//ccczYGAH.s 			page 26


 1475 0034 84F83C00 		strb	r0, [r4, #60]
 1476 0038 84F83E00 		strb	r0, [r4, #62]
 1477 003c 84F83F00 		strb	r0, [r4, #63]
 1478 0040 84F84000 		strb	r0, [r4, #64]
 1479 0044 84F84100 		strb	r0, [r4, #65]
 1480 0048 84F84200 		strb	r0, [r4, #66]
 1481 004c 84F84300 		strb	r0, [r4, #67]
 1482 0050 84F84400 		strb	r0, [r4, #68]
 1483 0054 84F84500 		strb	r0, [r4, #69]
 1484 0058 84F83D00 		strb	r0, [r4, #61]
 1485 005c 10BD     		pop	{r4, pc}
 1487 005e 00BF     		.section	.text.HAL_TIM_PWM_Start,"ax",%progbits
 1488              		.align	1
 1489              		.p2align 2,,3
 1490              		.global	HAL_TIM_PWM_Start
 1491              		.syntax unified
 1492              		.thumb
 1493              		.thumb_func
 1495              	HAL_TIM_PWM_Start:
 1496              		@ args = 0, pretend = 0, frame = 0
 1497              		@ frame_needed = 0, uses_anonymous_args = 0
 1498              		@ link register save eliminated.
 1499 0000 FFF7FEBF 		b	HAL_TIM_OC_Start
 1501              		.section	.text.HAL_TIM_PWM_Stop,"ax",%progbits
 1502              		.align	1
 1503              		.p2align 2,,3
 1504              		.global	HAL_TIM_PWM_Stop
 1505              		.syntax unified
 1506              		.thumb
 1507              		.thumb_func
 1509              	HAL_TIM_PWM_Stop:
 1510              		@ args = 0, pretend = 0, frame = 0
 1511              		@ frame_needed = 0, uses_anonymous_args = 0
 1512              		@ link register save eliminated.
 1513 0000 FFF7FEBF 		b	HAL_TIM_OC_Stop
 1515              		.section	.text.HAL_TIM_PWM_Start_IT,"ax",%progbits
 1516              		.align	1
 1517              		.p2align 2,,3
 1518              		.global	HAL_TIM_PWM_Start_IT
 1519              		.syntax unified
 1520              		.thumb
 1521              		.thumb_func
 1523              	HAL_TIM_PWM_Start_IT:
 1524              		@ args = 0, pretend = 0, frame = 0
 1525              		@ frame_needed = 0, uses_anonymous_args = 0
 1526              		@ link register save eliminated.
 1527 0000 FFF7FEBF 		b	HAL_TIM_OC_Start_IT
 1529              		.section	.text.HAL_TIM_PWM_Stop_IT,"ax",%progbits
 1530              		.align	1
 1531              		.p2align 2,,3
 1532              		.global	HAL_TIM_PWM_Stop_IT
 1533              		.syntax unified
 1534              		.thumb
 1535              		.thumb_func
 1537              	HAL_TIM_PWM_Stop_IT:
 1538              		@ args = 0, pretend = 0, frame = 0
 1539              		@ frame_needed = 0, uses_anonymous_args = 0
ARM GAS  /var/folders/td/83895s255bq6rlxfmrv9fnww0000gn/T//ccczYGAH.s 			page 27


 1540              		@ link register save eliminated.
 1541 0000 FFF7FEBF 		b	HAL_TIM_OC_Stop_IT
 1543              		.section	.text.HAL_TIM_PWM_Start_DMA,"ax",%progbits
 1544              		.align	1
 1545              		.p2align 2,,3
 1546              		.global	HAL_TIM_PWM_Start_DMA
 1547              		.syntax unified
 1548              		.thumb
 1549              		.thumb_func
 1551              	HAL_TIM_PWM_Start_DMA:
 1552              		@ args = 0, pretend = 0, frame = 0
 1553              		@ frame_needed = 0, uses_anonymous_args = 0
 1554              		@ link register save eliminated.
 1555 0000 FFF7FEBF 		b	HAL_TIM_OC_Start_DMA
 1557              		.section	.text.HAL_TIM_PWM_Stop_DMA,"ax",%progbits
 1558              		.align	1
 1559              		.p2align 2,,3
 1560              		.global	HAL_TIM_PWM_Stop_DMA
 1561              		.syntax unified
 1562              		.thumb
 1563              		.thumb_func
 1565              	HAL_TIM_PWM_Stop_DMA:
 1566              		@ args = 0, pretend = 0, frame = 0
 1567              		@ frame_needed = 0, uses_anonymous_args = 0
 1568              		@ link register save eliminated.
 1569 0000 FFF7FEBF 		b	HAL_TIM_OC_Stop_DMA
 1571              		.section	.text.HAL_TIM_IC_MspInit,"ax",%progbits
 1572              		.align	1
 1573              		.p2align 2,,3
 1574              		.weak	HAL_TIM_IC_MspInit
 1575              		.syntax unified
 1576              		.thumb
 1577              		.thumb_func
 1579              	HAL_TIM_IC_MspInit:
 1580              		@ args = 0, pretend = 0, frame = 0
 1581              		@ frame_needed = 0, uses_anonymous_args = 0
 1582              		@ link register save eliminated.
 1583 0000 7047     		bx	lr
 1585 0002 00BF     		.section	.text.HAL_TIM_IC_MspDeInit,"ax",%progbits
 1586              		.align	1
 1587              		.p2align 2,,3
 1588              		.weak	HAL_TIM_IC_MspDeInit
 1589              		.syntax unified
 1590              		.thumb
 1591              		.thumb_func
 1593              	HAL_TIM_IC_MspDeInit:
 1594              		@ args = 0, pretend = 0, frame = 0
 1595              		@ frame_needed = 0, uses_anonymous_args = 0
 1596              		@ link register save eliminated.
 1597 0000 7047     		bx	lr
 1599 0002 00BF     		.section	.text.HAL_TIM_IC_DeInit,"ax",%progbits
 1600              		.align	1
 1601              		.p2align 2,,3
 1602              		.global	HAL_TIM_IC_DeInit
 1603              		.syntax unified
 1604              		.thumb
 1605              		.thumb_func
ARM GAS  /var/folders/td/83895s255bq6rlxfmrv9fnww0000gn/T//ccczYGAH.s 			page 28


 1607              	HAL_TIM_IC_DeInit:
 1608              		@ args = 0, pretend = 0, frame = 0
 1609              		@ frame_needed = 0, uses_anonymous_args = 0
 1610 0000 0221     		movs	r1, #2
 1611 0002 41F21112 		movw	r2, #4369
 1612 0006 0368     		ldr	r3, [r0]
 1613 0008 10B5     		push	{r4, lr}
 1614 000a 80F83D10 		strb	r1, [r0, #61]
 1615 000e 196A     		ldr	r1, [r3, #32]
 1616 0010 0446     		mov	r4, r0
 1617 0012 1142     		tst	r1, r2
 1618 0014 08D1     		bne	.L331
 1619 0016 40F24442 		movw	r2, #1092
 1620 001a 196A     		ldr	r1, [r3, #32]
 1621 001c 1142     		tst	r1, r2
 1622 001e 03D1     		bne	.L331
 1623 0020 1A68     		ldr	r2, [r3]
 1624 0022 22F00102 		bic	r2, r2, #1
 1625 0026 1A60     		str	r2, [r3]
 1626              	.L331:
 1627 0028 2046     		mov	r0, r4
 1628 002a FFF7FEFF 		bl	HAL_TIM_IC_MspDeInit
 1629 002e 0020     		movs	r0, #0
 1630 0030 84F84600 		strb	r0, [r4, #70]
 1631 0034 84F83C00 		strb	r0, [r4, #60]
 1632 0038 84F83E00 		strb	r0, [r4, #62]
 1633 003c 84F83F00 		strb	r0, [r4, #63]
 1634 0040 84F84000 		strb	r0, [r4, #64]
 1635 0044 84F84100 		strb	r0, [r4, #65]
 1636 0048 84F84200 		strb	r0, [r4, #66]
 1637 004c 84F84300 		strb	r0, [r4, #67]
 1638 0050 84F84400 		strb	r0, [r4, #68]
 1639 0054 84F84500 		strb	r0, [r4, #69]
 1640 0058 84F83D00 		strb	r0, [r4, #61]
 1641 005c 10BD     		pop	{r4, pc}
 1643 005e 00BF     		.section	.text.HAL_TIM_IC_Start,"ax",%progbits
 1644              		.align	1
 1645              		.p2align 2,,3
 1646              		.global	HAL_TIM_IC_Start
 1647              		.syntax unified
 1648              		.thumb
 1649              		.thumb_func
 1651              	HAL_TIM_IC_Start:
 1652              		@ args = 0, pretend = 0, frame = 0
 1653              		@ frame_needed = 0, uses_anonymous_args = 0
 1654              		@ link register save eliminated.
 1655 0000 0346     		mov	r3, r0
 1656 0002 10B4     		push	{r4}
 1657 0004 61B9     		cbnz	r1, .L334
 1658 0006 90F83EC0 		ldrb	ip, [r0, #62]	@ zero_extendqisi2
 1659 000a 90F84220 		ldrb	r2, [r0, #66]	@ zero_extendqisi2
 1660 000e BCF1010F 		cmp	ip, #1
 1661 0012 5FFA8CF0 		uxtb	r0, ip
 1662 0016 D2B2     		uxtb	r2, r2
 1663 0018 18D0     		beq	.L362
 1664              	.L349:
 1665 001a 0120     		movs	r0, #1
ARM GAS  /var/folders/td/83895s255bq6rlxfmrv9fnww0000gn/T//ccczYGAH.s 			page 29


 1666              	.L335:
 1667 001c 10BC     		pop	{r4}
 1668 001e 7047     		bx	lr
 1669              	.L334:
 1670 0020 0429     		cmp	r1, #4
 1671 0022 3AD0     		beq	.L363
 1672 0024 0829     		cmp	r1, #8
 1673 0026 50D0     		beq	.L364
 1674 0028 90F841C0 		ldrb	ip, [r0, #65]	@ zero_extendqisi2
 1675 002c 90F84520 		ldrb	r2, [r0, #69]	@ zero_extendqisi2
 1676 0030 BCF1010F 		cmp	ip, #1
 1677 0034 5FFA8CF0 		uxtb	r0, ip
 1678 0038 D2B2     		uxtb	r2, r2
 1679 003a EED1     		bne	.L349
 1680 003c 012A     		cmp	r2, #1
 1681 003e EDD1     		bne	.L335
 1682 0040 0222     		movs	r2, #2
 1683 0042 83F84120 		strb	r2, [r3, #65]
 1684 0046 83F84520 		strb	r2, [r3, #69]
 1685 004a 06E0     		b	.L342
 1686              	.L362:
 1687 004c 012A     		cmp	r2, #1
 1688 004e E5D1     		bne	.L335
 1689 0050 0222     		movs	r2, #2
 1690 0052 83F83E20 		strb	r2, [r3, #62]
 1691 0056 83F84220 		strb	r2, [r3, #66]
 1692              	.L342:
 1693 005a 0122     		movs	r2, #1
 1694 005c 1B68     		ldr	r3, [r3]
 1695 005e 01F01F01 		and	r1, r1, #31
 1696 0062 186A     		ldr	r0, [r3, #32]
 1697 0064 8A40     		lsls	r2, r2, r1
 1698 0066 20EA0200 		bic	r0, r0, r2
 1699 006a 1862     		str	r0, [r3, #32]
 1700 006c 196A     		ldr	r1, [r3, #32]
 1701 006e 1F4C     		ldr	r4, .L365
 1702 0070 0A43     		orrs	r2, r2, r1
 1703 0072 A342     		cmp	r3, r4
 1704 0074 1A62     		str	r2, [r3, #32]
 1705 0076 22D0     		beq	.L343
 1706 0078 B3F1804F 		cmp	r3, #1073741824
 1707 007c 1FD0     		beq	.L343
 1708 007e 1C4A     		ldr	r2, .L365+4
 1709 0080 9342     		cmp	r3, r2
 1710 0082 1CD0     		beq	.L343
 1711 0084 02F58062 		add	r2, r2, #1024
 1712 0088 9342     		cmp	r3, r2
 1713 008a 18D0     		beq	.L343
 1714              	.L361:
 1715 008c 1A68     		ldr	r2, [r3]
 1716 008e 42F00102 		orr	r2, r2, #1
 1717 0092 1A60     		str	r2, [r3]
 1718              	.L345:
 1719 0094 0020     		movs	r0, #0
 1720 0096 10BC     		pop	{r4}
 1721 0098 7047     		bx	lr
 1722              	.L363:
ARM GAS  /var/folders/td/83895s255bq6rlxfmrv9fnww0000gn/T//ccczYGAH.s 			page 30


 1723 009a 90F83FC0 		ldrb	ip, [r0, #63]	@ zero_extendqisi2
 1724 009e 90F84320 		ldrb	r2, [r0, #67]	@ zero_extendqisi2
 1725 00a2 BCF1010F 		cmp	ip, #1
 1726 00a6 5FFA8CF0 		uxtb	r0, ip
 1727 00aa D2B2     		uxtb	r2, r2
 1728 00ac B5D1     		bne	.L349
 1729 00ae 012A     		cmp	r2, #1
 1730 00b0 B4D1     		bne	.L335
 1731 00b2 0222     		movs	r2, #2
 1732 00b4 83F83F20 		strb	r2, [r3, #63]
 1733 00b8 83F84320 		strb	r2, [r3, #67]
 1734 00bc CDE7     		b	.L342
 1735              	.L343:
 1736 00be 9A68     		ldr	r2, [r3, #8]
 1737 00c0 02F00702 		and	r2, r2, #7
 1738 00c4 062A     		cmp	r2, #6
 1739 00c6 E1D1     		bne	.L361
 1740 00c8 E4E7     		b	.L345
 1741              	.L364:
 1742 00ca 90F84040 		ldrb	r4, [r0, #64]	@ zero_extendqisi2
 1743 00ce 90F84420 		ldrb	r2, [r0, #68]	@ zero_extendqisi2
 1744 00d2 012C     		cmp	r4, #1
 1745 00d4 E0B2     		uxtb	r0, r4
 1746 00d6 D2B2     		uxtb	r2, r2
 1747 00d8 9FD1     		bne	.L349
 1748 00da 012A     		cmp	r2, #1
 1749 00dc 9ED1     		bne	.L335
 1750 00de 0222     		movs	r2, #2
 1751 00e0 83F84020 		strb	r2, [r3, #64]
 1752 00e4 83F84420 		strb	r2, [r3, #68]
 1753 00e8 B7E7     		b	.L342
 1754              	.L366:
 1755 00ea 00BF     		.align	2
 1756              	.L365:
 1757 00ec 002C0140 		.word	1073818624
 1758 00f0 00040040 		.word	1073742848
 1760              		.section	.text.HAL_TIM_IC_Stop,"ax",%progbits
 1761              		.align	1
 1762              		.p2align 2,,3
 1763              		.global	HAL_TIM_IC_Stop
 1764              		.syntax unified
 1765              		.thumb
 1766              		.thumb_func
 1768              	HAL_TIM_IC_Stop:
 1769              		@ args = 0, pretend = 0, frame = 0
 1770              		@ frame_needed = 0, uses_anonymous_args = 0
 1771 0000 0122     		movs	r2, #1
 1772 0002 10B5     		push	{r4, lr}
 1773 0004 41F2111E 		movw	lr, #4369
 1774 0008 0368     		ldr	r3, [r0]
 1775 000a 01F01F0C 		and	ip, r1, #31
 1776 000e 02FA0CFC 		lsl	ip, r2, ip
 1777 0012 1A6A     		ldr	r2, [r3, #32]
 1778 0014 22EA0C02 		bic	r2, r2, ip
 1779 0018 1A62     		str	r2, [r3, #32]
 1780 001a 1A6A     		ldr	r2, [r3, #32]
 1781 001c 1A62     		str	r2, [r3, #32]
ARM GAS  /var/folders/td/83895s255bq6rlxfmrv9fnww0000gn/T//ccczYGAH.s 			page 31


 1782 001e 1A6A     		ldr	r2, [r3, #32]
 1783 0020 12EA0E0F 		tst	r2, lr
 1784 0024 04D1     		bne	.L368
 1785 0026 40F24442 		movw	r2, #1092
 1786 002a 1C6A     		ldr	r4, [r3, #32]
 1787 002c 1442     		tst	r4, r2
 1788 002e 15D0     		beq	.L374
 1789              	.L368:
 1790 0030 0123     		movs	r3, #1
 1791 0032 29B9     		cbnz	r1, .L369
 1792 0034 80F83E30 		strb	r3, [r0, #62]
 1793 0038 80F84230 		strb	r3, [r0, #66]
 1794 003c 0020     		movs	r0, #0
 1795 003e 10BD     		pop	{r4, pc}
 1796              	.L369:
 1797 0040 0429     		cmp	r1, #4
 1798 0042 10D0     		beq	.L375
 1799 0044 0829     		cmp	r1, #8
 1800 0046 0BBF     		itete	eq
 1801 0048 80F84030 		strbeq	r3, [r0, #64]
 1802 004c 80F84130 		strbne	r3, [r0, #65]
 1803 0050 80F84430 		strbeq	r3, [r0, #68]
 1804 0054 80F84530 		strbne	r3, [r0, #69]
 1805 0058 0020     		movs	r0, #0
 1806 005a 10BD     		pop	{r4, pc}
 1807              	.L374:
 1808 005c 1A68     		ldr	r2, [r3]
 1809 005e 22F00102 		bic	r2, r2, #1
 1810 0062 1A60     		str	r2, [r3]
 1811 0064 E4E7     		b	.L368
 1812              	.L375:
 1813 0066 80F83F30 		strb	r3, [r0, #63]
 1814 006a 80F84330 		strb	r3, [r0, #67]
 1815 006e 0020     		movs	r0, #0
 1816 0070 10BD     		pop	{r4, pc}
 1818 0072 00BF     		.section	.text.HAL_TIM_IC_Start_IT,"ax",%progbits
 1819              		.align	1
 1820              		.p2align 2,,3
 1821              		.global	HAL_TIM_IC_Start_IT
 1822              		.syntax unified
 1823              		.thumb
 1824              		.thumb_func
 1826              	HAL_TIM_IC_Start_IT:
 1827              		@ args = 0, pretend = 0, frame = 0
 1828              		@ frame_needed = 0, uses_anonymous_args = 0
 1829              		@ link register save eliminated.
 1830 0000 81BB     		cbnz	r1, .L377
 1831 0002 90F83E20 		ldrb	r2, [r0, #62]	@ zero_extendqisi2
 1832 0006 90F84230 		ldrb	r3, [r0, #66]	@ zero_extendqisi2
 1833 000a 012A     		cmp	r2, #1
 1834 000c DBB2     		uxtb	r3, r3
 1835 000e 4AD1     		bne	.L378
 1836 0010 012B     		cmp	r3, #1
 1837 0012 48D1     		bne	.L378
 1838 0014 0222     		movs	r2, #2
 1839 0016 0368     		ldr	r3, [r0]
 1840 0018 80F83E20 		strb	r2, [r0, #62]
ARM GAS  /var/folders/td/83895s255bq6rlxfmrv9fnww0000gn/T//ccczYGAH.s 			page 32


 1841 001c 80F84220 		strb	r2, [r0, #66]
 1842 0020 DA68     		ldr	r2, [r3, #12]
 1843 0022 42F00202 		orr	r2, r2, #2
 1844 0026 DA60     		str	r2, [r3, #12]
 1845              	.L385:
 1846 0028 0122     		movs	r2, #1
 1847 002a 186A     		ldr	r0, [r3, #32]
 1848 002c 8A40     		lsls	r2, r2, r1
 1849 002e 20EA0200 		bic	r0, r0, r2
 1850 0032 10B4     		push	{r4}
 1851 0034 1862     		str	r0, [r3, #32]
 1852 0036 196A     		ldr	r1, [r3, #32]
 1853 0038 2F4C     		ldr	r4, .L404
 1854 003a 0A43     		orrs	r2, r2, r1
 1855 003c A342     		cmp	r3, r4
 1856 003e 1A62     		str	r2, [r3, #32]
 1857 0040 33D0     		beq	.L386
 1858 0042 B3F1804F 		cmp	r3, #1073741824
 1859 0046 30D0     		beq	.L386
 1860 0048 2C4A     		ldr	r2, .L404+4
 1861 004a 9342     		cmp	r3, r2
 1862 004c 2DD0     		beq	.L386
 1863 004e 02F58062 		add	r2, r2, #1024
 1864 0052 9342     		cmp	r3, r2
 1865 0054 29D0     		beq	.L386
 1866              	.L387:
 1867 0056 1A68     		ldr	r2, [r3]
 1868 0058 42F00102 		orr	r2, r2, #1
 1869 005c 1A60     		str	r2, [r3]
 1870              	.L390:
 1871 005e 0020     		movs	r0, #0
 1872 0060 10BC     		pop	{r4}
 1873 0062 7047     		bx	lr
 1874              	.L377:
 1875 0064 0429     		cmp	r1, #4
 1876 0066 17D0     		beq	.L401
 1877 0068 0829     		cmp	r1, #8
 1878 006a 24D0     		beq	.L402
 1879 006c 90F84120 		ldrb	r2, [r0, #65]	@ zero_extendqisi2
 1880 0070 90F84530 		ldrb	r3, [r0, #69]	@ zero_extendqisi2
 1881 0074 012A     		cmp	r2, #1
 1882 0076 DBB2     		uxtb	r3, r3
 1883 0078 15D1     		bne	.L378
 1884 007a 012B     		cmp	r3, #1
 1885 007c 13D1     		bne	.L378
 1886 007e 0223     		movs	r3, #2
 1887 0080 0C29     		cmp	r1, #12
 1888 0082 80F84130 		strb	r3, [r0, #65]
 1889 0086 80F84530 		strb	r3, [r0, #69]
 1890 008a 0CD1     		bne	.L378
 1891 008c 0368     		ldr	r3, [r0]
 1892 008e DA68     		ldr	r2, [r3, #12]
 1893 0090 42F01002 		orr	r2, r2, #16
 1894 0094 DA60     		str	r2, [r3, #12]
 1895 0096 C7E7     		b	.L385
 1896              	.L401:
 1897 0098 90F83F20 		ldrb	r2, [r0, #63]	@ zero_extendqisi2
ARM GAS  /var/folders/td/83895s255bq6rlxfmrv9fnww0000gn/T//ccczYGAH.s 			page 33


 1898 009c 90F84330 		ldrb	r3, [r0, #67]	@ zero_extendqisi2
 1899 00a0 012A     		cmp	r2, #1
 1900 00a2 DBB2     		uxtb	r3, r3
 1901 00a4 1BD0     		beq	.L403
 1902              	.L378:
 1903 00a6 0120     		movs	r0, #1
 1904 00a8 7047     		bx	lr
 1905              	.L386:
 1906 00aa 9A68     		ldr	r2, [r3, #8]
 1907 00ac 02F00702 		and	r2, r2, #7
 1908 00b0 062A     		cmp	r2, #6
 1909 00b2 D0D1     		bne	.L387
 1910 00b4 D3E7     		b	.L390
 1911              	.L402:
 1912 00b6 90F84020 		ldrb	r2, [r0, #64]	@ zero_extendqisi2
 1913 00ba 90F84430 		ldrb	r3, [r0, #68]	@ zero_extendqisi2
 1914 00be 012A     		cmp	r2, #1
 1915 00c0 DBB2     		uxtb	r3, r3
 1916 00c2 F0D1     		bne	.L378
 1917 00c4 012B     		cmp	r3, #1
 1918 00c6 EED1     		bne	.L378
 1919 00c8 0222     		movs	r2, #2
 1920 00ca 0368     		ldr	r3, [r0]
 1921 00cc 80F84020 		strb	r2, [r0, #64]
 1922 00d0 80F84420 		strb	r2, [r0, #68]
 1923 00d4 DA68     		ldr	r2, [r3, #12]
 1924 00d6 42F00802 		orr	r2, r2, #8
 1925 00da DA60     		str	r2, [r3, #12]
 1926 00dc A4E7     		b	.L385
 1927              	.L403:
 1928 00de 012B     		cmp	r3, #1
 1929 00e0 E1D1     		bne	.L378
 1930 00e2 0222     		movs	r2, #2
 1931 00e4 0368     		ldr	r3, [r0]
 1932 00e6 80F83F20 		strb	r2, [r0, #63]
 1933 00ea 80F84320 		strb	r2, [r0, #67]
 1934 00ee DA68     		ldr	r2, [r3, #12]
 1935 00f0 42F00402 		orr	r2, r2, #4
 1936 00f4 DA60     		str	r2, [r3, #12]
 1937 00f6 97E7     		b	.L385
 1938              	.L405:
 1939              		.align	2
 1940              	.L404:
 1941 00f8 002C0140 		.word	1073818624
 1942 00fc 00040040 		.word	1073742848
 1944              		.section	.text.HAL_TIM_IC_Stop_IT,"ax",%progbits
 1945              		.align	1
 1946              		.p2align 2,,3
 1947              		.global	HAL_TIM_IC_Stop_IT
 1948              		.syntax unified
 1949              		.thumb
 1950              		.thumb_func
 1952              	HAL_TIM_IC_Stop_IT:
 1953              		@ args = 0, pretend = 0, frame = 0
 1954              		@ frame_needed = 0, uses_anonymous_args = 0
 1955              		@ link register save eliminated.
 1956 0000 10B4     		push	{r4}
ARM GAS  /var/folders/td/83895s255bq6rlxfmrv9fnww0000gn/T//ccczYGAH.s 			page 34


 1957 0002 0C29     		cmp	r1, #12
 1958 0004 08D8     		bhi	.L428
 1959 0006 DFE801F0 		tbb	[pc, r1]
 1960              	.L409:
 1961 000a 65       		.byte	(.L412-.L409)/2
 1962 000b 07       		.byte	(.L428-.L409)/2
 1963 000c 07       		.byte	(.L428-.L409)/2
 1964 000d 07       		.byte	(.L428-.L409)/2
 1965 000e 4E       		.byte	(.L411-.L409)/2
 1966 000f 07       		.byte	(.L428-.L409)/2
 1967 0010 07       		.byte	(.L428-.L409)/2
 1968 0011 07       		.byte	(.L428-.L409)/2
 1969 0012 2C       		.byte	(.L410-.L409)/2
 1970 0013 07       		.byte	(.L428-.L409)/2
 1971 0014 07       		.byte	(.L428-.L409)/2
 1972 0015 07       		.byte	(.L428-.L409)/2
 1973 0016 0A       		.byte	(.L408-.L409)/2
 1974 0017 00       		.p2align 1
 1975              	.L428:
 1976 0018 0120     		movs	r0, #1
 1977 001a 10BC     		pop	{r4}
 1978 001c 7047     		bx	lr
 1979              	.L408:
 1980 001e 41F2111C 		movw	ip, #4369
 1981 0022 0368     		ldr	r3, [r0]
 1982 0024 DA68     		ldr	r2, [r3, #12]
 1983 0026 22F01002 		bic	r2, r2, #16
 1984 002a DA60     		str	r2, [r3, #12]
 1985 002c 1A6A     		ldr	r2, [r3, #32]
 1986 002e 22F48052 		bic	r2, r2, #4096
 1987 0032 1A62     		str	r2, [r3, #32]
 1988 0034 1A6A     		ldr	r2, [r3, #32]
 1989 0036 1A62     		str	r2, [r3, #32]
 1990 0038 1A6A     		ldr	r2, [r3, #32]
 1991 003a 12EA0C0F 		tst	r2, ip
 1992 003e 2CD1     		bne	.L418
 1993 0040 40F24442 		movw	r2, #1092
 1994 0044 1C6A     		ldr	r4, [r3, #32]
 1995 0046 1442     		tst	r4, r2
 1996 0048 27D1     		bne	.L418
 1997              	.L425:
 1998 004a 1A68     		ldr	r2, [r3]
 1999 004c 0429     		cmp	r1, #4
 2000 004e 22F00102 		bic	r2, r2, #1
 2001 0052 1A60     		str	r2, [r3]
 2002 0054 1FD1     		bne	.L420
 2003              	.L422:
 2004 0056 0123     		movs	r3, #1
 2005 0058 80F83F30 		strb	r3, [r0, #63]
 2006 005c 80F84330 		strb	r3, [r0, #67]
 2007 0060 4DE0     		b	.L414
 2008              	.L410:
 2009 0062 41F2111C 		movw	ip, #4369
 2010 0066 0368     		ldr	r3, [r0]
 2011 0068 DA68     		ldr	r2, [r3, #12]
 2012 006a 22F00802 		bic	r2, r2, #8
 2013 006e DA60     		str	r2, [r3, #12]
ARM GAS  /var/folders/td/83895s255bq6rlxfmrv9fnww0000gn/T//ccczYGAH.s 			page 35


 2014 0070 1A6A     		ldr	r2, [r3, #32]
 2015 0072 22F48072 		bic	r2, r2, #256
 2016 0076 1A62     		str	r2, [r3, #32]
 2017 0078 1A6A     		ldr	r2, [r3, #32]
 2018 007a 1A62     		str	r2, [r3, #32]
 2019 007c 1A6A     		ldr	r2, [r3, #32]
 2020 007e 12EA0C0F 		tst	r2, ip
 2021 0082 49D1     		bne	.L423
 2022 0084 40F24442 		movw	r2, #1092
 2023 0088 1C6A     		ldr	r4, [r3, #32]
 2024 008a 1442     		tst	r4, r2
 2025 008c 44D1     		bne	.L423
 2026 008e 1A68     		ldr	r2, [r3]
 2027 0090 22F00102 		bic	r2, r2, #1
 2028 0094 1A60     		str	r2, [r3]
 2029              	.L420:
 2030 0096 0829     		cmp	r1, #8
 2031 0098 3ED0     		beq	.L423
 2032              	.L418:
 2033 009a 0123     		movs	r3, #1
 2034 009c 80F84130 		strb	r3, [r0, #65]
 2035 00a0 80F84530 		strb	r3, [r0, #69]
 2036 00a4 2BE0     		b	.L414
 2037              	.L411:
 2038 00a6 41F2111C 		movw	ip, #4369
 2039 00aa 0368     		ldr	r3, [r0]
 2040 00ac DA68     		ldr	r2, [r3, #12]
 2041 00ae 22F00402 		bic	r2, r2, #4
 2042 00b2 DA60     		str	r2, [r3, #12]
 2043 00b4 1A6A     		ldr	r2, [r3, #32]
 2044 00b6 22F01002 		bic	r2, r2, #16
 2045 00ba 1A62     		str	r2, [r3, #32]
 2046 00bc 1A6A     		ldr	r2, [r3, #32]
 2047 00be 1A62     		str	r2, [r3, #32]
 2048 00c0 1A6A     		ldr	r2, [r3, #32]
 2049 00c2 12EA0C0F 		tst	r2, ip
 2050 00c6 C6D1     		bne	.L422
 2051 00c8 40F24442 		movw	r2, #1092
 2052 00cc 1C6A     		ldr	r4, [r3, #32]
 2053 00ce 1442     		tst	r4, r2
 2054 00d0 BBD0     		beq	.L425
 2055 00d2 C0E7     		b	.L422
 2056              	.L412:
 2057 00d4 41F21111 		movw	r1, #4369
 2058 00d8 0368     		ldr	r3, [r0]
 2059 00da DA68     		ldr	r2, [r3, #12]
 2060 00dc 22F00202 		bic	r2, r2, #2
 2061 00e0 DA60     		str	r2, [r3, #12]
 2062 00e2 1A6A     		ldr	r2, [r3, #32]
 2063 00e4 22F00102 		bic	r2, r2, #1
 2064 00e8 1A62     		str	r2, [r3, #32]
 2065 00ea 1A6A     		ldr	r2, [r3, #32]
 2066 00ec 1A62     		str	r2, [r3, #32]
 2067 00ee 1A6A     		ldr	r2, [r3, #32]
 2068 00f0 0A42     		tst	r2, r1
 2069 00f2 07D0     		beq	.L413
 2070              	.L421:
ARM GAS  /var/folders/td/83895s255bq6rlxfmrv9fnww0000gn/T//ccczYGAH.s 			page 36


 2071 00f4 0123     		movs	r3, #1
 2072 00f6 80F83E30 		strb	r3, [r0, #62]
 2073 00fa 80F84230 		strb	r3, [r0, #66]
 2074              	.L414:
 2075 00fe 0020     		movs	r0, #0
 2076 0100 10BC     		pop	{r4}
 2077 0102 7047     		bx	lr
 2078              	.L413:
 2079 0104 40F24442 		movw	r2, #1092
 2080 0108 196A     		ldr	r1, [r3, #32]
 2081 010a 1142     		tst	r1, r2
 2082 010c F2D1     		bne	.L421
 2083 010e 1A68     		ldr	r2, [r3]
 2084 0110 22F00102 		bic	r2, r2, #1
 2085 0114 1A60     		str	r2, [r3]
 2086 0116 EDE7     		b	.L421
 2087              	.L423:
 2088 0118 0123     		movs	r3, #1
 2089 011a 80F84030 		strb	r3, [r0, #64]
 2090 011e 80F84430 		strb	r3, [r0, #68]
 2091 0122 ECE7     		b	.L414
 2093              		.section	.text.HAL_TIM_IC_Start_DMA,"ax",%progbits
 2094              		.align	1
 2095              		.p2align 2,,3
 2096              		.global	HAL_TIM_IC_Start_DMA
 2097              		.syntax unified
 2098              		.thumb
 2099              		.thumb_func
 2101              	HAL_TIM_IC_Start_DMA:
 2102              		@ args = 0, pretend = 0, frame = 0
 2103              		@ frame_needed = 0, uses_anonymous_args = 0
 2104 0000 F8B5     		push	{r3, r4, r5, r6, r7, lr}
 2105 0002 0446     		mov	r4, r0
 2106 0004 0029     		cmp	r1, #0
 2107 0006 53D1     		bne	.L438
 2108 0008 90F83EC0 		ldrb	ip, [r0, #62]	@ zero_extendqisi2
 2109 000c 5FFA8CF0 		uxtb	r0, ip
 2110 0010 94F842C0 		ldrb	ip, [r4, #66]	@ zero_extendqisi2
 2111 0014 5FFA8CFC 		uxtb	ip, ip
 2112              	.L439:
 2113 0018 0228     		cmp	r0, #2
 2114 001a 46D0     		beq	.L442
 2115 001c BCF1020F 		cmp	ip, #2
 2116 0020 42D0     		beq	.L458
 2117 0022 0128     		cmp	r0, #1
 2118 0024 42D1     		bne	.L444
 2119 0026 BCF1010F 		cmp	ip, #1
 2120 002a 3FD1     		bne	.L444
 2121 002c 002A     		cmp	r2, #0
 2122 002e 3DD0     		beq	.L444
 2123 0030 002B     		cmp	r3, #0
 2124 0032 3BD0     		beq	.L444
 2125 0034 2568     		ldr	r5, [r4]
 2126 0036 0029     		cmp	r1, #0
 2127 0038 59D1     		bne	.L445
 2128 003a 0226     		movs	r6, #2
 2129 003c 84F83E60 		strb	r6, [r4, #62]
ARM GAS  /var/folders/td/83895s255bq6rlxfmrv9fnww0000gn/T//ccczYGAH.s 			page 37


 2130 0040 84F84260 		strb	r6, [r4, #66]
 2131 0044 2E6A     		ldr	r6, [r5, #32]
 2132 0046 606A     		ldr	r0, [r4, #36]
 2133 0048 26F00106 		bic	r6, r6, #1
 2134 004c 2E62     		str	r6, [r5, #32]
 2135 004e 2E6A     		ldr	r6, [r5, #32]
 2136 0050 DFF8B4C1 		ldr	ip, .L480
 2137 0054 DFF8B4E1 		ldr	lr, .L480+4
 2138 0058 6D4F     		ldr	r7, .L480+8
 2139 005a 46F00106 		orr	r6, r6, #1
 2140 005e 2E62     		str	r6, [r5, #32]
 2141 0060 05F13401 		add	r1, r5, #52
 2142 0064 C0E90AEC 		strd	lr, ip, [r0, #40]
 2143 0068 0763     		str	r7, [r0, #48]
 2144 006a FFF7FEFF 		bl	HAL_DMA_Start_IT
 2145 006e 8446     		mov	ip, r0
 2146 0070 E0B9     		cbnz	r0, .L444
 2147 0072 2568     		ldr	r5, [r4]
 2148 0074 EB68     		ldr	r3, [r5, #12]
 2149 0076 43F40073 		orr	r3, r3, #512
 2150 007a EB60     		str	r3, [r5, #12]
 2151              	.L451:
 2152 007c 654B     		ldr	r3, .L480+12
 2153 007e 9D42     		cmp	r5, r3
 2154 0080 00F0B980 		beq	.L454
 2155 0084 B5F1804F 		cmp	r5, #1073741824
 2156 0088 00F0B580 		beq	.L454
 2157 008c A3F59433 		sub	r3, r3, #75776
 2158 0090 9D42     		cmp	r5, r3
 2159 0092 00F0B080 		beq	.L454
 2160 0096 03F58063 		add	r3, r3, #1024
 2161 009a 9D42     		cmp	r5, r3
 2162 009c 00F0AB80 		beq	.L454
 2163              	.L455:
 2164 00a0 2B68     		ldr	r3, [r5]
 2165 00a2 43F00103 		orr	r3, r3, #1
 2166 00a6 2B60     		str	r3, [r5]
 2167              	.L458:
 2168 00a8 6046     		mov	r0, ip
 2169              	.L442:
 2170 00aa F8BD     		pop	{r3, r4, r5, r6, r7, pc}
 2171              	.L444:
 2172 00ac 0120     		movs	r0, #1
 2173 00ae F8BD     		pop	{r3, r4, r5, r6, r7, pc}
 2174              	.L438:
 2175 00b0 0429     		cmp	r1, #4
 2176 00b2 0AD0     		beq	.L476
 2177 00b4 0829     		cmp	r1, #8
 2178 00b6 11D0     		beq	.L477
 2179 00b8 90F841C0 		ldrb	ip, [r0, #65]	@ zero_extendqisi2
 2180 00bc 5FFA8CF0 		uxtb	r0, ip
 2181 00c0 94F845C0 		ldrb	ip, [r4, #69]	@ zero_extendqisi2
 2182 00c4 5FFA8CFC 		uxtb	ip, ip
 2183 00c8 A6E7     		b	.L439
 2184              	.L476:
 2185 00ca 90F83FC0 		ldrb	ip, [r0, #63]	@ zero_extendqisi2
 2186 00ce 5FFA8CF0 		uxtb	r0, ip
ARM GAS  /var/folders/td/83895s255bq6rlxfmrv9fnww0000gn/T//ccczYGAH.s 			page 38


 2187 00d2 94F843C0 		ldrb	ip, [r4, #67]	@ zero_extendqisi2
 2188 00d6 5FFA8CFC 		uxtb	ip, ip
 2189 00da 9DE7     		b	.L439
 2190              	.L477:
 2191 00dc 90F840C0 		ldrb	ip, [r0, #64]	@ zero_extendqisi2
 2192 00e0 5FFA8CF0 		uxtb	r0, ip
 2193 00e4 94F844C0 		ldrb	ip, [r4, #68]	@ zero_extendqisi2
 2194 00e8 5FFA8CFC 		uxtb	ip, ip
 2195 00ec 94E7     		b	.L439
 2196              	.L445:
 2197 00ee 0429     		cmp	r1, #4
 2198 00f0 2AD0     		beq	.L478
 2199 00f2 0829     		cmp	r1, #8
 2200 00f4 5DD0     		beq	.L479
 2201 00f6 0226     		movs	r6, #2
 2202 00f8 84F84160 		strb	r6, [r4, #65]
 2203 00fc 84F84560 		strb	r6, [r4, #69]
 2204 0100 2E6A     		ldr	r6, [r5, #32]
 2205 0102 01F01F00 		and	r0, r1, #31
 2206 0106 0CFA00F0 		lsl	r0, ip, r0
 2207 010a 26EA0006 		bic	r6, r6, r0
 2208 010e 2E62     		str	r6, [r5, #32]
 2209 0110 2E6A     		ldr	r6, [r5, #32]
 2210 0112 0439     		subs	r1, r1, #4
 2211 0114 3043     		orrs	r0, r0, r6
 2212 0116 2862     		str	r0, [r5, #32]
 2213 0118 0829     		cmp	r1, #8
 2214 011a AFD8     		bhi	.L451
 2215 011c 01A0     		adr	r0, .L453
 2216 011e 50F821F0 		ldr	pc, [r0, r1, lsl #2]
 2217 0122 00BF     		.p2align 2
 2218              	.L453:
 2219 0124 63010000 		.word	.L448+1
 2220 0128 7D000000 		.word	.L451+1
 2221 012c 7D000000 		.word	.L451+1
 2222 0130 7D000000 		.word	.L451+1
 2223 0134 CD010000 		.word	.L450+1
 2224 0138 7D000000 		.word	.L451+1
 2225 013c 7D000000 		.word	.L451+1
 2226 0140 7D000000 		.word	.L451+1
 2227 0144 8B010000 		.word	.L452+1
 2228              		.p2align 1
 2229              	.L478:
 2230 0148 0221     		movs	r1, #2
 2231 014a 84F83F10 		strb	r1, [r4, #63]
 2232 014e 84F84310 		strb	r1, [r4, #67]
 2233 0152 296A     		ldr	r1, [r5, #32]
 2234 0154 21F01001 		bic	r1, r1, #16
 2235 0158 2962     		str	r1, [r5, #32]
 2236 015a 296A     		ldr	r1, [r5, #32]
 2237 015c 41F01001 		orr	r1, r1, #16
 2238 0160 2962     		str	r1, [r5, #32]
 2239              	.L448:
 2240 0162 A06A     		ldr	r0, [r4, #40]
 2241 0164 05F13801 		add	r1, r5, #56
 2242 0168 284D     		ldr	r5, .L480+4
 2243 016a 8562     		str	r5, [r0, #40]
ARM GAS  /var/folders/td/83895s255bq6rlxfmrv9fnww0000gn/T//ccczYGAH.s 			page 39


 2244 016c 264D     		ldr	r5, .L480
 2245 016e C562     		str	r5, [r0, #44]
 2246 0170 274D     		ldr	r5, .L480+8
 2247 0172 0563     		str	r5, [r0, #48]
 2248 0174 FFF7FEFF 		bl	HAL_DMA_Start_IT
 2249 0178 8446     		mov	ip, r0
 2250 017a 0028     		cmp	r0, #0
 2251 017c 96D1     		bne	.L444
 2252 017e 2568     		ldr	r5, [r4]
 2253 0180 EB68     		ldr	r3, [r5, #12]
 2254 0182 43F48063 		orr	r3, r3, #1024
 2255 0186 EB60     		str	r3, [r5, #12]
 2256 0188 78E7     		b	.L451
 2257              	.L452:
 2258 018a 206B     		ldr	r0, [r4, #48]
 2259 018c 05F14001 		add	r1, r5, #64
 2260 0190 1E4D     		ldr	r5, .L480+4
 2261 0192 8562     		str	r5, [r0, #40]
 2262 0194 1C4D     		ldr	r5, .L480
 2263 0196 C562     		str	r5, [r0, #44]
 2264 0198 1D4D     		ldr	r5, .L480+8
 2265 019a 0563     		str	r5, [r0, #48]
 2266 019c FFF7FEFF 		bl	HAL_DMA_Start_IT
 2267 01a0 8446     		mov	ip, r0
 2268 01a2 0028     		cmp	r0, #0
 2269 01a4 82D1     		bne	.L444
 2270 01a6 2568     		ldr	r5, [r4]
 2271 01a8 EB68     		ldr	r3, [r5, #12]
 2272 01aa 43F48053 		orr	r3, r3, #4096
 2273 01ae EB60     		str	r3, [r5, #12]
 2274 01b0 64E7     		b	.L451
 2275              	.L479:
 2276 01b2 0221     		movs	r1, #2
 2277 01b4 84F84010 		strb	r1, [r4, #64]
 2278 01b8 84F84410 		strb	r1, [r4, #68]
 2279 01bc 296A     		ldr	r1, [r5, #32]
 2280 01be 21F48071 		bic	r1, r1, #256
 2281 01c2 2962     		str	r1, [r5, #32]
 2282 01c4 296A     		ldr	r1, [r5, #32]
 2283 01c6 41F48071 		orr	r1, r1, #256
 2284 01ca 2962     		str	r1, [r5, #32]
 2285              	.L450:
 2286 01cc E06A     		ldr	r0, [r4, #44]
 2287 01ce 05F13C01 		add	r1, r5, #60
 2288 01d2 0E4D     		ldr	r5, .L480+4
 2289 01d4 8562     		str	r5, [r0, #40]
 2290 01d6 0C4D     		ldr	r5, .L480
 2291 01d8 C562     		str	r5, [r0, #44]
 2292 01da 0D4D     		ldr	r5, .L480+8
 2293 01dc 0563     		str	r5, [r0, #48]
 2294 01de FFF7FEFF 		bl	HAL_DMA_Start_IT
 2295 01e2 8446     		mov	ip, r0
 2296 01e4 0028     		cmp	r0, #0
 2297 01e6 7FF461AF 		bne	.L444
 2298 01ea 2568     		ldr	r5, [r4]
 2299 01ec EB68     		ldr	r3, [r5, #12]
 2300 01ee 43F40063 		orr	r3, r3, #2048
ARM GAS  /var/folders/td/83895s255bq6rlxfmrv9fnww0000gn/T//ccczYGAH.s 			page 40


 2301 01f2 EB60     		str	r3, [r5, #12]
 2302 01f4 42E7     		b	.L451
 2303              	.L454:
 2304 01f6 AB68     		ldr	r3, [r5, #8]
 2305 01f8 03F00703 		and	r3, r3, #7
 2306 01fc 062B     		cmp	r3, #6
 2307 01fe 7FF44FAF 		bne	.L455
 2308 0202 6046     		mov	r0, ip
 2309 0204 51E7     		b	.L442
 2310              	.L481:
 2311 0206 00BF     		.align	2
 2312              	.L480:
 2313 0208 00000000 		.word	TIM_DMACaptureHalfCplt
 2314 020c 00000000 		.word	TIM_DMACaptureCplt
 2315 0210 00000000 		.word	TIM_DMAError
 2316 0214 002C0140 		.word	1073818624
 2318              		.section	.text.HAL_TIM_IC_Stop_DMA,"ax",%progbits
 2319              		.align	1
 2320              		.p2align 2,,3
 2321              		.global	HAL_TIM_IC_Stop_DMA
 2322              		.syntax unified
 2323              		.thumb
 2324              		.thumb_func
 2326              	HAL_TIM_IC_Stop_DMA:
 2327              		@ args = 0, pretend = 0, frame = 0
 2328              		@ frame_needed = 0, uses_anonymous_args = 0
 2329 0000 4FF0010C 		mov	ip, #1
 2330 0004 38B5     		push	{r3, r4, r5, lr}
 2331 0006 0D46     		mov	r5, r1
 2332 0008 0368     		ldr	r3, [r0]
 2333 000a 01F01F01 		and	r1, r1, #31
 2334 000e 1A6A     		ldr	r2, [r3, #32]
 2335 0010 0CFA01FC 		lsl	ip, ip, r1
 2336 0014 22EA0C02 		bic	r2, r2, ip
 2337 0018 1A62     		str	r2, [r3, #32]
 2338 001a 1A6A     		ldr	r2, [r3, #32]
 2339 001c 0446     		mov	r4, r0
 2340 001e 1A62     		str	r2, [r3, #32]
 2341 0020 0C2D     		cmp	r5, #12
 2342 0022 08D8     		bhi	.L501
 2343 0024 DFE805F0 		tbb	[pc, r5]
 2344              	.L485:
 2345 0028 54       		.byte	(.L488-.L485)/2
 2346 0029 07       		.byte	(.L501-.L485)/2
 2347 002a 07       		.byte	(.L501-.L485)/2
 2348 002b 07       		.byte	(.L501-.L485)/2
 2349 002c 3C       		.byte	(.L487-.L485)/2
 2350 002d 07       		.byte	(.L501-.L485)/2
 2351 002e 07       		.byte	(.L501-.L485)/2
 2352 002f 07       		.byte	(.L501-.L485)/2
 2353 0030 1C       		.byte	(.L486-.L485)/2
 2354 0031 07       		.byte	(.L501-.L485)/2
 2355 0032 07       		.byte	(.L501-.L485)/2
 2356 0033 07       		.byte	(.L501-.L485)/2
 2357 0034 09       		.byte	(.L484-.L485)/2
 2358 0035 00       		.p2align 1
 2359              	.L501:
ARM GAS  /var/folders/td/83895s255bq6rlxfmrv9fnww0000gn/T//ccczYGAH.s 			page 41


 2360 0036 0120     		movs	r0, #1
 2361 0038 38BD     		pop	{r3, r4, r5, pc}
 2362              	.L484:
 2363 003a DA68     		ldr	r2, [r3, #12]
 2364 003c 006B     		ldr	r0, [r0, #48]
 2365 003e 22F48052 		bic	r2, r2, #4096
 2366 0042 DA60     		str	r2, [r3, #12]
 2367 0044 FFF7FEFF 		bl	HAL_DMA_Abort_IT
 2368 0048 41F21112 		movw	r2, #4369
 2369 004c 2368     		ldr	r3, [r4]
 2370 004e 196A     		ldr	r1, [r3, #32]
 2371 0050 1142     		tst	r1, r2
 2372 0052 1FD1     		bne	.L494
 2373 0054 40F24442 		movw	r2, #1092
 2374 0058 196A     		ldr	r1, [r3, #32]
 2375 005a 1142     		tst	r1, r2
 2376 005c 12D0     		beq	.L498
 2377 005e 17E0     		b	.L499
 2378              	.L486:
 2379 0060 DA68     		ldr	r2, [r3, #12]
 2380 0062 C06A     		ldr	r0, [r0, #44]
 2381 0064 22F40062 		bic	r2, r2, #2048
 2382 0068 DA60     		str	r2, [r3, #12]
 2383 006a FFF7FEFF 		bl	HAL_DMA_Abort_IT
 2384 006e 41F21112 		movw	r2, #4369
 2385 0072 2368     		ldr	r3, [r4]
 2386 0074 196A     		ldr	r1, [r3, #32]
 2387 0076 1142     		tst	r1, r2
 2388 0078 47D1     		bne	.L495
 2389 007a 40F24442 		movw	r2, #1092
 2390 007e 196A     		ldr	r1, [r3, #32]
 2391 0080 1142     		tst	r1, r2
 2392 0082 42D1     		bne	.L495
 2393              	.L498:
 2394 0084 1A68     		ldr	r2, [r3]
 2395 0086 042D     		cmp	r5, #4
 2396 0088 22F00102 		bic	r2, r2, #1
 2397 008c 1A60     		str	r2, [r3]
 2398 008e 19D0     		beq	.L500
 2399              	.L499:
 2400 0090 082D     		cmp	r5, #8
 2401 0092 3AD0     		beq	.L495
 2402              	.L494:
 2403 0094 0123     		movs	r3, #1
 2404 0096 84F84130 		strb	r3, [r4, #65]
 2405 009a 84F84530 		strb	r3, [r4, #69]
 2406 009e 32E0     		b	.L490
 2407              	.L487:
 2408 00a0 DA68     		ldr	r2, [r3, #12]
 2409 00a2 806A     		ldr	r0, [r0, #40]
 2410 00a4 22F48062 		bic	r2, r2, #1024
 2411 00a8 DA60     		str	r2, [r3, #12]
 2412 00aa FFF7FEFF 		bl	HAL_DMA_Abort_IT
 2413 00ae 41F21112 		movw	r2, #4369
 2414 00b2 2368     		ldr	r3, [r4]
 2415 00b4 196A     		ldr	r1, [r3, #32]
 2416 00b6 1142     		tst	r1, r2
ARM GAS  /var/folders/td/83895s255bq6rlxfmrv9fnww0000gn/T//ccczYGAH.s 			page 42


 2417 00b8 04D1     		bne	.L500
 2418 00ba 40F24442 		movw	r2, #1092
 2419 00be 196A     		ldr	r1, [r3, #32]
 2420 00c0 1142     		tst	r1, r2
 2421 00c2 DFD0     		beq	.L498
 2422              	.L500:
 2423 00c4 0123     		movs	r3, #1
 2424 00c6 84F83F30 		strb	r3, [r4, #63]
 2425 00ca 84F84330 		strb	r3, [r4, #67]
 2426 00ce 1AE0     		b	.L490
 2427              	.L488:
 2428 00d0 DA68     		ldr	r2, [r3, #12]
 2429 00d2 406A     		ldr	r0, [r0, #36]
 2430 00d4 22F40072 		bic	r2, r2, #512
 2431 00d8 DA60     		str	r2, [r3, #12]
 2432 00da FFF7FEFF 		bl	HAL_DMA_Abort_IT
 2433 00de 41F21112 		movw	r2, #4369
 2434 00e2 2368     		ldr	r3, [r4]
 2435 00e4 196A     		ldr	r1, [r3, #32]
 2436 00e6 1142     		tst	r1, r2
 2437 00e8 08D1     		bne	.L497
 2438 00ea 40F24442 		movw	r2, #1092
 2439 00ee 196A     		ldr	r1, [r3, #32]
 2440 00f0 1142     		tst	r1, r2
 2441 00f2 03D1     		bne	.L497
 2442 00f4 1A68     		ldr	r2, [r3]
 2443 00f6 22F00102 		bic	r2, r2, #1
 2444 00fa 1A60     		str	r2, [r3]
 2445              	.L497:
 2446 00fc 0123     		movs	r3, #1
 2447 00fe 84F83E30 		strb	r3, [r4, #62]
 2448 0102 84F84230 		strb	r3, [r4, #66]
 2449              	.L490:
 2450 0106 0020     		movs	r0, #0
 2451 0108 38BD     		pop	{r3, r4, r5, pc}
 2452              	.L495:
 2453 010a 0123     		movs	r3, #1
 2454 010c 84F84030 		strb	r3, [r4, #64]
 2455 0110 84F84430 		strb	r3, [r4, #68]
 2456 0114 F7E7     		b	.L490
 2458 0116 00BF     		.section	.text.HAL_TIM_OnePulse_MspInit,"ax",%progbits
 2459              		.align	1
 2460              		.p2align 2,,3
 2461              		.weak	HAL_TIM_OnePulse_MspInit
 2462              		.syntax unified
 2463              		.thumb
 2464              		.thumb_func
 2466              	HAL_TIM_OnePulse_MspInit:
 2467              		@ args = 0, pretend = 0, frame = 0
 2468              		@ frame_needed = 0, uses_anonymous_args = 0
 2469              		@ link register save eliminated.
 2470 0000 7047     		bx	lr
 2472 0002 00BF     		.section	.text.HAL_TIM_OnePulse_MspDeInit,"ax",%progbits
 2473              		.align	1
 2474              		.p2align 2,,3
 2475              		.weak	HAL_TIM_OnePulse_MspDeInit
 2476              		.syntax unified
ARM GAS  /var/folders/td/83895s255bq6rlxfmrv9fnww0000gn/T//ccczYGAH.s 			page 43


 2477              		.thumb
 2478              		.thumb_func
 2480              	HAL_TIM_OnePulse_MspDeInit:
 2481              		@ args = 0, pretend = 0, frame = 0
 2482              		@ frame_needed = 0, uses_anonymous_args = 0
 2483              		@ link register save eliminated.
 2484 0000 7047     		bx	lr
 2486 0002 00BF     		.section	.text.HAL_TIM_OnePulse_DeInit,"ax",%progbits
 2487              		.align	1
 2488              		.p2align 2,,3
 2489              		.global	HAL_TIM_OnePulse_DeInit
 2490              		.syntax unified
 2491              		.thumb
 2492              		.thumb_func
 2494              	HAL_TIM_OnePulse_DeInit:
 2495              		@ args = 0, pretend = 0, frame = 0
 2496              		@ frame_needed = 0, uses_anonymous_args = 0
 2497 0000 0221     		movs	r1, #2
 2498 0002 41F21112 		movw	r2, #4369
 2499 0006 0368     		ldr	r3, [r0]
 2500 0008 10B5     		push	{r4, lr}
 2501 000a 80F83D10 		strb	r1, [r0, #61]
 2502 000e 196A     		ldr	r1, [r3, #32]
 2503 0010 0446     		mov	r4, r0
 2504 0012 1142     		tst	r1, r2
 2505 0014 08D1     		bne	.L522
 2506 0016 40F24442 		movw	r2, #1092
 2507 001a 196A     		ldr	r1, [r3, #32]
 2508 001c 1142     		tst	r1, r2
 2509 001e 03D1     		bne	.L522
 2510 0020 1A68     		ldr	r2, [r3]
 2511 0022 22F00102 		bic	r2, r2, #1
 2512 0026 1A60     		str	r2, [r3]
 2513              	.L522:
 2514 0028 2046     		mov	r0, r4
 2515 002a FFF7FEFF 		bl	HAL_TIM_OnePulse_MspDeInit
 2516 002e 0020     		movs	r0, #0
 2517 0030 84F84600 		strb	r0, [r4, #70]
 2518 0034 84F83C00 		strb	r0, [r4, #60]
 2519 0038 84F83E00 		strb	r0, [r4, #62]
 2520 003c 84F83F00 		strb	r0, [r4, #63]
 2521 0040 84F84200 		strb	r0, [r4, #66]
 2522 0044 84F84300 		strb	r0, [r4, #67]
 2523 0048 84F83D00 		strb	r0, [r4, #61]
 2524 004c 10BD     		pop	{r4, pc}
 2526 004e 00BF     		.section	.text.HAL_TIM_OnePulse_Start,"ax",%progbits
 2527              		.align	1
 2528              		.p2align 2,,3
 2529              		.global	HAL_TIM_OnePulse_Start
 2530              		.syntax unified
 2531              		.thumb
 2532              		.thumb_func
 2534              	HAL_TIM_OnePulse_Start:
 2535              		@ args = 0, pretend = 0, frame = 0
 2536              		@ frame_needed = 0, uses_anonymous_args = 0
 2537 0000 00B5     		push	{lr}
 2538 0002 90F83EE0 		ldrb	lr, [r0, #62]	@ zero_extendqisi2
ARM GAS  /var/folders/td/83895s255bq6rlxfmrv9fnww0000gn/T//ccczYGAH.s 			page 44


 2539 0006 90F83F20 		ldrb	r2, [r0, #63]	@ zero_extendqisi2
 2540 000a BEF1010F 		cmp	lr, #1
 2541 000e 90F84210 		ldrb	r1, [r0, #66]	@ zero_extendqisi2
 2542 0012 90F843C0 		ldrb	ip, [r0, #67]	@ zero_extendqisi2
 2543 0016 07D1     		bne	.L527
 2544 0018 D2B2     		uxtb	r2, r2
 2545 001a 012A     		cmp	r2, #1
 2546 001c 0346     		mov	r3, r0
 2547 001e 5FFA8EF0 		uxtb	r0, lr
 2548 0022 04D0     		beq	.L531
 2549              	.L525:
 2550 0024 5DF804FB 		ldr	pc, [sp], #4
 2551              	.L527:
 2552 0028 0120     		movs	r0, #1
 2553 002a 5DF804FB 		ldr	pc, [sp], #4
 2554              	.L531:
 2555 002e C9B2     		uxtb	r1, r1
 2556 0030 0129     		cmp	r1, #1
 2557 0032 F7D1     		bne	.L525
 2558 0034 5FFA8CFC 		uxtb	ip, ip
 2559 0038 BCF1010F 		cmp	ip, #1
 2560 003c F2D1     		bne	.L525
 2561 003e 0221     		movs	r1, #2
 2562 0040 1A68     		ldr	r2, [r3]
 2563 0042 83F83E10 		strb	r1, [r3, #62]
 2564 0046 83F83F10 		strb	r1, [r3, #63]
 2565 004a 83F84210 		strb	r1, [r3, #66]
 2566 004e 83F84310 		strb	r1, [r3, #67]
 2567 0052 136A     		ldr	r3, [r2, #32]
 2568 0054 0C48     		ldr	r0, .L533
 2569 0056 23F00103 		bic	r3, r3, #1
 2570 005a 1362     		str	r3, [r2, #32]
 2571 005c 136A     		ldr	r3, [r2, #32]
 2572 005e 8242     		cmp	r2, r0
 2573 0060 43F00103 		orr	r3, r3, #1
 2574 0064 1362     		str	r3, [r2, #32]
 2575 0066 136A     		ldr	r3, [r2, #32]
 2576 0068 23F01003 		bic	r3, r3, #16
 2577 006c 1362     		str	r3, [r2, #32]
 2578 006e 136A     		ldr	r3, [r2, #32]
 2579 0070 43F01003 		orr	r3, r3, #16
 2580 0074 1362     		str	r3, [r2, #32]
 2581 0076 01D0     		beq	.L532
 2582              	.L526:
 2583 0078 0020     		movs	r0, #0
 2584 007a D3E7     		b	.L525
 2585              	.L532:
 2586 007c 536C     		ldr	r3, [r2, #68]
 2587 007e 43F40043 		orr	r3, r3, #32768
 2588 0082 5364     		str	r3, [r2, #68]
 2589 0084 F8E7     		b	.L526
 2590              	.L534:
 2591 0086 00BF     		.align	2
 2592              	.L533:
 2593 0088 002C0140 		.word	1073818624
 2595              		.section	.text.HAL_TIM_OnePulse_Stop,"ax",%progbits
 2596              		.align	1
ARM GAS  /var/folders/td/83895s255bq6rlxfmrv9fnww0000gn/T//ccczYGAH.s 			page 45


 2597              		.p2align 2,,3
 2598              		.global	HAL_TIM_OnePulse_Stop
 2599              		.syntax unified
 2600              		.thumb
 2601              		.thumb_func
 2603              	HAL_TIM_OnePulse_Stop:
 2604              		@ args = 0, pretend = 0, frame = 0
 2605              		@ frame_needed = 0, uses_anonymous_args = 0
 2606              		@ link register save eliminated.
 2607 0000 0368     		ldr	r3, [r0]
 2608 0002 10B4     		push	{r4}
 2609 0004 196A     		ldr	r1, [r3, #32]
 2610 0006 1C4C     		ldr	r4, .L540
 2611 0008 21F00101 		bic	r1, r1, #1
 2612 000c 1962     		str	r1, [r3, #32]
 2613 000e 196A     		ldr	r1, [r3, #32]
 2614 0010 A342     		cmp	r3, r4
 2615 0012 1962     		str	r1, [r3, #32]
 2616 0014 196A     		ldr	r1, [r3, #32]
 2617 0016 0246     		mov	r2, r0
 2618 0018 21F01001 		bic	r1, r1, #16
 2619 001c 1962     		str	r1, [r3, #32]
 2620 001e 196A     		ldr	r1, [r3, #32]
 2621 0020 1962     		str	r1, [r3, #32]
 2622 0022 19D0     		beq	.L539
 2623              	.L536:
 2624 0024 41F21111 		movw	r1, #4369
 2625 0028 186A     		ldr	r0, [r3, #32]
 2626 002a 0842     		tst	r0, r1
 2627 002c 08D1     		bne	.L537
 2628 002e 40F24441 		movw	r1, #1092
 2629 0032 186A     		ldr	r0, [r3, #32]
 2630 0034 0842     		tst	r0, r1
 2631 0036 03D1     		bne	.L537
 2632 0038 1968     		ldr	r1, [r3]
 2633 003a 21F00101 		bic	r1, r1, #1
 2634 003e 1960     		str	r1, [r3]
 2635              	.L537:
 2636 0040 0123     		movs	r3, #1
 2637 0042 82F83E30 		strb	r3, [r2, #62]
 2638 0046 82F83F30 		strb	r3, [r2, #63]
 2639 004a 82F84230 		strb	r3, [r2, #66]
 2640 004e 82F84330 		strb	r3, [r2, #67]
 2641 0052 0020     		movs	r0, #0
 2642 0054 10BC     		pop	{r4}
 2643 0056 7047     		bx	lr
 2644              	.L539:
 2645 0058 41F21111 		movw	r1, #4369
 2646 005c 186A     		ldr	r0, [r3, #32]
 2647 005e 0842     		tst	r0, r1
 2648 0060 E0D1     		bne	.L536
 2649 0062 40F24441 		movw	r1, #1092
 2650 0066 186A     		ldr	r0, [r3, #32]
 2651 0068 0842     		tst	r0, r1
 2652 006a DBD1     		bne	.L536
 2653 006c 596C     		ldr	r1, [r3, #68]
 2654 006e 21F40041 		bic	r1, r1, #32768
ARM GAS  /var/folders/td/83895s255bq6rlxfmrv9fnww0000gn/T//ccczYGAH.s 			page 46


 2655 0072 5964     		str	r1, [r3, #68]
 2656 0074 D6E7     		b	.L536
 2657              	.L541:
 2658 0076 00BF     		.align	2
 2659              	.L540:
 2660 0078 002C0140 		.word	1073818624
 2662              		.section	.text.HAL_TIM_OnePulse_Start_IT,"ax",%progbits
 2663              		.align	1
 2664              		.p2align 2,,3
 2665              		.global	HAL_TIM_OnePulse_Start_IT
 2666              		.syntax unified
 2667              		.thumb
 2668              		.thumb_func
 2670              	HAL_TIM_OnePulse_Start_IT:
 2671              		@ args = 0, pretend = 0, frame = 0
 2672              		@ frame_needed = 0, uses_anonymous_args = 0
 2673 0000 00B5     		push	{lr}
 2674 0002 90F83EE0 		ldrb	lr, [r0, #62]	@ zero_extendqisi2
 2675 0006 90F83F20 		ldrb	r2, [r0, #63]	@ zero_extendqisi2
 2676 000a BEF1010F 		cmp	lr, #1
 2677 000e 90F84210 		ldrb	r1, [r0, #66]	@ zero_extendqisi2
 2678 0012 90F843C0 		ldrb	ip, [r0, #67]	@ zero_extendqisi2
 2679 0016 07D1     		bne	.L545
 2680 0018 D2B2     		uxtb	r2, r2
 2681 001a 012A     		cmp	r2, #1
 2682 001c 0346     		mov	r3, r0
 2683 001e 5FFA8EF0 		uxtb	r0, lr
 2684 0022 04D0     		beq	.L549
 2685              	.L543:
 2686 0024 5DF804FB 		ldr	pc, [sp], #4
 2687              	.L545:
 2688 0028 0120     		movs	r0, #1
 2689 002a 5DF804FB 		ldr	pc, [sp], #4
 2690              	.L549:
 2691 002e C9B2     		uxtb	r1, r1
 2692 0030 0129     		cmp	r1, #1
 2693 0032 F7D1     		bne	.L543
 2694 0034 5FFA8CFC 		uxtb	ip, ip
 2695 0038 BCF1010F 		cmp	ip, #1
 2696 003c F2D1     		bne	.L543
 2697 003e 0221     		movs	r1, #2
 2698 0040 1A68     		ldr	r2, [r3]
 2699 0042 83F83E10 		strb	r1, [r3, #62]
 2700 0046 83F83F10 		strb	r1, [r3, #63]
 2701 004a 83F84210 		strb	r1, [r3, #66]
 2702 004e 83F84310 		strb	r1, [r3, #67]
 2703 0052 D368     		ldr	r3, [r2, #12]
 2704 0054 0F48     		ldr	r0, .L551
 2705 0056 0B43     		orrs	r3, r3, r1
 2706 0058 D360     		str	r3, [r2, #12]
 2707 005a D368     		ldr	r3, [r2, #12]
 2708 005c 8242     		cmp	r2, r0
 2709 005e 43F00403 		orr	r3, r3, #4
 2710 0062 D360     		str	r3, [r2, #12]
 2711 0064 136A     		ldr	r3, [r2, #32]
 2712 0066 23F00103 		bic	r3, r3, #1
 2713 006a 1362     		str	r3, [r2, #32]
ARM GAS  /var/folders/td/83895s255bq6rlxfmrv9fnww0000gn/T//ccczYGAH.s 			page 47


 2714 006c 136A     		ldr	r3, [r2, #32]
 2715 006e 43F00103 		orr	r3, r3, #1
 2716 0072 1362     		str	r3, [r2, #32]
 2717 0074 136A     		ldr	r3, [r2, #32]
 2718 0076 23F01003 		bic	r3, r3, #16
 2719 007a 1362     		str	r3, [r2, #32]
 2720 007c 136A     		ldr	r3, [r2, #32]
 2721 007e 43F01003 		orr	r3, r3, #16
 2722 0082 1362     		str	r3, [r2, #32]
 2723 0084 01D0     		beq	.L550
 2724              	.L544:
 2725 0086 0020     		movs	r0, #0
 2726 0088 CCE7     		b	.L543
 2727              	.L550:
 2728 008a 536C     		ldr	r3, [r2, #68]
 2729 008c 43F40043 		orr	r3, r3, #32768
 2730 0090 5364     		str	r3, [r2, #68]
 2731 0092 F8E7     		b	.L544
 2732              	.L552:
 2733              		.align	2
 2734              	.L551:
 2735 0094 002C0140 		.word	1073818624
 2737              		.section	.text.HAL_TIM_OnePulse_Stop_IT,"ax",%progbits
 2738              		.align	1
 2739              		.p2align 2,,3
 2740              		.global	HAL_TIM_OnePulse_Stop_IT
 2741              		.syntax unified
 2742              		.thumb
 2743              		.thumb_func
 2745              	HAL_TIM_OnePulse_Stop_IT:
 2746              		@ args = 0, pretend = 0, frame = 0
 2747              		@ frame_needed = 0, uses_anonymous_args = 0
 2748              		@ link register save eliminated.
 2749 0000 0368     		ldr	r3, [r0]
 2750 0002 10B4     		push	{r4}
 2751 0004 D968     		ldr	r1, [r3, #12]
 2752 0006 204C     		ldr	r4, .L558
 2753 0008 21F00201 		bic	r1, r1, #2
 2754 000c D960     		str	r1, [r3, #12]
 2755 000e D968     		ldr	r1, [r3, #12]
 2756 0010 A342     		cmp	r3, r4
 2757 0012 21F00401 		bic	r1, r1, #4
 2758 0016 D960     		str	r1, [r3, #12]
 2759 0018 196A     		ldr	r1, [r3, #32]
 2760 001a 0246     		mov	r2, r0
 2761 001c 21F00101 		bic	r1, r1, #1
 2762 0020 1962     		str	r1, [r3, #32]
 2763 0022 196A     		ldr	r1, [r3, #32]
 2764 0024 1962     		str	r1, [r3, #32]
 2765 0026 196A     		ldr	r1, [r3, #32]
 2766 0028 21F01001 		bic	r1, r1, #16
 2767 002c 1962     		str	r1, [r3, #32]
 2768 002e 196A     		ldr	r1, [r3, #32]
 2769 0030 1962     		str	r1, [r3, #32]
 2770 0032 19D0     		beq	.L557
 2771              	.L554:
 2772 0034 41F21111 		movw	r1, #4369
ARM GAS  /var/folders/td/83895s255bq6rlxfmrv9fnww0000gn/T//ccczYGAH.s 			page 48


 2773 0038 186A     		ldr	r0, [r3, #32]
 2774 003a 0842     		tst	r0, r1
 2775 003c 08D1     		bne	.L555
 2776 003e 40F24441 		movw	r1, #1092
 2777 0042 186A     		ldr	r0, [r3, #32]
 2778 0044 0842     		tst	r0, r1
 2779 0046 03D1     		bne	.L555
 2780 0048 1968     		ldr	r1, [r3]
 2781 004a 21F00101 		bic	r1, r1, #1
 2782 004e 1960     		str	r1, [r3]
 2783              	.L555:
 2784 0050 0123     		movs	r3, #1
 2785 0052 82F83E30 		strb	r3, [r2, #62]
 2786 0056 82F83F30 		strb	r3, [r2, #63]
 2787 005a 82F84230 		strb	r3, [r2, #66]
 2788 005e 82F84330 		strb	r3, [r2, #67]
 2789 0062 0020     		movs	r0, #0
 2790 0064 10BC     		pop	{r4}
 2791 0066 7047     		bx	lr
 2792              	.L557:
 2793 0068 41F21111 		movw	r1, #4369
 2794 006c 186A     		ldr	r0, [r3, #32]
 2795 006e 0842     		tst	r0, r1
 2796 0070 E0D1     		bne	.L554
 2797 0072 40F24441 		movw	r1, #1092
 2798 0076 186A     		ldr	r0, [r3, #32]
 2799 0078 0842     		tst	r0, r1
 2800 007a DBD1     		bne	.L554
 2801 007c 596C     		ldr	r1, [r3, #68]
 2802 007e 21F40041 		bic	r1, r1, #32768
 2803 0082 5964     		str	r1, [r3, #68]
 2804 0084 D6E7     		b	.L554
 2805              	.L559:
 2806 0086 00BF     		.align	2
 2807              	.L558:
 2808 0088 002C0140 		.word	1073818624
 2810              		.section	.text.HAL_TIM_Encoder_MspInit,"ax",%progbits
 2811              		.align	1
 2812              		.p2align 2,,3
 2813              		.weak	HAL_TIM_Encoder_MspInit
 2814              		.syntax unified
 2815              		.thumb
 2816              		.thumb_func
 2818              	HAL_TIM_Encoder_MspInit:
 2819              		@ args = 0, pretend = 0, frame = 0
 2820              		@ frame_needed = 0, uses_anonymous_args = 0
 2821              		@ link register save eliminated.
 2822 0000 7047     		bx	lr
 2824 0002 00BF     		.section	.text.HAL_TIM_Encoder_MspDeInit,"ax",%progbits
 2825              		.align	1
 2826              		.p2align 2,,3
 2827              		.weak	HAL_TIM_Encoder_MspDeInit
 2828              		.syntax unified
 2829              		.thumb
 2830              		.thumb_func
 2832              	HAL_TIM_Encoder_MspDeInit:
 2833              		@ args = 0, pretend = 0, frame = 0
ARM GAS  /var/folders/td/83895s255bq6rlxfmrv9fnww0000gn/T//ccczYGAH.s 			page 49


 2834              		@ frame_needed = 0, uses_anonymous_args = 0
 2835              		@ link register save eliminated.
 2836 0000 7047     		bx	lr
 2838 0002 00BF     		.section	.text.HAL_TIM_Encoder_DeInit,"ax",%progbits
 2839              		.align	1
 2840              		.p2align 2,,3
 2841              		.global	HAL_TIM_Encoder_DeInit
 2842              		.syntax unified
 2843              		.thumb
 2844              		.thumb_func
 2846              	HAL_TIM_Encoder_DeInit:
 2847              		@ args = 0, pretend = 0, frame = 0
 2848              		@ frame_needed = 0, uses_anonymous_args = 0
 2849 0000 0221     		movs	r1, #2
 2850 0002 41F21112 		movw	r2, #4369
 2851 0006 0368     		ldr	r3, [r0]
 2852 0008 10B5     		push	{r4, lr}
 2853 000a 80F83D10 		strb	r1, [r0, #61]
 2854 000e 196A     		ldr	r1, [r3, #32]
 2855 0010 0446     		mov	r4, r0
 2856 0012 1142     		tst	r1, r2
 2857 0014 08D1     		bne	.L563
 2858 0016 40F24442 		movw	r2, #1092
 2859 001a 196A     		ldr	r1, [r3, #32]
 2860 001c 1142     		tst	r1, r2
 2861 001e 03D1     		bne	.L563
 2862 0020 1A68     		ldr	r2, [r3]
 2863 0022 22F00102 		bic	r2, r2, #1
 2864 0026 1A60     		str	r2, [r3]
 2865              	.L563:
 2866 0028 2046     		mov	r0, r4
 2867 002a FFF7FEFF 		bl	HAL_TIM_Encoder_MspDeInit
 2868 002e 0020     		movs	r0, #0
 2869 0030 84F84600 		strb	r0, [r4, #70]
 2870 0034 84F83C00 		strb	r0, [r4, #60]
 2871 0038 84F83E00 		strb	r0, [r4, #62]
 2872 003c 84F83F00 		strb	r0, [r4, #63]
 2873 0040 84F84200 		strb	r0, [r4, #66]
 2874 0044 84F84300 		strb	r0, [r4, #67]
 2875 0048 84F83D00 		strb	r0, [r4, #61]
 2876 004c 10BD     		pop	{r4, pc}
 2878 004e 00BF     		.section	.text.HAL_TIM_Encoder_Start,"ax",%progbits
 2879              		.align	1
 2880              		.p2align 2,,3
 2881              		.global	HAL_TIM_Encoder_Start
 2882              		.syntax unified
 2883              		.thumb
 2884              		.thumb_func
 2886              	HAL_TIM_Encoder_Start:
 2887              		@ args = 0, pretend = 0, frame = 0
 2888              		@ frame_needed = 0, uses_anonymous_args = 0
 2889 0000 0346     		mov	r3, r0
 2890 0002 00B5     		push	{lr}
 2891 0004 90F83E00 		ldrb	r0, [r0, #62]	@ zero_extendqisi2
 2892 0008 93F83F20 		ldrb	r2, [r3, #63]	@ zero_extendqisi2
 2893 000c 93F842C0 		ldrb	ip, [r3, #66]	@ zero_extendqisi2
 2894 0010 C0B2     		uxtb	r0, r0
ARM GAS  /var/folders/td/83895s255bq6rlxfmrv9fnww0000gn/T//ccczYGAH.s 			page 50


 2895 0012 93F843E0 		ldrb	lr, [r3, #67]	@ zero_extendqisi2
 2896 0016 5FFA8CFC 		uxtb	ip, ip
 2897 001a E1B9     		cbnz	r1, .L566
 2898 001c 0128     		cmp	r0, #1
 2899 001e 02D0     		beq	.L578
 2900              	.L573:
 2901 0020 0120     		movs	r0, #1
 2902              	.L567:
 2903 0022 5DF804FB 		ldr	pc, [sp], #4
 2904              	.L578:
 2905 0026 BCF1010F 		cmp	ip, #1
 2906 002a FAD1     		bne	.L567
 2907 002c 0221     		movs	r1, #2
 2908 002e 1A68     		ldr	r2, [r3]
 2909 0030 83F83E10 		strb	r1, [r3, #62]
 2910 0034 83F84210 		strb	r1, [r3, #66]
 2911 0038 136A     		ldr	r3, [r2, #32]
 2912 003a 23F00103 		bic	r3, r3, #1
 2913 003e 1362     		str	r3, [r2, #32]
 2914 0040 136A     		ldr	r3, [r2, #32]
 2915 0042 43F00103 		orr	r3, r3, #1
 2916 0046 1362     		str	r3, [r2, #32]
 2917              	.L568:
 2918 0048 1368     		ldr	r3, [r2]
 2919 004a 0020     		movs	r0, #0
 2920 004c 43F00103 		orr	r3, r3, #1
 2921 0050 1360     		str	r3, [r2]
 2922 0052 5DF804FB 		ldr	pc, [sp], #4
 2923              	.L566:
 2924 0056 0429     		cmp	r1, #4
 2925 0058 D2B2     		uxtb	r2, r2
 2926 005a 5FFA8EFE 		uxtb	lr, lr
 2927 005e 1CD0     		beq	.L579
 2928 0060 0128     		cmp	r0, #1
 2929 0062 DDD1     		bne	.L573
 2930 0064 012A     		cmp	r2, #1
 2931 0066 DCD1     		bne	.L567
 2932 0068 BCF1010F 		cmp	ip, #1
 2933 006c D9D1     		bne	.L567
 2934 006e BEF1010F 		cmp	lr, #1
 2935 0072 D6D1     		bne	.L567
 2936 0074 0221     		movs	r1, #2
 2937 0076 1A68     		ldr	r2, [r3]
 2938 0078 83F83E10 		strb	r1, [r3, #62]
 2939 007c 83F83F10 		strb	r1, [r3, #63]
 2940 0080 83F84210 		strb	r1, [r3, #66]
 2941 0084 83F84310 		strb	r1, [r3, #67]
 2942 0088 136A     		ldr	r3, [r2, #32]
 2943 008a 23F00103 		bic	r3, r3, #1
 2944 008e 1362     		str	r3, [r2, #32]
 2945 0090 136A     		ldr	r3, [r2, #32]
 2946 0092 43F00103 		orr	r3, r3, #1
 2947 0096 1362     		str	r3, [r2, #32]
 2948 0098 0AE0     		b	.L577
 2949              	.L579:
 2950 009a 012A     		cmp	r2, #1
 2951 009c C0D1     		bne	.L573
ARM GAS  /var/folders/td/83895s255bq6rlxfmrv9fnww0000gn/T//ccczYGAH.s 			page 51


 2952 009e BEF1010F 		cmp	lr, #1
 2953 00a2 BDD1     		bne	.L573
 2954 00a4 0221     		movs	r1, #2
 2955 00a6 1A68     		ldr	r2, [r3]
 2956 00a8 83F83F10 		strb	r1, [r3, #63]
 2957 00ac 83F84310 		strb	r1, [r3, #67]
 2958              	.L577:
 2959 00b0 136A     		ldr	r3, [r2, #32]
 2960 00b2 23F01003 		bic	r3, r3, #16
 2961 00b6 1362     		str	r3, [r2, #32]
 2962 00b8 136A     		ldr	r3, [r2, #32]
 2963 00ba 43F01003 		orr	r3, r3, #16
 2964 00be 1362     		str	r3, [r2, #32]
 2965 00c0 C2E7     		b	.L568
 2967 00c2 00BF     		.section	.text.HAL_TIM_Encoder_Stop,"ax",%progbits
 2968              		.align	1
 2969              		.p2align 2,,3
 2970              		.global	HAL_TIM_Encoder_Stop
 2971              		.syntax unified
 2972              		.thumb
 2973              		.thumb_func
 2975              	HAL_TIM_Encoder_Stop:
 2976              		@ args = 0, pretend = 0, frame = 0
 2977              		@ frame_needed = 0, uses_anonymous_args = 0
 2978              		@ link register save eliminated.
 2979 0000 0368     		ldr	r3, [r0]
 2980 0002 0029     		cmp	r1, #0
 2981 0004 41D0     		beq	.L581
 2982 0006 0429     		cmp	r1, #4
 2983 0008 24D0     		beq	.L582
 2984 000a 41F21111 		movw	r1, #4369
 2985 000e 1A6A     		ldr	r2, [r3, #32]
 2986 0010 22F00102 		bic	r2, r2, #1
 2987 0014 1A62     		str	r2, [r3, #32]
 2988 0016 1A6A     		ldr	r2, [r3, #32]
 2989 0018 1A62     		str	r2, [r3, #32]
 2990 001a 1A6A     		ldr	r2, [r3, #32]
 2991 001c 22F01002 		bic	r2, r2, #16
 2992 0020 1A62     		str	r2, [r3, #32]
 2993 0022 1A6A     		ldr	r2, [r3, #32]
 2994 0024 1A62     		str	r2, [r3, #32]
 2995 0026 1A6A     		ldr	r2, [r3, #32]
 2996 0028 0A42     		tst	r2, r1
 2997 002a 08D1     		bne	.L589
 2998 002c 40F24442 		movw	r2, #1092
 2999 0030 196A     		ldr	r1, [r3, #32]
 3000 0032 1142     		tst	r1, r2
 3001 0034 03D1     		bne	.L589
 3002 0036 1A68     		ldr	r2, [r3]
 3003 0038 22F00102 		bic	r2, r2, #1
 3004 003c 1A60     		str	r2, [r3]
 3005              	.L589:
 3006 003e 0123     		movs	r3, #1
 3007 0040 80F83E30 		strb	r3, [r0, #62]
 3008 0044 80F83F30 		strb	r3, [r0, #63]
 3009 0048 80F84230 		strb	r3, [r0, #66]
 3010 004c 80F84330 		strb	r3, [r0, #67]
ARM GAS  /var/folders/td/83895s255bq6rlxfmrv9fnww0000gn/T//ccczYGAH.s 			page 52


 3011 0050 0020     		movs	r0, #0
 3012 0052 7047     		bx	lr
 3013              	.L582:
 3014 0054 41F21111 		movw	r1, #4369
 3015 0058 1A6A     		ldr	r2, [r3, #32]
 3016 005a 22F01002 		bic	r2, r2, #16
 3017 005e 1A62     		str	r2, [r3, #32]
 3018 0060 1A6A     		ldr	r2, [r3, #32]
 3019 0062 1A62     		str	r2, [r3, #32]
 3020 0064 1A6A     		ldr	r2, [r3, #32]
 3021 0066 0A42     		tst	r2, r1
 3022 0068 08D1     		bne	.L587
 3023 006a 40F24442 		movw	r2, #1092
 3024 006e 196A     		ldr	r1, [r3, #32]
 3025 0070 1142     		tst	r1, r2
 3026 0072 03D1     		bne	.L587
 3027 0074 1A68     		ldr	r2, [r3]
 3028 0076 22F00102 		bic	r2, r2, #1
 3029 007a 1A60     		str	r2, [r3]
 3030              	.L587:
 3031 007c 0123     		movs	r3, #1
 3032 007e 80F83F30 		strb	r3, [r0, #63]
 3033 0082 80F84330 		strb	r3, [r0, #67]
 3034 0086 0020     		movs	r0, #0
 3035 0088 7047     		bx	lr
 3036              	.L581:
 3037 008a 41F21111 		movw	r1, #4369
 3038 008e 1A6A     		ldr	r2, [r3, #32]
 3039 0090 22F00102 		bic	r2, r2, #1
 3040 0094 1A62     		str	r2, [r3, #32]
 3041 0096 1A6A     		ldr	r2, [r3, #32]
 3042 0098 1A62     		str	r2, [r3, #32]
 3043 009a 1A6A     		ldr	r2, [r3, #32]
 3044 009c 0A42     		tst	r2, r1
 3045 009e 08D1     		bne	.L585
 3046 00a0 40F24442 		movw	r2, #1092
 3047 00a4 196A     		ldr	r1, [r3, #32]
 3048 00a6 1142     		tst	r1, r2
 3049 00a8 03D1     		bne	.L585
 3050 00aa 1A68     		ldr	r2, [r3]
 3051 00ac 22F00102 		bic	r2, r2, #1
 3052 00b0 1A60     		str	r2, [r3]
 3053              	.L585:
 3054 00b2 0123     		movs	r3, #1
 3055 00b4 80F83E30 		strb	r3, [r0, #62]
 3056 00b8 80F84230 		strb	r3, [r0, #66]
 3057 00bc 0020     		movs	r0, #0
 3058 00be 7047     		bx	lr
 3060              		.section	.text.HAL_TIM_Encoder_Start_IT,"ax",%progbits
 3061              		.align	1
 3062              		.p2align 2,,3
 3063              		.global	HAL_TIM_Encoder_Start_IT
 3064              		.syntax unified
 3065              		.thumb
 3066              		.thumb_func
 3068              	HAL_TIM_Encoder_Start_IT:
 3069              		@ args = 0, pretend = 0, frame = 0
ARM GAS  /var/folders/td/83895s255bq6rlxfmrv9fnww0000gn/T//ccczYGAH.s 			page 53


 3070              		@ frame_needed = 0, uses_anonymous_args = 0
 3071 0000 0346     		mov	r3, r0
 3072 0002 00B5     		push	{lr}
 3073 0004 90F83E00 		ldrb	r0, [r0, #62]	@ zero_extendqisi2
 3074 0008 93F83F20 		ldrb	r2, [r3, #63]	@ zero_extendqisi2
 3075 000c 93F842C0 		ldrb	ip, [r3, #66]	@ zero_extendqisi2
 3076 0010 C0B2     		uxtb	r0, r0
 3077 0012 93F843E0 		ldrb	lr, [r3, #67]	@ zero_extendqisi2
 3078 0016 5FFA8CFC 		uxtb	ip, ip
 3079 001a F9B9     		cbnz	r1, .L597
 3080 001c 0128     		cmp	r0, #1
 3081 001e 02D0     		beq	.L608
 3082              	.L604:
 3083 0020 0120     		movs	r0, #1
 3084              	.L598:
 3085 0022 5DF804FB 		ldr	pc, [sp], #4
 3086              	.L608:
 3087 0026 BCF1010F 		cmp	ip, #1
 3088 002a FAD1     		bne	.L598
 3089 002c 0221     		movs	r1, #2
 3090 002e 1A68     		ldr	r2, [r3]
 3091 0030 83F83E10 		strb	r1, [r3, #62]
 3092 0034 83F84210 		strb	r1, [r3, #66]
 3093 0038 136A     		ldr	r3, [r2, #32]
 3094 003a 23F00103 		bic	r3, r3, #1
 3095 003e 1362     		str	r3, [r2, #32]
 3096 0040 136A     		ldr	r3, [r2, #32]
 3097 0042 43F00103 		orr	r3, r3, #1
 3098 0046 1362     		str	r3, [r2, #32]
 3099 0048 D368     		ldr	r3, [r2, #12]
 3100 004a 0B43     		orrs	r3, r3, r1
 3101 004c D360     		str	r3, [r2, #12]
 3102              	.L599:
 3103 004e 1368     		ldr	r3, [r2]
 3104 0050 0020     		movs	r0, #0
 3105 0052 43F00103 		orr	r3, r3, #1
 3106 0056 1360     		str	r3, [r2]
 3107 0058 5DF804FB 		ldr	pc, [sp], #4
 3108              	.L597:
 3109 005c 0429     		cmp	r1, #4
 3110 005e D2B2     		uxtb	r2, r2
 3111 0060 5FFA8EFE 		uxtb	lr, lr
 3112 0064 2BD0     		beq	.L609
 3113 0066 0128     		cmp	r0, #1
 3114 0068 DAD1     		bne	.L604
 3115 006a 012A     		cmp	r2, #1
 3116 006c D9D1     		bne	.L598
 3117 006e BCF1010F 		cmp	ip, #1
 3118 0072 D6D1     		bne	.L598
 3119 0074 BEF1010F 		cmp	lr, #1
 3120 0078 D3D1     		bne	.L598
 3121 007a 0221     		movs	r1, #2
 3122 007c 1A68     		ldr	r2, [r3]
 3123 007e 83F83E10 		strb	r1, [r3, #62]
 3124 0082 83F83F10 		strb	r1, [r3, #63]
 3125 0086 83F84210 		strb	r1, [r3, #66]
 3126 008a 83F84310 		strb	r1, [r3, #67]
ARM GAS  /var/folders/td/83895s255bq6rlxfmrv9fnww0000gn/T//ccczYGAH.s 			page 54


 3127 008e 136A     		ldr	r3, [r2, #32]
 3128 0090 23F00103 		bic	r3, r3, #1
 3129 0094 1362     		str	r3, [r2, #32]
 3130 0096 136A     		ldr	r3, [r2, #32]
 3131 0098 43F00103 		orr	r3, r3, #1
 3132 009c 1362     		str	r3, [r2, #32]
 3133 009e 136A     		ldr	r3, [r2, #32]
 3134 00a0 23F01003 		bic	r3, r3, #16
 3135 00a4 1362     		str	r3, [r2, #32]
 3136 00a6 136A     		ldr	r3, [r2, #32]
 3137 00a8 43F01003 		orr	r3, r3, #16
 3138 00ac 1362     		str	r3, [r2, #32]
 3139 00ae D368     		ldr	r3, [r2, #12]
 3140 00b0 0B43     		orrs	r3, r3, r1
 3141 00b2 D360     		str	r3, [r2, #12]
 3142 00b4 D368     		ldr	r3, [r2, #12]
 3143 00b6 43F00403 		orr	r3, r3, #4
 3144 00ba D360     		str	r3, [r2, #12]
 3145 00bc C7E7     		b	.L599
 3146              	.L609:
 3147 00be 012A     		cmp	r2, #1
 3148 00c0 AED1     		bne	.L604
 3149 00c2 BEF1010F 		cmp	lr, #1
 3150 00c6 ABD1     		bne	.L604
 3151 00c8 0221     		movs	r1, #2
 3152 00ca 1A68     		ldr	r2, [r3]
 3153 00cc 83F83F10 		strb	r1, [r3, #63]
 3154 00d0 83F84310 		strb	r1, [r3, #67]
 3155 00d4 136A     		ldr	r3, [r2, #32]
 3156 00d6 23F01003 		bic	r3, r3, #16
 3157 00da 1362     		str	r3, [r2, #32]
 3158 00dc 136A     		ldr	r3, [r2, #32]
 3159 00de 43F01003 		orr	r3, r3, #16
 3160 00e2 1362     		str	r3, [r2, #32]
 3161 00e4 D368     		ldr	r3, [r2, #12]
 3162 00e6 43F00403 		orr	r3, r3, #4
 3163 00ea D360     		str	r3, [r2, #12]
 3164 00ec AFE7     		b	.L599
 3166 00ee 00BF     		.section	.text.HAL_TIM_Encoder_Stop_IT,"ax",%progbits
 3167              		.align	1
 3168              		.p2align 2,,3
 3169              		.global	HAL_TIM_Encoder_Stop_IT
 3170              		.syntax unified
 3171              		.thumb
 3172              		.thumb_func
 3174              	HAL_TIM_Encoder_Stop_IT:
 3175              		@ args = 0, pretend = 0, frame = 0
 3176              		@ frame_needed = 0, uses_anonymous_args = 0
 3177              		@ link register save eliminated.
 3178 0000 0368     		ldr	r3, [r0]
 3179 0002 A9B9     		cbnz	r1, .L611
 3180 0004 41F21111 		movw	r1, #4369
 3181 0008 1A6A     		ldr	r2, [r3, #32]
 3182 000a 22F00102 		bic	r2, r2, #1
 3183 000e 1A62     		str	r2, [r3, #32]
 3184 0010 1A6A     		ldr	r2, [r3, #32]
 3185 0012 1A62     		str	r2, [r3, #32]
ARM GAS  /var/folders/td/83895s255bq6rlxfmrv9fnww0000gn/T//ccczYGAH.s 			page 55


 3186 0014 DA68     		ldr	r2, [r3, #12]
 3187 0016 22F00202 		bic	r2, r2, #2
 3188 001a DA60     		str	r2, [r3, #12]
 3189 001c 1A6A     		ldr	r2, [r3, #32]
 3190 001e 0A42     		tst	r2, r1
 3191 0020 35D0     		beq	.L612
 3192              	.L613:
 3193 0022 0123     		movs	r3, #1
 3194 0024 80F83E30 		strb	r3, [r0, #62]
 3195 0028 80F84230 		strb	r3, [r0, #66]
 3196 002c 0020     		movs	r0, #0
 3197 002e 7047     		bx	lr
 3198              	.L611:
 3199 0030 0429     		cmp	r1, #4
 3200 0032 1A6A     		ldr	r2, [r3, #32]
 3201 0034 41F21111 		movw	r1, #4369
 3202 0038 33D0     		beq	.L624
 3203 003a 22F00102 		bic	r2, r2, #1
 3204 003e 1A62     		str	r2, [r3, #32]
 3205 0040 1A6A     		ldr	r2, [r3, #32]
 3206 0042 1A62     		str	r2, [r3, #32]
 3207 0044 1A6A     		ldr	r2, [r3, #32]
 3208 0046 22F01002 		bic	r2, r2, #16
 3209 004a 1A62     		str	r2, [r3, #32]
 3210 004c 1A6A     		ldr	r2, [r3, #32]
 3211 004e 1A62     		str	r2, [r3, #32]
 3212 0050 DA68     		ldr	r2, [r3, #12]
 3213 0052 22F00202 		bic	r2, r2, #2
 3214 0056 DA60     		str	r2, [r3, #12]
 3215 0058 DA68     		ldr	r2, [r3, #12]
 3216 005a 22F00402 		bic	r2, r2, #4
 3217 005e DA60     		str	r2, [r3, #12]
 3218 0060 1A6A     		ldr	r2, [r3, #32]
 3219 0062 0A42     		tst	r2, r1
 3220 0064 08D1     		bne	.L618
 3221 0066 40F24442 		movw	r2, #1092
 3222 006a 196A     		ldr	r1, [r3, #32]
 3223 006c 1142     		tst	r1, r2
 3224 006e 03D1     		bne	.L618
 3225 0070 1A68     		ldr	r2, [r3]
 3226 0072 22F00102 		bic	r2, r2, #1
 3227 0076 1A60     		str	r2, [r3]
 3228              	.L618:
 3229 0078 0123     		movs	r3, #1
 3230 007a 80F83E30 		strb	r3, [r0, #62]
 3231 007e 80F83F30 		strb	r3, [r0, #63]
 3232 0082 80F84230 		strb	r3, [r0, #66]
 3233 0086 80F84330 		strb	r3, [r0, #67]
 3234 008a 0020     		movs	r0, #0
 3235 008c 7047     		bx	lr
 3236              	.L612:
 3237 008e 40F24442 		movw	r2, #1092
 3238 0092 196A     		ldr	r1, [r3, #32]
 3239 0094 1142     		tst	r1, r2
 3240 0096 C4D1     		bne	.L613
 3241 0098 1A68     		ldr	r2, [r3]
 3242 009a 22F00102 		bic	r2, r2, #1
ARM GAS  /var/folders/td/83895s255bq6rlxfmrv9fnww0000gn/T//ccczYGAH.s 			page 56


 3243 009e 1A60     		str	r2, [r3]
 3244 00a0 BFE7     		b	.L613
 3245              	.L624:
 3246 00a2 22F01002 		bic	r2, r2, #16
 3247 00a6 1A62     		str	r2, [r3, #32]
 3248 00a8 1A6A     		ldr	r2, [r3, #32]
 3249 00aa 1A62     		str	r2, [r3, #32]
 3250 00ac DA68     		ldr	r2, [r3, #12]
 3251 00ae 22F00402 		bic	r2, r2, #4
 3252 00b2 DA60     		str	r2, [r3, #12]
 3253 00b4 1A6A     		ldr	r2, [r3, #32]
 3254 00b6 0A42     		tst	r2, r1
 3255 00b8 08D1     		bne	.L616
 3256 00ba 40F24442 		movw	r2, #1092
 3257 00be 196A     		ldr	r1, [r3, #32]
 3258 00c0 1142     		tst	r1, r2
 3259 00c2 03D1     		bne	.L616
 3260 00c4 1A68     		ldr	r2, [r3]
 3261 00c6 22F00102 		bic	r2, r2, #1
 3262 00ca 1A60     		str	r2, [r3]
 3263              	.L616:
 3264 00cc 0123     		movs	r3, #1
 3265 00ce 80F83F30 		strb	r3, [r0, #63]
 3266 00d2 80F84330 		strb	r3, [r0, #67]
 3267 00d6 0020     		movs	r0, #0
 3268 00d8 7047     		bx	lr
 3270 00da 00BF     		.section	.text.HAL_TIM_Encoder_Start_DMA,"ax",%progbits
 3271              		.align	1
 3272              		.p2align 2,,3
 3273              		.global	HAL_TIM_Encoder_Start_DMA
 3274              		.syntax unified
 3275              		.thumb
 3276              		.thumb_func
 3278              	HAL_TIM_Encoder_Start_DMA:
 3279              		@ args = 4, pretend = 0, frame = 0
 3280              		@ frame_needed = 0, uses_anonymous_args = 0
 3281 0000 2DE9F843 		push	{r3, r4, r5, r6, r7, r8, r9, lr}
 3282 0004 0446     		mov	r4, r0
 3283 0006 1D46     		mov	r5, r3
 3284 0008 90F83E00 		ldrb	r0, [r0, #62]	@ zero_extendqisi2
 3285 000c 94F83F30 		ldrb	r3, [r4, #63]	@ zero_extendqisi2
 3286 0010 94F842C0 		ldrb	ip, [r4, #66]	@ zero_extendqisi2
 3287 0014 BDF82060 		ldrh	r6, [sp, #32]
 3288 0018 94F843E0 		ldrb	lr, [r4, #67]	@ zero_extendqisi2
 3289 001c C0B2     		uxtb	r0, r0
 3290 001e 5FFA8CFC 		uxtb	ip, ip
 3291 0022 0029     		cmp	r1, #0
 3292 0024 32D1     		bne	.L626
 3293 0026 0228     		cmp	r0, #2
 3294 0028 45D0     		beq	.L627
 3295 002a BCF1020F 		cmp	ip, #2
 3296 002e 6DD0     		beq	.L639
 3297 0030 0128     		cmp	r0, #1
 3298 0032 3FD1     		bne	.L629
 3299 0034 BCF1010F 		cmp	ip, #1
 3300 0038 3CD1     		bne	.L629
 3301 003a 002A     		cmp	r2, #0
ARM GAS  /var/folders/td/83895s255bq6rlxfmrv9fnww0000gn/T//ccczYGAH.s 			page 57


 3302 003c 3AD0     		beq	.L629
 3303 003e 002E     		cmp	r6, #0
 3304 0040 38D0     		beq	.L629
 3305 0042 0225     		movs	r5, #2
 3306 0044 2168     		ldr	r1, [r4]
 3307 0046 606A     		ldr	r0, [r4, #36]
 3308 0048 3346     		mov	r3, r6
 3309 004a DFF870C1 		ldr	ip, .L675
 3310 004e 5C4F     		ldr	r7, .L675+4
 3311 0050 5C4E     		ldr	r6, .L675+8
 3312 0052 84F83E50 		strb	r5, [r4, #62]
 3313 0056 3431     		adds	r1, r1, #52
 3314 0058 84F84250 		strb	r5, [r4, #66]
 3315 005c C0E90AC7 		strd	ip, r7, [r0, #40]
 3316 0060 0663     		str	r6, [r0, #48]
 3317 0062 FFF7FEFF 		bl	HAL_DMA_Start_IT
 3318 0066 28BB     		cbnz	r0, .L629
 3319 0068 2368     		ldr	r3, [r4]
 3320 006a DA68     		ldr	r2, [r3, #12]
 3321 006c 42F40072 		orr	r2, r2, #512
 3322 0070 DA60     		str	r2, [r3, #12]
 3323 0072 1A6A     		ldr	r2, [r3, #32]
 3324 0074 22F00102 		bic	r2, r2, #1
 3325 0078 1A62     		str	r2, [r3, #32]
 3326 007a 1A6A     		ldr	r2, [r3, #32]
 3327 007c 42F00102 		orr	r2, r2, #1
 3328 0080 1A62     		str	r2, [r3, #32]
 3329 0082 1A68     		ldr	r2, [r3]
 3330 0084 42F00102 		orr	r2, r2, #1
 3331 0088 1A60     		str	r2, [r3]
 3332 008a 92E0     		b	.L634
 3333              	.L626:
 3334 008c 0429     		cmp	r1, #4
 3335 008e DBB2     		uxtb	r3, r3
 3336 0090 5FFA8EFE 		uxtb	lr, lr
 3337 0094 11D0     		beq	.L673
 3338 0096 0228     		cmp	r0, #2
 3339 0098 0DD0     		beq	.L627
 3340 009a 022B     		cmp	r3, #2
 3341 009c 38D0     		beq	.L638
 3342 009e BCF1020F 		cmp	ip, #2
 3343 00a2 33D0     		beq	.L639
 3344 00a4 BEF1020F 		cmp	lr, #2
 3345 00a8 00F08580 		beq	.L640
 3346 00ac 0128     		cmp	r0, #1
 3347 00ae 01D1     		bne	.L629
 3348 00b0 012B     		cmp	r3, #1
 3349 00b2 2FD0     		beq	.L674
 3350              	.L629:
 3351 00b4 0120     		movs	r0, #1
 3352              	.L627:
 3353 00b6 BDE8F883 		pop	{r3, r4, r5, r6, r7, r8, r9, pc}
 3354              	.L673:
 3355 00ba 022B     		cmp	r3, #2
 3356 00bc 28D0     		beq	.L638
 3357 00be BEF1020F 		cmp	lr, #2
 3358 00c2 78D0     		beq	.L640
ARM GAS  /var/folders/td/83895s255bq6rlxfmrv9fnww0000gn/T//ccczYGAH.s 			page 58


 3359 00c4 012B     		cmp	r3, #1
 3360 00c6 F5D1     		bne	.L629
 3361 00c8 BEF1010F 		cmp	lr, #1
 3362 00cc F2D1     		bne	.L629
 3363 00ce 002D     		cmp	r5, #0
 3364 00d0 F0D0     		beq	.L629
 3365 00d2 002E     		cmp	r6, #0
 3366 00d4 EED0     		beq	.L629
 3367 00d6 0227     		movs	r7, #2
 3368 00d8 2168     		ldr	r1, [r4]
 3369 00da A06A     		ldr	r0, [r4, #40]
 3370 00dc 3346     		mov	r3, r6
 3371 00de 2A46     		mov	r2, r5
 3372 00e0 DFF8D8C0 		ldr	ip, .L675
 3373 00e4 364E     		ldr	r6, .L675+4
 3374 00e6 374D     		ldr	r5, .L675+8
 3375 00e8 84F83F70 		strb	r7, [r4, #63]
 3376 00ec 3831     		adds	r1, r1, #56
 3377 00ee 84F84370 		strb	r7, [r4, #67]
 3378 00f2 C0E90AC6 		strd	ip, r6, [r0, #40]
 3379 00f6 0563     		str	r5, [r0, #48]
 3380 00f8 FFF7FEFF 		bl	HAL_DMA_Start_IT
 3381 00fc 0028     		cmp	r0, #0
 3382 00fe D9D1     		bne	.L629
 3383 0100 2368     		ldr	r3, [r4]
 3384 0102 DA68     		ldr	r2, [r3, #12]
 3385 0104 42F48062 		orr	r2, r2, #1024
 3386 0108 DA60     		str	r2, [r3, #12]
 3387 010a 46E0     		b	.L672
 3388              	.L639:
 3389 010c 6046     		mov	r0, ip
 3390 010e D2E7     		b	.L627
 3391              	.L638:
 3392 0110 1846     		mov	r0, r3
 3393 0112 D0E7     		b	.L627
 3394              	.L674:
 3395 0114 BCF1010F 		cmp	ip, #1
 3396 0118 CCD1     		bne	.L629
 3397 011a BEF1010F 		cmp	lr, #1
 3398 011e C9D1     		bne	.L629
 3399 0120 002A     		cmp	r2, #0
 3400 0122 C7D0     		beq	.L629
 3401 0124 002D     		cmp	r5, #0
 3402 0126 C5D0     		beq	.L629
 3403 0128 002E     		cmp	r6, #0
 3404 012a C3D0     		beq	.L629
 3405 012c 4FF0020C 		mov	ip, #2
 3406 0130 2168     		ldr	r1, [r4]
 3407 0132 606A     		ldr	r0, [r4, #36]
 3408 0134 DFF88490 		ldr	r9, .L675
 3409 0138 DFF88480 		ldr	r8, .L675+4
 3410 013c 214F     		ldr	r7, .L675+8
 3411 013e 84F83EC0 		strb	ip, [r4, #62]
 3412 0142 3346     		mov	r3, r6
 3413 0144 84F83FC0 		strb	ip, [r4, #63]
 3414 0148 3431     		adds	r1, r1, #52
 3415 014a 84F842C0 		strb	ip, [r4, #66]
ARM GAS  /var/folders/td/83895s255bq6rlxfmrv9fnww0000gn/T//ccczYGAH.s 			page 59


 3416 014e 84F843C0 		strb	ip, [r4, #67]
 3417 0152 C0E90A98 		strd	r9, r8, [r0, #40]
 3418 0156 0763     		str	r7, [r0, #48]
 3419 0158 FFF7FEFF 		bl	HAL_DMA_Start_IT
 3420 015c 0028     		cmp	r0, #0
 3421 015e A9D1     		bne	.L629
 3422 0160 A06A     		ldr	r0, [r4, #40]
 3423 0162 2168     		ldr	r1, [r4]
 3424 0164 3346     		mov	r3, r6
 3425 0166 2A46     		mov	r2, r5
 3426 0168 C0E90A98 		strd	r9, r8, [r0, #40]
 3427 016c 0763     		str	r7, [r0, #48]
 3428 016e 3831     		adds	r1, r1, #56
 3429 0170 FFF7FEFF 		bl	HAL_DMA_Start_IT
 3430 0174 0028     		cmp	r0, #0
 3431 0176 9DD1     		bne	.L629
 3432 0178 2368     		ldr	r3, [r4]
 3433 017a DA68     		ldr	r2, [r3, #12]
 3434 017c 42F40072 		orr	r2, r2, #512
 3435 0180 DA60     		str	r2, [r3, #12]
 3436 0182 DA68     		ldr	r2, [r3, #12]
 3437 0184 42F48062 		orr	r2, r2, #1024
 3438 0188 DA60     		str	r2, [r3, #12]
 3439 018a 1A6A     		ldr	r2, [r3, #32]
 3440 018c 22F00102 		bic	r2, r2, #1
 3441 0190 1A62     		str	r2, [r3, #32]
 3442 0192 1A6A     		ldr	r2, [r3, #32]
 3443 0194 42F00102 		orr	r2, r2, #1
 3444 0198 1A62     		str	r2, [r3, #32]
 3445              	.L672:
 3446 019a 1A6A     		ldr	r2, [r3, #32]
 3447 019c 22F01002 		bic	r2, r2, #16
 3448 01a0 1A62     		str	r2, [r3, #32]
 3449 01a2 1A6A     		ldr	r2, [r3, #32]
 3450 01a4 42F01002 		orr	r2, r2, #16
 3451 01a8 1A62     		str	r2, [r3, #32]
 3452 01aa 1A68     		ldr	r2, [r3]
 3453 01ac 42F00102 		orr	r2, r2, #1
 3454 01b0 1A60     		str	r2, [r3]
 3455              	.L634:
 3456 01b2 0020     		movs	r0, #0
 3457 01b4 7FE7     		b	.L627
 3458              	.L640:
 3459 01b6 7046     		mov	r0, lr
 3460 01b8 7DE7     		b	.L627
 3461              	.L676:
 3462 01ba 00BF     		.align	2
 3463              	.L675:
 3464 01bc 00000000 		.word	TIM_DMACaptureCplt
 3465 01c0 00000000 		.word	TIM_DMACaptureHalfCplt
 3466 01c4 00000000 		.word	TIM_DMAError
 3468              		.section	.text.HAL_TIM_Encoder_Stop_DMA,"ax",%progbits
 3469              		.align	1
 3470              		.p2align 2,,3
 3471              		.global	HAL_TIM_Encoder_Stop_DMA
 3472              		.syntax unified
 3473              		.thumb
ARM GAS  /var/folders/td/83895s255bq6rlxfmrv9fnww0000gn/T//ccczYGAH.s 			page 60


 3474              		.thumb_func
 3476              	HAL_TIM_Encoder_Stop_DMA:
 3477              		@ args = 0, pretend = 0, frame = 0
 3478              		@ frame_needed = 0, uses_anonymous_args = 0
 3479 0000 0368     		ldr	r3, [r0]
 3480 0002 10B5     		push	{r4, lr}
 3481 0004 1A6A     		ldr	r2, [r3, #32]
 3482 0006 0446     		mov	r4, r0
 3483 0008 0029     		cmp	r1, #0
 3484 000a 52D0     		beq	.L692
 3485 000c 0429     		cmp	r1, #4
 3486 000e 2ED0     		beq	.L693
 3487 0010 22F00102 		bic	r2, r2, #1
 3488 0014 406A     		ldr	r0, [r0, #36]
 3489 0016 1A62     		str	r2, [r3, #32]
 3490 0018 1A6A     		ldr	r2, [r3, #32]
 3491 001a 1A62     		str	r2, [r3, #32]
 3492 001c 1A6A     		ldr	r2, [r3, #32]
 3493 001e 22F01002 		bic	r2, r2, #16
 3494 0022 1A62     		str	r2, [r3, #32]
 3495 0024 1A6A     		ldr	r2, [r3, #32]
 3496 0026 1A62     		str	r2, [r3, #32]
 3497 0028 DA68     		ldr	r2, [r3, #12]
 3498 002a 22F40072 		bic	r2, r2, #512
 3499 002e DA60     		str	r2, [r3, #12]
 3500 0030 DA68     		ldr	r2, [r3, #12]
 3501 0032 22F48062 		bic	r2, r2, #1024
 3502 0036 DA60     		str	r2, [r3, #12]
 3503 0038 FFF7FEFF 		bl	HAL_DMA_Abort_IT
 3504 003c A06A     		ldr	r0, [r4, #40]
 3505 003e FFF7FEFF 		bl	HAL_DMA_Abort_IT
 3506 0042 41F21112 		movw	r2, #4369
 3507 0046 2368     		ldr	r3, [r4]
 3508 0048 196A     		ldr	r1, [r3, #32]
 3509 004a 1142     		tst	r1, r2
 3510 004c 04D1     		bne	.L685
 3511 004e 40F24442 		movw	r2, #1092
 3512 0052 196A     		ldr	r1, [r3, #32]
 3513 0054 1142     		tst	r1, r2
 3514 0056 4ED0     		beq	.L694
 3515              	.L685:
 3516 0058 0123     		movs	r3, #1
 3517 005a 84F83E30 		strb	r3, [r4, #62]
 3518 005e 84F83F30 		strb	r3, [r4, #63]
 3519 0062 84F84230 		strb	r3, [r4, #66]
 3520 0066 84F84330 		strb	r3, [r4, #67]
 3521 006a 0020     		movs	r0, #0
 3522 006c 10BD     		pop	{r4, pc}
 3523              	.L693:
 3524 006e 22F01002 		bic	r2, r2, #16
 3525 0072 806A     		ldr	r0, [r0, #40]
 3526 0074 1A62     		str	r2, [r3, #32]
 3527 0076 1A6A     		ldr	r2, [r3, #32]
 3528 0078 1A62     		str	r2, [r3, #32]
 3529 007a DA68     		ldr	r2, [r3, #12]
 3530 007c 22F48062 		bic	r2, r2, #1024
 3531 0080 DA60     		str	r2, [r3, #12]
ARM GAS  /var/folders/td/83895s255bq6rlxfmrv9fnww0000gn/T//ccczYGAH.s 			page 61


 3532 0082 FFF7FEFF 		bl	HAL_DMA_Abort_IT
 3533 0086 41F21112 		movw	r2, #4369
 3534 008a 2368     		ldr	r3, [r4]
 3535 008c 196A     		ldr	r1, [r3, #32]
 3536 008e 1142     		tst	r1, r2
 3537 0090 08D1     		bne	.L683
 3538 0092 40F24442 		movw	r2, #1092
 3539 0096 196A     		ldr	r1, [r3, #32]
 3540 0098 1142     		tst	r1, r2
 3541 009a 03D1     		bne	.L683
 3542 009c 1A68     		ldr	r2, [r3]
 3543 009e 22F00102 		bic	r2, r2, #1
 3544 00a2 1A60     		str	r2, [r3]
 3545              	.L683:
 3546 00a4 0123     		movs	r3, #1
 3547 00a6 84F83F30 		strb	r3, [r4, #63]
 3548 00aa 84F84330 		strb	r3, [r4, #67]
 3549 00ae 0020     		movs	r0, #0
 3550 00b0 10BD     		pop	{r4, pc}
 3551              	.L692:
 3552 00b2 22F00102 		bic	r2, r2, #1
 3553 00b6 406A     		ldr	r0, [r0, #36]
 3554 00b8 1A62     		str	r2, [r3, #32]
 3555 00ba 1A6A     		ldr	r2, [r3, #32]
 3556 00bc 1A62     		str	r2, [r3, #32]
 3557 00be DA68     		ldr	r2, [r3, #12]
 3558 00c0 22F40072 		bic	r2, r2, #512
 3559 00c4 DA60     		str	r2, [r3, #12]
 3560 00c6 FFF7FEFF 		bl	HAL_DMA_Abort_IT
 3561 00ca 41F21112 		movw	r2, #4369
 3562 00ce 2368     		ldr	r3, [r4]
 3563 00d0 196A     		ldr	r1, [r3, #32]
 3564 00d2 1142     		tst	r1, r2
 3565 00d4 08D1     		bne	.L680
 3566 00d6 40F24442 		movw	r2, #1092
 3567 00da 196A     		ldr	r1, [r3, #32]
 3568 00dc 1142     		tst	r1, r2
 3569 00de 03D1     		bne	.L680
 3570 00e0 1A68     		ldr	r2, [r3]
 3571 00e2 22F00102 		bic	r2, r2, #1
 3572 00e6 1A60     		str	r2, [r3]
 3573              	.L680:
 3574 00e8 0123     		movs	r3, #1
 3575 00ea 84F83E30 		strb	r3, [r4, #62]
 3576 00ee 84F84230 		strb	r3, [r4, #66]
 3577 00f2 0020     		movs	r0, #0
 3578 00f4 10BD     		pop	{r4, pc}
 3579              	.L694:
 3580 00f6 1A68     		ldr	r2, [r3]
 3581 00f8 22F00102 		bic	r2, r2, #1
 3582 00fc 1A60     		str	r2, [r3]
 3583 00fe ABE7     		b	.L685
 3585              		.section	.text.HAL_TIM_DMABurst_MultiWriteStart,"ax",%progbits
 3586              		.align	1
 3587              		.p2align 2,,3
 3588              		.global	HAL_TIM_DMABurst_MultiWriteStart
 3589              		.syntax unified
ARM GAS  /var/folders/td/83895s255bq6rlxfmrv9fnww0000gn/T//ccczYGAH.s 			page 62


 3590              		.thumb
 3591              		.thumb_func
 3593              	HAL_TIM_DMABurst_MultiWriteStart:
 3594              		@ args = 8, pretend = 0, frame = 0
 3595              		@ frame_needed = 0, uses_anonymous_args = 0
 3596 0000 70B5     		push	{r4, r5, r6, lr}
 3597 0002 0E46     		mov	r6, r1
 3598 0004 1946     		mov	r1, r3
 3599 0006 90F84630 		ldrb	r3, [r0, #70]	@ zero_extendqisi2
 3600 000a 0446     		mov	r4, r0
 3601 000c 022B     		cmp	r3, #2
 3602 000e D8B2     		uxtb	r0, r3
 3603 0010 27D0     		beq	.L696
 3604 0012 94F84630 		ldrb	r3, [r4, #70]	@ zero_extendqisi2
 3605 0016 1546     		mov	r5, r2
 3606 0018 012B     		cmp	r3, #1
 3607 001a 31D0     		beq	.L718
 3608 001c B5F5006F 		cmp	r5, #2048
 3609 0020 35D0     		beq	.L700
 3610              	.L720:
 3611 0022 1FD8     		bhi	.L701
 3612 0024 B5F5007F 		cmp	r5, #512
 3613 0028 40D0     		beq	.L702
 3614 002a B5F5806F 		cmp	r5, #1024
 3615 002e 38D0     		beq	.L703
 3616 0030 B5F5807F 		cmp	r5, #256
 3617 0034 47D1     		bne	.L699
 3618 0036 254B     		ldr	r3, .L721
 3619 0038 206A     		ldr	r0, [r4, #32]
 3620 003a 8362     		str	r3, [r0, #40]
 3621 003c 244B     		ldr	r3, .L721+4
 3622              	.L717:
 3623 003e 2268     		ldr	r2, [r4]
 3624 0040 C362     		str	r3, [r0, #44]
 3625 0042 244B     		ldr	r3, .L721+8
 3626 0044 4C32     		adds	r2, r2, #76
 3627 0046 0363     		str	r3, [r0, #48]
 3628 0048 059B     		ldr	r3, [sp, #20]
 3629 004a FFF7FEFF 		bl	HAL_DMA_Start_IT
 3630 004e 0028     		cmp	r0, #0
 3631 0050 39D1     		bne	.L699
 3632 0052 0020     		movs	r0, #0
 3633 0054 049A     		ldr	r2, [sp, #16]
 3634 0056 2368     		ldr	r3, [r4]
 3635 0058 1643     		orrs	r6, r6, r2
 3636 005a 9E64     		str	r6, [r3, #72]
 3637 005c DA68     		ldr	r2, [r3, #12]
 3638 005e 2A43     		orrs	r2, r2, r5
 3639 0060 DA60     		str	r2, [r3, #12]
 3640              	.L696:
 3641 0062 70BD     		pop	{r4, r5, r6, pc}
 3642              	.L701:
 3643 0064 B5F5005F 		cmp	r5, #8192
 3644 0068 25D0     		beq	.L705
 3645 006a B5F5804F 		cmp	r5, #16384
 3646 006e 13D0     		beq	.L706
 3647 0070 B5F5805F 		cmp	r5, #4096
ARM GAS  /var/folders/td/83895s255bq6rlxfmrv9fnww0000gn/T//ccczYGAH.s 			page 63


 3648 0074 27D1     		bne	.L699
 3649 0076 184B     		ldr	r3, .L721+12
 3650 0078 206B     		ldr	r0, [r4, #48]
 3651 007a 8362     		str	r3, [r0, #40]
 3652 007c 174B     		ldr	r3, .L721+16
 3653 007e DEE7     		b	.L717
 3654              	.L718:
 3655 0080 F1B1     		cbz	r1, .L719
 3656              	.L698:
 3657 0082 0223     		movs	r3, #2
 3658 0084 B5F5006F 		cmp	r5, #2048
 3659 0088 84F84630 		strb	r3, [r4, #70]
 3660 008c C9D1     		bne	.L720
 3661              	.L700:
 3662 008e 124B     		ldr	r3, .L721+12
 3663 0090 E06A     		ldr	r0, [r4, #44]
 3664 0092 8362     		str	r3, [r0, #40]
 3665 0094 114B     		ldr	r3, .L721+16
 3666 0096 D2E7     		b	.L717
 3667              	.L706:
 3668 0098 114B     		ldr	r3, .L721+20
 3669 009a A06B     		ldr	r0, [r4, #56]
 3670 009c 8362     		str	r3, [r0, #40]
 3671 009e 114B     		ldr	r3, .L721+24
 3672 00a0 CDE7     		b	.L717
 3673              	.L703:
 3674 00a2 0D4B     		ldr	r3, .L721+12
 3675 00a4 A06A     		ldr	r0, [r4, #40]
 3676 00a6 8362     		str	r3, [r0, #40]
 3677 00a8 0C4B     		ldr	r3, .L721+16
 3678 00aa C8E7     		b	.L717
 3679              	.L702:
 3680 00ac 0A4B     		ldr	r3, .L721+12
 3681 00ae 606A     		ldr	r0, [r4, #36]
 3682 00b0 8362     		str	r3, [r0, #40]
 3683 00b2 0A4B     		ldr	r3, .L721+16
 3684 00b4 C3E7     		b	.L717
 3685              	.L705:
 3686 00b6 0C4B     		ldr	r3, .L721+28
 3687 00b8 606B     		ldr	r0, [r4, #52]
 3688 00ba 8362     		str	r3, [r0, #40]
 3689 00bc 0B4B     		ldr	r3, .L721+32
 3690 00be BEE7     		b	.L717
 3691              	.L719:
 3692 00c0 049B     		ldr	r3, [sp, #16]
 3693 00c2 002B     		cmp	r3, #0
 3694 00c4 DDD0     		beq	.L698
 3695              	.L699:
 3696 00c6 0120     		movs	r0, #1
 3697 00c8 70BD     		pop	{r4, r5, r6, pc}
 3698              	.L722:
 3699 00ca 00BF     		.align	2
 3700              	.L721:
 3701 00cc 00000000 		.word	TIM_DMAPeriodElapsedCplt
 3702 00d0 00000000 		.word	TIM_DMAPeriodElapsedHalfCplt
 3703 00d4 00000000 		.word	TIM_DMAError
 3704 00d8 00000000 		.word	TIM_DMADelayPulseCplt
ARM GAS  /var/folders/td/83895s255bq6rlxfmrv9fnww0000gn/T//ccczYGAH.s 			page 64


 3705 00dc 00000000 		.word	TIM_DMADelayPulseHalfCplt
 3706 00e0 00000000 		.word	TIM_DMATriggerCplt
 3707 00e4 00000000 		.word	TIM_DMATriggerHalfCplt
 3708 00e8 00000000 		.word	TIMEx_DMACommutationCplt
 3709 00ec 00000000 		.word	TIMEx_DMACommutationHalfCplt
 3711              		.section	.text.HAL_TIM_DMABurst_WriteStart,"ax",%progbits
 3712              		.align	1
 3713              		.p2align 2,,3
 3714              		.global	HAL_TIM_DMABurst_WriteStart
 3715              		.syntax unified
 3716              		.thumb
 3717              		.thumb_func
 3719              	HAL_TIM_DMABurst_WriteStart:
 3720              		@ args = 4, pretend = 0, frame = 0
 3721              		@ frame_needed = 0, uses_anonymous_args = 0
 3722 0000 10B5     		push	{r4, lr}
 3723 0002 82B0     		sub	sp, sp, #8
 3724 0004 049C     		ldr	r4, [sp, #16]
 3725 0006 0094     		str	r4, [sp]
 3726 0008 240A     		lsrs	r4, r4, #8
 3727 000a 0134     		adds	r4, r4, #1
 3728 000c 0194     		str	r4, [sp, #4]
 3729 000e FFF7FEFF 		bl	HAL_TIM_DMABurst_MultiWriteStart
 3730 0012 02B0     		add	sp, sp, #8
 3731              		@ sp needed
 3732 0014 10BD     		pop	{r4, pc}
 3734 0016 00BF     		.section	.text.HAL_TIM_DMABurst_WriteStop,"ax",%progbits
 3735              		.align	1
 3736              		.p2align 2,,3
 3737              		.global	HAL_TIM_DMABurst_WriteStop
 3738              		.syntax unified
 3739              		.thumb
 3740              		.thumb_func
 3742              	HAL_TIM_DMABurst_WriteStop:
 3743              		@ args = 0, pretend = 0, frame = 0
 3744              		@ frame_needed = 0, uses_anonymous_args = 0
 3745 0000 B1F5006F 		cmp	r1, #2048
 3746 0004 38B5     		push	{r3, r4, r5, lr}
 3747 0006 0C46     		mov	r4, r1
 3748 0008 0546     		mov	r5, r0
 3749 000a 2FD0     		beq	.L726
 3750 000c 15D8     		bhi	.L727
 3751 000e B1F5007F 		cmp	r1, #512
 3752 0012 27D0     		beq	.L728
 3753 0014 B1F5806F 		cmp	r1, #1024
 3754 0018 20D0     		beq	.L729
 3755 001a B1F5807F 		cmp	r1, #256
 3756 001e 29D1     		bne	.L737
 3757 0020 006A     		ldr	r0, [r0, #32]
 3758 0022 FFF7FEFF 		bl	HAL_DMA_Abort_IT
 3759              	.L735:
 3760 0026 0121     		movs	r1, #1
 3761 0028 2A68     		ldr	r2, [r5]
 3762 002a 0020     		movs	r0, #0
 3763 002c D368     		ldr	r3, [r2, #12]
 3764 002e 23EA0403 		bic	r3, r3, r4
 3765 0032 D360     		str	r3, [r2, #12]
ARM GAS  /var/folders/td/83895s255bq6rlxfmrv9fnww0000gn/T//ccczYGAH.s 			page 65


 3766 0034 85F84610 		strb	r1, [r5, #70]
 3767 0038 38BD     		pop	{r3, r4, r5, pc}
 3768              	.L727:
 3769 003a B1F5005F 		cmp	r1, #8192
 3770 003e 1BD0     		beq	.L732
 3771 0040 B1F5804F 		cmp	r1, #16384
 3772 0044 06D0     		beq	.L733
 3773 0046 B1F5805F 		cmp	r1, #4096
 3774 004a 13D1     		bne	.L737
 3775 004c 006B     		ldr	r0, [r0, #48]
 3776 004e FFF7FEFF 		bl	HAL_DMA_Abort_IT
 3777 0052 E8E7     		b	.L735
 3778              	.L733:
 3779 0054 806B     		ldr	r0, [r0, #56]
 3780 0056 FFF7FEFF 		bl	HAL_DMA_Abort_IT
 3781 005a E4E7     		b	.L735
 3782              	.L729:
 3783 005c 806A     		ldr	r0, [r0, #40]
 3784 005e FFF7FEFF 		bl	HAL_DMA_Abort_IT
 3785 0062 E0E7     		b	.L735
 3786              	.L728:
 3787 0064 406A     		ldr	r0, [r0, #36]
 3788 0066 FFF7FEFF 		bl	HAL_DMA_Abort_IT
 3789 006a DCE7     		b	.L735
 3790              	.L726:
 3791 006c C06A     		ldr	r0, [r0, #44]
 3792 006e FFF7FEFF 		bl	HAL_DMA_Abort_IT
 3793 0072 D8E7     		b	.L735
 3794              	.L737:
 3795 0074 0120     		movs	r0, #1
 3796 0076 38BD     		pop	{r3, r4, r5, pc}
 3797              	.L732:
 3798 0078 406B     		ldr	r0, [r0, #52]
 3799 007a FFF7FEFF 		bl	HAL_DMA_Abort_IT
 3800 007e D2E7     		b	.L735
 3802              		.section	.text.HAL_TIM_DMABurst_MultiReadStart,"ax",%progbits
 3803              		.align	1
 3804              		.p2align 2,,3
 3805              		.global	HAL_TIM_DMABurst_MultiReadStart
 3806              		.syntax unified
 3807              		.thumb
 3808              		.thumb_func
 3810              	HAL_TIM_DMABurst_MultiReadStart:
 3811              		@ args = 8, pretend = 0, frame = 0
 3812              		@ frame_needed = 0, uses_anonymous_args = 0
 3813 0000 70B5     		push	{r4, r5, r6, lr}
 3814 0002 1546     		mov	r5, r2
 3815 0004 1A46     		mov	r2, r3
 3816 0006 90F84630 		ldrb	r3, [r0, #70]	@ zero_extendqisi2
 3817 000a 0446     		mov	r4, r0
 3818 000c 022B     		cmp	r3, #2
 3819 000e D8B2     		uxtb	r0, r3
 3820 0010 27D0     		beq	.L739
 3821 0012 94F84630 		ldrb	r3, [r4, #70]	@ zero_extendqisi2
 3822 0016 0E46     		mov	r6, r1
 3823 0018 012B     		cmp	r3, #1
 3824 001a 31D0     		beq	.L761
ARM GAS  /var/folders/td/83895s255bq6rlxfmrv9fnww0000gn/T//ccczYGAH.s 			page 66


 3825 001c B5F5006F 		cmp	r5, #2048
 3826 0020 35D0     		beq	.L743
 3827              	.L763:
 3828 0022 1FD8     		bhi	.L744
 3829 0024 B5F5007F 		cmp	r5, #512
 3830 0028 40D0     		beq	.L745
 3831 002a B5F5806F 		cmp	r5, #1024
 3832 002e 38D0     		beq	.L746
 3833 0030 B5F5807F 		cmp	r5, #256
 3834 0034 47D1     		bne	.L742
 3835 0036 254B     		ldr	r3, .L764
 3836 0038 206A     		ldr	r0, [r4, #32]
 3837 003a 8362     		str	r3, [r0, #40]
 3838 003c 244B     		ldr	r3, .L764+4
 3839              	.L760:
 3840 003e 2168     		ldr	r1, [r4]
 3841 0040 C362     		str	r3, [r0, #44]
 3842 0042 244B     		ldr	r3, .L764+8
 3843 0044 4C31     		adds	r1, r1, #76
 3844 0046 0363     		str	r3, [r0, #48]
 3845 0048 059B     		ldr	r3, [sp, #20]
 3846 004a FFF7FEFF 		bl	HAL_DMA_Start_IT
 3847 004e 0028     		cmp	r0, #0
 3848 0050 39D1     		bne	.L742
 3849 0052 0020     		movs	r0, #0
 3850 0054 049A     		ldr	r2, [sp, #16]
 3851 0056 2368     		ldr	r3, [r4]
 3852 0058 1643     		orrs	r6, r6, r2
 3853 005a 9E64     		str	r6, [r3, #72]
 3854 005c DA68     		ldr	r2, [r3, #12]
 3855 005e 2A43     		orrs	r2, r2, r5
 3856 0060 DA60     		str	r2, [r3, #12]
 3857              	.L739:
 3858 0062 70BD     		pop	{r4, r5, r6, pc}
 3859              	.L744:
 3860 0064 B5F5005F 		cmp	r5, #8192
 3861 0068 25D0     		beq	.L748
 3862 006a B5F5804F 		cmp	r5, #16384
 3863 006e 13D0     		beq	.L749
 3864 0070 B5F5805F 		cmp	r5, #4096
 3865 0074 27D1     		bne	.L742
 3866 0076 184B     		ldr	r3, .L764+12
 3867 0078 206B     		ldr	r0, [r4, #48]
 3868 007a 8362     		str	r3, [r0, #40]
 3869 007c 174B     		ldr	r3, .L764+16
 3870 007e DEE7     		b	.L760
 3871              	.L761:
 3872 0080 F2B1     		cbz	r2, .L762
 3873              	.L741:
 3874 0082 0223     		movs	r3, #2
 3875 0084 B5F5006F 		cmp	r5, #2048
 3876 0088 84F84630 		strb	r3, [r4, #70]
 3877 008c C9D1     		bne	.L763
 3878              	.L743:
 3879 008e 124B     		ldr	r3, .L764+12
 3880 0090 E06A     		ldr	r0, [r4, #44]
 3881 0092 8362     		str	r3, [r0, #40]
ARM GAS  /var/folders/td/83895s255bq6rlxfmrv9fnww0000gn/T//ccczYGAH.s 			page 67


 3882 0094 114B     		ldr	r3, .L764+16
 3883 0096 D2E7     		b	.L760
 3884              	.L749:
 3885 0098 114B     		ldr	r3, .L764+20
 3886 009a A06B     		ldr	r0, [r4, #56]
 3887 009c 8362     		str	r3, [r0, #40]
 3888 009e 114B     		ldr	r3, .L764+24
 3889 00a0 CDE7     		b	.L760
 3890              	.L746:
 3891 00a2 0D4B     		ldr	r3, .L764+12
 3892 00a4 A06A     		ldr	r0, [r4, #40]
 3893 00a6 8362     		str	r3, [r0, #40]
 3894 00a8 0C4B     		ldr	r3, .L764+16
 3895 00aa C8E7     		b	.L760
 3896              	.L745:
 3897 00ac 0A4B     		ldr	r3, .L764+12
 3898 00ae 606A     		ldr	r0, [r4, #36]
 3899 00b0 8362     		str	r3, [r0, #40]
 3900 00b2 0A4B     		ldr	r3, .L764+16
 3901 00b4 C3E7     		b	.L760
 3902              	.L748:
 3903 00b6 0C4B     		ldr	r3, .L764+28
 3904 00b8 606B     		ldr	r0, [r4, #52]
 3905 00ba 8362     		str	r3, [r0, #40]
 3906 00bc 0B4B     		ldr	r3, .L764+32
 3907 00be BEE7     		b	.L760
 3908              	.L762:
 3909 00c0 049B     		ldr	r3, [sp, #16]
 3910 00c2 002B     		cmp	r3, #0
 3911 00c4 DDD0     		beq	.L741
 3912              	.L742:
 3913 00c6 0120     		movs	r0, #1
 3914 00c8 70BD     		pop	{r4, r5, r6, pc}
 3915              	.L765:
 3916 00ca 00BF     		.align	2
 3917              	.L764:
 3918 00cc 00000000 		.word	TIM_DMAPeriodElapsedCplt
 3919 00d0 00000000 		.word	TIM_DMAPeriodElapsedHalfCplt
 3920 00d4 00000000 		.word	TIM_DMAError
 3921 00d8 00000000 		.word	TIM_DMACaptureCplt
 3922 00dc 00000000 		.word	TIM_DMACaptureHalfCplt
 3923 00e0 00000000 		.word	TIM_DMATriggerCplt
 3924 00e4 00000000 		.word	TIM_DMATriggerHalfCplt
 3925 00e8 00000000 		.word	TIMEx_DMACommutationCplt
 3926 00ec 00000000 		.word	TIMEx_DMACommutationHalfCplt
 3928              		.section	.text.HAL_TIM_DMABurst_ReadStart,"ax",%progbits
 3929              		.align	1
 3930              		.p2align 2,,3
 3931              		.global	HAL_TIM_DMABurst_ReadStart
 3932              		.syntax unified
 3933              		.thumb
 3934              		.thumb_func
 3936              	HAL_TIM_DMABurst_ReadStart:
 3937              		@ args = 4, pretend = 0, frame = 0
 3938              		@ frame_needed = 0, uses_anonymous_args = 0
 3939 0000 10B5     		push	{r4, lr}
 3940 0002 82B0     		sub	sp, sp, #8
ARM GAS  /var/folders/td/83895s255bq6rlxfmrv9fnww0000gn/T//ccczYGAH.s 			page 68


 3941 0004 049C     		ldr	r4, [sp, #16]
 3942 0006 0094     		str	r4, [sp]
 3943 0008 240A     		lsrs	r4, r4, #8
 3944 000a 0134     		adds	r4, r4, #1
 3945 000c 0194     		str	r4, [sp, #4]
 3946 000e FFF7FEFF 		bl	HAL_TIM_DMABurst_MultiReadStart
 3947 0012 02B0     		add	sp, sp, #8
 3948              		@ sp needed
 3949 0014 10BD     		pop	{r4, pc}
 3951 0016 00BF     		.section	.text.HAL_TIM_DMABurst_ReadStop,"ax",%progbits
 3952              		.align	1
 3953              		.p2align 2,,3
 3954              		.global	HAL_TIM_DMABurst_ReadStop
 3955              		.syntax unified
 3956              		.thumb
 3957              		.thumb_func
 3959              	HAL_TIM_DMABurst_ReadStop:
 3960              		@ args = 0, pretend = 0, frame = 0
 3961              		@ frame_needed = 0, uses_anonymous_args = 0
 3962              		@ link register save eliminated.
 3963 0000 FFF7FEBF 		b	HAL_TIM_DMABurst_WriteStop
 3965              		.section	.text.HAL_TIM_GenerateEvent,"ax",%progbits
 3966              		.align	1
 3967              		.p2align 2,,3
 3968              		.global	HAL_TIM_GenerateEvent
 3969              		.syntax unified
 3970              		.thumb
 3971              		.thumb_func
 3973              	HAL_TIM_GenerateEvent:
 3974              		@ args = 0, pretend = 0, frame = 0
 3975              		@ frame_needed = 0, uses_anonymous_args = 0
 3976 0000 90F83C20 		ldrb	r2, [r0, #60]	@ zero_extendqisi2
 3977 0004 012A     		cmp	r2, #1
 3978 0006 11D0     		beq	.L771
 3979 0008 00B5     		push	{lr}
 3980 000a 0346     		mov	r3, r0
 3981 000c 0022     		movs	r2, #0
 3982 000e 4FF0020E 		mov	lr, #2
 3983 0012 4FF0010C 		mov	ip, #1
 3984 0016 0068     		ldr	r0, [r0]
 3985 0018 83F83DE0 		strb	lr, [r3, #61]
 3986 001c 4161     		str	r1, [r0, #20]
 3987 001e 83F83DC0 		strb	ip, [r3, #61]
 3988 0022 83F83C20 		strb	r2, [r3, #60]
 3989 0026 1046     		mov	r0, r2
 3990 0028 5DF804FB 		ldr	pc, [sp], #4
 3991              	.L771:
 3992 002c 0220     		movs	r0, #2
 3993 002e 7047     		bx	lr
 3995              		.section	.text.HAL_TIM_ConfigOCrefClear,"ax",%progbits
 3996              		.align	1
 3997              		.p2align 2,,3
 3998              		.global	HAL_TIM_ConfigOCrefClear
 3999              		.syntax unified
 4000              		.thumb
 4001              		.thumb_func
 4003              	HAL_TIM_ConfigOCrefClear:
ARM GAS  /var/folders/td/83895s255bq6rlxfmrv9fnww0000gn/T//ccczYGAH.s 			page 69


 4004              		@ args = 0, pretend = 0, frame = 0
 4005              		@ frame_needed = 0, uses_anonymous_args = 0
 4006 0000 0346     		mov	r3, r0
 4007 0002 90F83C00 		ldrb	r0, [r0, #60]	@ zero_extendqisi2
 4008 0006 0128     		cmp	r0, #1
 4009 0008 54D0     		beq	.L793
 4010 000a 10B5     		push	{r4, lr}
 4011 000c 0120     		movs	r0, #1
 4012 000e 0224     		movs	r4, #2
 4013 0010 83F83C00 		strb	r0, [r3, #60]
 4014 0014 83F83D40 		strb	r4, [r3, #61]
 4015 0018 4C68     		ldr	r4, [r1, #4]
 4016 001a BCB1     		cbz	r4, .L778
 4017 001c 8442     		cmp	r4, r0
 4018 001e 06D0     		beq	.L779
 4019              	.L780:
 4020 0020 0121     		movs	r1, #1
 4021 0022 0022     		movs	r2, #0
 4022 0024 83F83D10 		strb	r1, [r3, #61]
 4023 0028 83F83C20 		strb	r2, [r3, #60]
 4024 002c 10BD     		pop	{r4, pc}
 4025              	.L779:
 4026 002e C868     		ldr	r0, [r1, #12]
 4027 0030 E0B9     		cbnz	r0, .L799
 4028 0032 1868     		ldr	r0, [r3]
 4029 0034 D1F810E0 		ldr	lr, [r1, #16]
 4030 0038 8468     		ldr	r4, [r0, #8]
 4031 003a 24F47F4C 		bic	ip, r4, #65280
 4032 003e 8C68     		ldr	r4, [r1, #8]
 4033 0040 44EA0E24 		orr	r4, r4, lr, lsl #8
 4034 0044 44EA0C04 		orr	r4, r4, ip
 4035 0048 8460     		str	r4, [r0, #8]
 4036 004a 04E0     		b	.L781
 4037              	.L778:
 4038 004c 1868     		ldr	r0, [r3]
 4039 004e 8468     		ldr	r4, [r0, #8]
 4040 0050 24F47F44 		bic	r4, r4, #65280
 4041 0054 8460     		str	r4, [r0, #8]
 4042              	.L781:
 4043 0056 0C2A     		cmp	r2, #12
 4044 0058 15D8     		bhi	.L783
 4045 005a DFE802F0 		tbb	[pc, r2]
 4046              	.L785:
 4047 005e 24       		.byte	(.L788-.L785)/2
 4048 005f 14       		.byte	(.L783-.L785)/2
 4049 0060 14       		.byte	(.L783-.L785)/2
 4050 0061 14       		.byte	(.L783-.L785)/2
 4051 0062 1D       		.byte	(.L787-.L785)/2
 4052 0063 14       		.byte	(.L783-.L785)/2
 4053 0064 14       		.byte	(.L783-.L785)/2
 4054 0065 14       		.byte	(.L783-.L785)/2
 4055 0066 16       		.byte	(.L786-.L785)/2
 4056 0067 14       		.byte	(.L783-.L785)/2
 4057 0068 14       		.byte	(.L783-.L785)/2
 4058 0069 14       		.byte	(.L783-.L785)/2
 4059 006a 0E       		.byte	(.L784-.L785)/2
 4060 006b 00       		.p2align 1
ARM GAS  /var/folders/td/83895s255bq6rlxfmrv9fnww0000gn/T//ccczYGAH.s 			page 70


 4061              	.L799:
 4062 006c 0022     		movs	r2, #0
 4063 006e 83F83D40 		strb	r4, [r3, #61]
 4064 0072 83F83C20 		strb	r2, [r3, #60]
 4065 0076 2046     		mov	r0, r4
 4066 0078 10BD     		pop	{r4, pc}
 4067              	.L784:
 4068 007a 0A68     		ldr	r2, [r1]
 4069 007c 5AB3     		cbz	r2, .L792
 4070 007e C269     		ldr	r2, [r0, #28]
 4071 0080 42F40042 		orr	r2, r2, #32768
 4072 0084 C261     		str	r2, [r0, #28]
 4073              	.L783:
 4074 0086 0020     		movs	r0, #0
 4075 0088 CAE7     		b	.L780
 4076              	.L786:
 4077 008a 0A68     		ldr	r2, [r1]
 4078 008c F2B1     		cbz	r2, .L791
 4079 008e C269     		ldr	r2, [r0, #28]
 4080 0090 42F08002 		orr	r2, r2, #128
 4081 0094 C261     		str	r2, [r0, #28]
 4082 0096 F6E7     		b	.L783
 4083              	.L787:
 4084 0098 0A68     		ldr	r2, [r1]
 4085 009a 92B1     		cbz	r2, .L790
 4086 009c 8269     		ldr	r2, [r0, #24]
 4087 009e 42F40042 		orr	r2, r2, #32768
 4088 00a2 8261     		str	r2, [r0, #24]
 4089 00a4 EFE7     		b	.L783
 4090              	.L788:
 4091 00a6 0A68     		ldr	r2, [r1]
 4092 00a8 32B1     		cbz	r2, .L789
 4093 00aa 8269     		ldr	r2, [r0, #24]
 4094 00ac 42F08002 		orr	r2, r2, #128
 4095 00b0 8261     		str	r2, [r0, #24]
 4096 00b2 E8E7     		b	.L783
 4097              	.L793:
 4098 00b4 0220     		movs	r0, #2
 4099 00b6 7047     		bx	lr
 4100              	.L789:
 4101 00b8 8269     		ldr	r2, [r0, #24]
 4102 00ba 22F08002 		bic	r2, r2, #128
 4103 00be 8261     		str	r2, [r0, #24]
 4104 00c0 E1E7     		b	.L783
 4105              	.L790:
 4106 00c2 8269     		ldr	r2, [r0, #24]
 4107 00c4 22F40042 		bic	r2, r2, #32768
 4108 00c8 8261     		str	r2, [r0, #24]
 4109 00ca DCE7     		b	.L783
 4110              	.L791:
 4111 00cc C269     		ldr	r2, [r0, #28]
 4112 00ce 22F08002 		bic	r2, r2, #128
 4113 00d2 C261     		str	r2, [r0, #28]
 4114 00d4 D7E7     		b	.L783
 4115              	.L792:
 4116 00d6 C269     		ldr	r2, [r0, #28]
 4117 00d8 22F40042 		bic	r2, r2, #32768
ARM GAS  /var/folders/td/83895s255bq6rlxfmrv9fnww0000gn/T//ccczYGAH.s 			page 71


 4118 00dc C261     		str	r2, [r0, #28]
 4119 00de D2E7     		b	.L783
 4121              		.section	.text.HAL_TIM_ConfigClockSource,"ax",%progbits
 4122              		.align	1
 4123              		.p2align 2,,3
 4124              		.global	HAL_TIM_ConfigClockSource
 4125              		.syntax unified
 4126              		.thumb
 4127              		.thumb_func
 4129              	HAL_TIM_ConfigClockSource:
 4130              		@ args = 0, pretend = 0, frame = 0
 4131              		@ frame_needed = 0, uses_anonymous_args = 0
 4132              		@ link register save eliminated.
 4133 0000 90F83C20 		ldrb	r2, [r0, #60]	@ zero_extendqisi2
 4134 0004 012A     		cmp	r2, #1
 4135 0006 6ED0     		beq	.L812
 4136 0008 0346     		mov	r3, r0
 4137 000a 30B4     		push	{r4, r5}
 4138 000c 0120     		movs	r0, #1
 4139 000e 0224     		movs	r4, #2
 4140 0010 1A68     		ldr	r2, [r3]
 4141 0012 83F83C00 		strb	r0, [r3, #60]
 4142 0016 83F83D40 		strb	r4, [r3, #61]
 4143 001a 9468     		ldr	r4, [r2, #8]
 4144 001c 24F47F44 		bic	r4, r4, #65280
 4145 0020 24F07704 		bic	r4, r4, #119
 4146 0024 9460     		str	r4, [r2, #8]
 4147 0026 0C68     		ldr	r4, [r1]
 4148 0028 602C     		cmp	r4, #96
 4149 002a 76D0     		beq	.L802
 4150 002c 11D8     		bhi	.L803
 4151 002e 402C     		cmp	r4, #64
 4152 0030 5BD0     		beq	.L804
 4153 0032 2ED8     		bhi	.L805
 4154 0034 202C     		cmp	r4, #32
 4155 0036 04D0     		beq	.L806
 4156 0038 00F28880 		bhi	.L807
 4157 003c 34F01001 		bics	r1, r4, #16
 4158 0040 1FD1     		bne	.L808
 4159              	.L806:
 4160 0042 9168     		ldr	r1, [r2, #8]
 4161 0044 21F07001 		bic	r1, r1, #112
 4162 0048 2143     		orrs	r1, r1, r4
 4163 004a 41F00701 		orr	r1, r1, #7
 4164 004e 9160     		str	r1, [r2, #8]
 4165 0050 16E0     		b	.L810
 4166              	.L803:
 4167 0052 B4F5805F 		cmp	r4, #4096
 4168 0056 13D0     		beq	.L810
 4169 0058 B4F5005F 		cmp	r4, #8192
 4170 005c 33D0     		beq	.L811
 4171 005e 702C     		cmp	r4, #112
 4172 0060 0FD1     		bne	.L808
 4173 0062 D1E90150 		ldrd	r5, r0, [r1, #4]
 4174 0066 9468     		ldr	r4, [r2, #8]
 4175 0068 2843     		orrs	r0, r0, r5
 4176 006a CD68     		ldr	r5, [r1, #12]
ARM GAS  /var/folders/td/83895s255bq6rlxfmrv9fnww0000gn/T//ccczYGAH.s 			page 72


 4177 006c 24F47F41 		bic	r1, r4, #65280
 4178 0070 40EA0520 		orr	r0, r0, r5, lsl #8
 4179 0074 0843     		orrs	r0, r0, r1
 4180 0076 9060     		str	r0, [r2, #8]
 4181 0078 9168     		ldr	r1, [r2, #8]
 4182 007a 41F07701 		orr	r1, r1, #119
 4183 007e 9160     		str	r1, [r2, #8]
 4184              	.L810:
 4185 0080 0020     		movs	r0, #0
 4186              	.L808:
 4187 0082 0121     		movs	r1, #1
 4188 0084 0022     		movs	r2, #0
 4189 0086 83F83D10 		strb	r1, [r3, #61]
 4190 008a 83F83C20 		strb	r2, [r3, #60]
 4191 008e 30BC     		pop	{r4, r5}
 4192 0090 7047     		bx	lr
 4193              	.L805:
 4194 0092 502C     		cmp	r4, #80
 4195 0094 F5D1     		bne	.L808
 4196 0096 4868     		ldr	r0, [r1, #4]
 4197 0098 CC68     		ldr	r4, [r1, #12]
 4198 009a 116A     		ldr	r1, [r2, #32]
 4199 009c 21F00A01 		bic	r1, r1, #10
 4200 00a0 0843     		orrs	r0, r0, r1
 4201 00a2 116A     		ldr	r1, [r2, #32]
 4202 00a4 21F00101 		bic	r1, r1, #1
 4203 00a8 1162     		str	r1, [r2, #32]
 4204 00aa 9169     		ldr	r1, [r2, #24]
 4205 00ac 21F0F001 		bic	r1, r1, #240
 4206 00b0 41EA0411 		orr	r1, r1, r4, lsl #4
 4207 00b4 9161     		str	r1, [r2, #24]
 4208 00b6 1062     		str	r0, [r2, #32]
 4209 00b8 9168     		ldr	r1, [r2, #8]
 4210 00ba 21F07001 		bic	r1, r1, #112
 4211 00be 41F05701 		orr	r1, r1, #87
 4212 00c2 9160     		str	r1, [r2, #8]
 4213 00c4 DCE7     		b	.L810
 4214              	.L811:
 4215 00c6 D1E90150 		ldrd	r5, r0, [r1, #4]
 4216 00ca 9468     		ldr	r4, [r2, #8]
 4217 00cc 2843     		orrs	r0, r0, r5
 4218 00ce CD68     		ldr	r5, [r1, #12]
 4219 00d0 24F47F41 		bic	r1, r4, #65280
 4220 00d4 40EA0520 		orr	r0, r0, r5, lsl #8
 4221 00d8 0843     		orrs	r0, r0, r1
 4222 00da 9060     		str	r0, [r2, #8]
 4223 00dc 9168     		ldr	r1, [r2, #8]
 4224 00de 41F48041 		orr	r1, r1, #16384
 4225 00e2 9160     		str	r1, [r2, #8]
 4226 00e4 CCE7     		b	.L810
 4227              	.L812:
 4228 00e6 0220     		movs	r0, #2
 4229 00e8 7047     		bx	lr
 4230              	.L804:
 4231 00ea 4868     		ldr	r0, [r1, #4]
 4232 00ec CC68     		ldr	r4, [r1, #12]
 4233 00ee 116A     		ldr	r1, [r2, #32]
ARM GAS  /var/folders/td/83895s255bq6rlxfmrv9fnww0000gn/T//ccczYGAH.s 			page 73


 4234 00f0 21F00A01 		bic	r1, r1, #10
 4235 00f4 0843     		orrs	r0, r0, r1
 4236 00f6 116A     		ldr	r1, [r2, #32]
 4237 00f8 21F00101 		bic	r1, r1, #1
 4238 00fc 1162     		str	r1, [r2, #32]
 4239 00fe 9169     		ldr	r1, [r2, #24]
 4240 0100 21F0F001 		bic	r1, r1, #240
 4241 0104 41EA0411 		orr	r1, r1, r4, lsl #4
 4242 0108 9161     		str	r1, [r2, #24]
 4243 010a 1062     		str	r0, [r2, #32]
 4244 010c 9168     		ldr	r1, [r2, #8]
 4245 010e 21F07001 		bic	r1, r1, #112
 4246 0112 41F04701 		orr	r1, r1, #71
 4247 0116 9160     		str	r1, [r2, #8]
 4248 0118 B2E7     		b	.L810
 4249              	.L802:
 4250 011a 4868     		ldr	r0, [r1, #4]
 4251 011c CC68     		ldr	r4, [r1, #12]
 4252 011e 116A     		ldr	r1, [r2, #32]
 4253 0120 21F0A001 		bic	r1, r1, #160
 4254 0124 41EA0011 		orr	r1, r1, r0, lsl #4
 4255 0128 106A     		ldr	r0, [r2, #32]
 4256 012a 20F01000 		bic	r0, r0, #16
 4257 012e 1062     		str	r0, [r2, #32]
 4258 0130 9069     		ldr	r0, [r2, #24]
 4259 0132 20F47040 		bic	r0, r0, #61440
 4260 0136 40EA0430 		orr	r0, r0, r4, lsl #12
 4261 013a 9061     		str	r0, [r2, #24]
 4262 013c 1162     		str	r1, [r2, #32]
 4263 013e 9168     		ldr	r1, [r2, #8]
 4264 0140 21F07001 		bic	r1, r1, #112
 4265 0144 41F06701 		orr	r1, r1, #103
 4266 0148 9160     		str	r1, [r2, #8]
 4267 014a 99E7     		b	.L810
 4268              	.L807:
 4269 014c 302C     		cmp	r4, #48
 4270 014e 3FF478AF 		beq	.L806
 4271 0152 96E7     		b	.L808
 4273              		.section	.text.HAL_TIM_ConfigTI1Input,"ax",%progbits
 4274              		.align	1
 4275              		.p2align 2,,3
 4276              		.global	HAL_TIM_ConfigTI1Input
 4277              		.syntax unified
 4278              		.thumb
 4279              		.thumb_func
 4281              	HAL_TIM_ConfigTI1Input:
 4282              		@ args = 0, pretend = 0, frame = 0
 4283              		@ frame_needed = 0, uses_anonymous_args = 0
 4284              		@ link register save eliminated.
 4285 0000 0346     		mov	r3, r0
 4286 0002 1A68     		ldr	r2, [r3]
 4287 0004 0020     		movs	r0, #0
 4288 0006 5368     		ldr	r3, [r2, #4]
 4289 0008 23F08003 		bic	r3, r3, #128
 4290 000c 0B43     		orrs	r3, r3, r1
 4291 000e 5360     		str	r3, [r2, #4]
 4292 0010 7047     		bx	lr
ARM GAS  /var/folders/td/83895s255bq6rlxfmrv9fnww0000gn/T//ccczYGAH.s 			page 74


 4294 0012 00BF     		.section	.text.HAL_TIM_SlaveConfigSynchro,"ax",%progbits
 4295              		.align	1
 4296              		.p2align 2,,3
 4297              		.global	HAL_TIM_SlaveConfigSynchro
 4298              		.syntax unified
 4299              		.thumb
 4300              		.thumb_func
 4302              	HAL_TIM_SlaveConfigSynchro:
 4303              		@ args = 0, pretend = 0, frame = 0
 4304              		@ frame_needed = 0, uses_anonymous_args = 0
 4305 0000 38B5     		push	{r3, r4, r5, lr}
 4306 0002 90F83C30 		ldrb	r3, [r0, #60]	@ zero_extendqisi2
 4307 0006 012B     		cmp	r3, #1
 4308 0008 1ED0     		beq	.L834
 4309 000a 0125     		movs	r5, #1
 4310 000c 0223     		movs	r3, #2
 4311 000e 80F83C50 		strb	r5, [r0, #60]
 4312 0012 80F83D30 		strb	r3, [r0, #61]
 4313 0016 0446     		mov	r4, r0
 4314 0018 FFF7FEFF 		bl	TIM_SlaveTimer_SetConfig.constprop.0
 4315 001c 68B9     		cbnz	r0, .L836
 4316 001e 2368     		ldr	r3, [r4]
 4317 0020 DA68     		ldr	r2, [r3, #12]
 4318 0022 22F04002 		bic	r2, r2, #64
 4319 0026 DA60     		str	r2, [r3, #12]
 4320 0028 DA68     		ldr	r2, [r3, #12]
 4321 002a 22F48042 		bic	r2, r2, #16384
 4322 002e DA60     		str	r2, [r3, #12]
 4323 0030 84F83D50 		strb	r5, [r4, #61]
 4324 0034 84F83C00 		strb	r0, [r4, #60]
 4325 0038 38BD     		pop	{r3, r4, r5, pc}
 4326              	.L836:
 4327 003a 0023     		movs	r3, #0
 4328 003c 84F83D50 		strb	r5, [r4, #61]
 4329 0040 84F83C30 		strb	r3, [r4, #60]
 4330 0044 2846     		mov	r0, r5
 4331 0046 38BD     		pop	{r3, r4, r5, pc}
 4332              	.L834:
 4333 0048 0220     		movs	r0, #2
 4334 004a 38BD     		pop	{r3, r4, r5, pc}
 4336              		.section	.text.HAL_TIM_SlaveConfigSynchro_IT,"ax",%progbits
 4337              		.align	1
 4338              		.p2align 2,,3
 4339              		.global	HAL_TIM_SlaveConfigSynchro_IT
 4340              		.syntax unified
 4341              		.thumb
 4342              		.thumb_func
 4344              	HAL_TIM_SlaveConfigSynchro_IT:
 4345              		@ args = 0, pretend = 0, frame = 0
 4346              		@ frame_needed = 0, uses_anonymous_args = 0
 4347 0000 38B5     		push	{r3, r4, r5, lr}
 4348 0002 90F83C30 		ldrb	r3, [r0, #60]	@ zero_extendqisi2
 4349 0006 012B     		cmp	r3, #1
 4350 0008 1ED0     		beq	.L840
 4351 000a 0125     		movs	r5, #1
 4352 000c 0223     		movs	r3, #2
 4353 000e 80F83C50 		strb	r5, [r0, #60]
ARM GAS  /var/folders/td/83895s255bq6rlxfmrv9fnww0000gn/T//ccczYGAH.s 			page 75


 4354 0012 80F83D30 		strb	r3, [r0, #61]
 4355 0016 0446     		mov	r4, r0
 4356 0018 FFF7FEFF 		bl	TIM_SlaveTimer_SetConfig.constprop.0
 4357 001c 68B9     		cbnz	r0, .L842
 4358 001e 2368     		ldr	r3, [r4]
 4359 0020 DA68     		ldr	r2, [r3, #12]
 4360 0022 42F04002 		orr	r2, r2, #64
 4361 0026 DA60     		str	r2, [r3, #12]
 4362 0028 DA68     		ldr	r2, [r3, #12]
 4363 002a 22F48042 		bic	r2, r2, #16384
 4364 002e DA60     		str	r2, [r3, #12]
 4365 0030 84F83D50 		strb	r5, [r4, #61]
 4366 0034 84F83C00 		strb	r0, [r4, #60]
 4367 0038 38BD     		pop	{r3, r4, r5, pc}
 4368              	.L842:
 4369 003a 0023     		movs	r3, #0
 4370 003c 84F83D50 		strb	r5, [r4, #61]
 4371 0040 84F83C30 		strb	r3, [r4, #60]
 4372 0044 2846     		mov	r0, r5
 4373 0046 38BD     		pop	{r3, r4, r5, pc}
 4374              	.L840:
 4375 0048 0220     		movs	r0, #2
 4376 004a 38BD     		pop	{r3, r4, r5, pc}
 4378              		.section	.text.HAL_TIM_ReadCapturedValue,"ax",%progbits
 4379              		.align	1
 4380              		.p2align 2,,3
 4381              		.global	HAL_TIM_ReadCapturedValue
 4382              		.syntax unified
 4383              		.thumb
 4384              		.thumb_func
 4386              	HAL_TIM_ReadCapturedValue:
 4387              		@ args = 0, pretend = 0, frame = 0
 4388              		@ frame_needed = 0, uses_anonymous_args = 0
 4389              		@ link register save eliminated.
 4390 0000 0C29     		cmp	r1, #12
 4391 0002 08D8     		bhi	.L850
 4392 0004 DFE801F0 		tbb	[pc, r1]
 4393              	.L846:
 4394 0008 12       		.byte	(.L849-.L846)/2
 4395 0009 07       		.byte	(.L850-.L846)/2
 4396 000a 07       		.byte	(.L850-.L846)/2
 4397 000b 07       		.byte	(.L850-.L846)/2
 4398 000c 0F       		.byte	(.L848-.L846)/2
 4399 000d 07       		.byte	(.L850-.L846)/2
 4400 000e 07       		.byte	(.L850-.L846)/2
 4401 000f 07       		.byte	(.L850-.L846)/2
 4402 0010 0C       		.byte	(.L847-.L846)/2
 4403 0011 07       		.byte	(.L850-.L846)/2
 4404 0012 07       		.byte	(.L850-.L846)/2
 4405 0013 07       		.byte	(.L850-.L846)/2
 4406 0014 09       		.byte	(.L845-.L846)/2
 4407 0015 00       		.p2align 1
 4408              	.L850:
 4409 0016 0020     		movs	r0, #0
 4410 0018 7047     		bx	lr
 4411              	.L845:
 4412 001a 0368     		ldr	r3, [r0]
ARM GAS  /var/folders/td/83895s255bq6rlxfmrv9fnww0000gn/T//ccczYGAH.s 			page 76


 4413 001c 186C     		ldr	r0, [r3, #64]
 4414 001e 7047     		bx	lr
 4415              	.L847:
 4416 0020 0368     		ldr	r3, [r0]
 4417 0022 D86B     		ldr	r0, [r3, #60]
 4418 0024 7047     		bx	lr
 4419              	.L848:
 4420 0026 0368     		ldr	r3, [r0]
 4421 0028 986B     		ldr	r0, [r3, #56]
 4422 002a 7047     		bx	lr
 4423              	.L849:
 4424 002c 0368     		ldr	r3, [r0]
 4425 002e 586B     		ldr	r0, [r3, #52]
 4426 0030 7047     		bx	lr
 4428 0032 00BF     		.section	.text.HAL_TIM_PeriodElapsedCallback,"ax",%progbits
 4429              		.align	1
 4430              		.p2align 2,,3
 4431              		.weak	HAL_TIM_PeriodElapsedCallback
 4432              		.syntax unified
 4433              		.thumb
 4434              		.thumb_func
 4436              	HAL_TIM_PeriodElapsedCallback:
 4437              		@ args = 0, pretend = 0, frame = 0
 4438              		@ frame_needed = 0, uses_anonymous_args = 0
 4439              		@ link register save eliminated.
 4440 0000 7047     		bx	lr
 4442 0002 00BF     		.section	.text.TIM_DMAPeriodElapsedCplt,"ax",%progbits
 4443              		.align	1
 4444              		.p2align 2,,3
 4445              		.syntax unified
 4446              		.thumb
 4447              		.thumb_func
 4449              	TIM_DMAPeriodElapsedCplt:
 4450              		@ args = 0, pretend = 0, frame = 0
 4451              		@ frame_needed = 0, uses_anonymous_args = 0
 4452 0000 406A     		ldr	r0, [r0, #36]
 4453 0002 08B5     		push	{r3, lr}
 4454 0004 036A     		ldr	r3, [r0, #32]
 4455 0006 9B69     		ldr	r3, [r3, #24]
 4456 0008 13B9     		cbnz	r3, .L853
 4457 000a 0123     		movs	r3, #1
 4458 000c 80F83D30 		strb	r3, [r0, #61]
 4459              	.L853:
 4460 0010 FFF7FEFF 		bl	HAL_TIM_PeriodElapsedCallback
 4461 0014 08BD     		pop	{r3, pc}
 4463 0016 00BF     		.section	.text.HAL_TIM_PeriodElapsedHalfCpltCallback,"ax",%progbits
 4464              		.align	1
 4465              		.p2align 2,,3
 4466              		.weak	HAL_TIM_PeriodElapsedHalfCpltCallback
 4467              		.syntax unified
 4468              		.thumb
 4469              		.thumb_func
 4471              	HAL_TIM_PeriodElapsedHalfCpltCallback:
 4472              		@ args = 0, pretend = 0, frame = 0
 4473              		@ frame_needed = 0, uses_anonymous_args = 0
 4474              		@ link register save eliminated.
 4475 0000 7047     		bx	lr
ARM GAS  /var/folders/td/83895s255bq6rlxfmrv9fnww0000gn/T//ccczYGAH.s 			page 77


 4477 0002 00BF     		.section	.text.TIM_DMAPeriodElapsedHalfCplt,"ax",%progbits
 4478              		.align	1
 4479              		.p2align 2,,3
 4480              		.syntax unified
 4481              		.thumb
 4482              		.thumb_func
 4484              	TIM_DMAPeriodElapsedHalfCplt:
 4485              		@ args = 0, pretend = 0, frame = 0
 4486              		@ frame_needed = 0, uses_anonymous_args = 0
 4487 0000 08B5     		push	{r3, lr}
 4488 0002 406A     		ldr	r0, [r0, #36]
 4489 0004 FFF7FEFF 		bl	HAL_TIM_PeriodElapsedHalfCpltCallback
 4490 0008 08BD     		pop	{r3, pc}
 4492 000a 00BF     		.section	.text.HAL_TIM_OC_DelayElapsedCallback,"ax",%progbits
 4493              		.align	1
 4494              		.p2align 2,,3
 4495              		.weak	HAL_TIM_OC_DelayElapsedCallback
 4496              		.syntax unified
 4497              		.thumb
 4498              		.thumb_func
 4500              	HAL_TIM_OC_DelayElapsedCallback:
 4501              		@ args = 0, pretend = 0, frame = 0
 4502              		@ frame_needed = 0, uses_anonymous_args = 0
 4503              		@ link register save eliminated.
 4504 0000 7047     		bx	lr
 4506 0002 00BF     		.section	.text.HAL_TIM_IC_CaptureCallback,"ax",%progbits
 4507              		.align	1
 4508              		.p2align 2,,3
 4509              		.weak	HAL_TIM_IC_CaptureCallback
 4510              		.syntax unified
 4511              		.thumb
 4512              		.thumb_func
 4514              	HAL_TIM_IC_CaptureCallback:
 4515              		@ args = 0, pretend = 0, frame = 0
 4516              		@ frame_needed = 0, uses_anonymous_args = 0
 4517              		@ link register save eliminated.
 4518 0000 7047     		bx	lr
 4520 0002 00BF     		.section	.text.TIM_DMACaptureCplt,"ax",%progbits
 4521              		.align	1
 4522              		.p2align 2,,3
 4523              		.global	TIM_DMACaptureCplt
 4524              		.syntax unified
 4525              		.thumb
 4526              		.thumb_func
 4528              	TIM_DMACaptureCplt:
 4529              		@ args = 0, pretend = 0, frame = 0
 4530              		@ frame_needed = 0, uses_anonymous_args = 0
 4531 0000 10B5     		push	{r4, lr}
 4532 0002 446A     		ldr	r4, [r0, #36]
 4533 0004 636A     		ldr	r3, [r4, #36]
 4534 0006 8342     		cmp	r3, r0
 4535 0008 1ED0     		beq	.L868
 4536 000a A36A     		ldr	r3, [r4, #40]
 4537 000c 8342     		cmp	r3, r0
 4538 000e 0BD0     		beq	.L869
 4539 0010 E36A     		ldr	r3, [r4, #44]
 4540 0012 8342     		cmp	r3, r0
ARM GAS  /var/folders/td/83895s255bq6rlxfmrv9fnww0000gn/T//ccczYGAH.s 			page 78


 4541 0014 27D0     		beq	.L870
 4542 0016 236B     		ldr	r3, [r4, #48]
 4543 0018 8342     		cmp	r3, r0
 4544 001a 2FD0     		beq	.L871
 4545              	.L863:
 4546 001c 2046     		mov	r0, r4
 4547 001e FFF7FEFF 		bl	HAL_TIM_IC_CaptureCallback
 4548 0022 0023     		movs	r3, #0
 4549 0024 2377     		strb	r3, [r4, #28]
 4550 0026 10BD     		pop	{r4, pc}
 4551              	.L869:
 4552 0028 0222     		movs	r2, #2
 4553 002a 2277     		strb	r2, [r4, #28]
 4554 002c 9B69     		ldr	r3, [r3, #24]
 4555 002e 002B     		cmp	r3, #0
 4556 0030 F4D1     		bne	.L863
 4557 0032 0123     		movs	r3, #1
 4558 0034 2046     		mov	r0, r4
 4559 0036 84F83F30 		strb	r3, [r4, #63]
 4560 003a 84F84330 		strb	r3, [r4, #67]
 4561 003e FFF7FEFF 		bl	HAL_TIM_IC_CaptureCallback
 4562 0042 0023     		movs	r3, #0
 4563 0044 2377     		strb	r3, [r4, #28]
 4564 0046 10BD     		pop	{r4, pc}
 4565              	.L868:
 4566 0048 0122     		movs	r2, #1
 4567 004a 2277     		strb	r2, [r4, #28]
 4568 004c 9B69     		ldr	r3, [r3, #24]
 4569 004e 002B     		cmp	r3, #0
 4570 0050 E4D1     		bne	.L863
 4571 0052 84F83E20 		strb	r2, [r4, #62]
 4572 0056 2046     		mov	r0, r4
 4573 0058 84F84220 		strb	r2, [r4, #66]
 4574 005c FFF7FEFF 		bl	HAL_TIM_IC_CaptureCallback
 4575 0060 0023     		movs	r3, #0
 4576 0062 2377     		strb	r3, [r4, #28]
 4577 0064 10BD     		pop	{r4, pc}
 4578              	.L870:
 4579 0066 0422     		movs	r2, #4
 4580 0068 2277     		strb	r2, [r4, #28]
 4581 006a 9B69     		ldr	r3, [r3, #24]
 4582 006c 002B     		cmp	r3, #0
 4583 006e D5D1     		bne	.L863
 4584 0070 0123     		movs	r3, #1
 4585 0072 84F84030 		strb	r3, [r4, #64]
 4586 0076 84F84430 		strb	r3, [r4, #68]
 4587 007a CFE7     		b	.L863
 4588              	.L871:
 4589 007c 0822     		movs	r2, #8
 4590 007e 2277     		strb	r2, [r4, #28]
 4591 0080 9B69     		ldr	r3, [r3, #24]
 4592 0082 002B     		cmp	r3, #0
 4593 0084 CAD1     		bne	.L863
 4594 0086 0123     		movs	r3, #1
 4595 0088 84F84130 		strb	r3, [r4, #65]
 4596 008c 84F84530 		strb	r3, [r4, #69]
 4597 0090 C4E7     		b	.L863
ARM GAS  /var/folders/td/83895s255bq6rlxfmrv9fnww0000gn/T//ccczYGAH.s 			page 79


 4599 0092 00BF     		.section	.text.HAL_TIM_IC_CaptureHalfCpltCallback,"ax",%progbits
 4600              		.align	1
 4601              		.p2align 2,,3
 4602              		.weak	HAL_TIM_IC_CaptureHalfCpltCallback
 4603              		.syntax unified
 4604              		.thumb
 4605              		.thumb_func
 4607              	HAL_TIM_IC_CaptureHalfCpltCallback:
 4608              		@ args = 0, pretend = 0, frame = 0
 4609              		@ frame_needed = 0, uses_anonymous_args = 0
 4610              		@ link register save eliminated.
 4611 0000 7047     		bx	lr
 4613 0002 00BF     		.section	.text.TIM_DMACaptureHalfCplt,"ax",%progbits
 4614              		.align	1
 4615              		.p2align 2,,3
 4616              		.global	TIM_DMACaptureHalfCplt
 4617              		.syntax unified
 4618              		.thumb
 4619              		.thumb_func
 4621              	TIM_DMACaptureHalfCplt:
 4622              		@ args = 0, pretend = 0, frame = 0
 4623              		@ frame_needed = 0, uses_anonymous_args = 0
 4624 0000 10B5     		push	{r4, lr}
 4625 0002 446A     		ldr	r4, [r0, #36]
 4626 0004 626A     		ldr	r2, [r4, #36]
 4627 0006 8242     		cmp	r2, r0
 4628 0008 1AD0     		beq	.L879
 4629 000a A26A     		ldr	r2, [r4, #40]
 4630 000c 0346     		mov	r3, r0
 4631 000e 8242     		cmp	r2, r0
 4632 0010 0ED0     		beq	.L880
 4633 0012 E26A     		ldr	r2, [r4, #44]
 4634 0014 8242     		cmp	r2, r0
 4635 0016 1BD0     		beq	.L881
 4636 0018 226B     		ldr	r2, [r4, #48]
 4637 001a 8242     		cmp	r2, r0
 4638 001c 08BF     		it	eq
 4639 001e 0823     		moveq	r3, #8
 4640 0020 2046     		mov	r0, r4
 4641 0022 08BF     		it	eq
 4642 0024 2377     		strbeq	r3, [r4, #28]
 4643 0026 FFF7FEFF 		bl	HAL_TIM_IC_CaptureHalfCpltCallback
 4644 002a 0023     		movs	r3, #0
 4645 002c 2377     		strb	r3, [r4, #28]
 4646 002e 10BD     		pop	{r4, pc}
 4647              	.L880:
 4648 0030 0223     		movs	r3, #2
 4649 0032 2046     		mov	r0, r4
 4650 0034 2377     		strb	r3, [r4, #28]
 4651 0036 FFF7FEFF 		bl	HAL_TIM_IC_CaptureHalfCpltCallback
 4652 003a 0023     		movs	r3, #0
 4653 003c 2377     		strb	r3, [r4, #28]
 4654 003e 10BD     		pop	{r4, pc}
 4655              	.L879:
 4656 0040 0123     		movs	r3, #1
 4657 0042 2046     		mov	r0, r4
 4658 0044 2377     		strb	r3, [r4, #28]
ARM GAS  /var/folders/td/83895s255bq6rlxfmrv9fnww0000gn/T//ccczYGAH.s 			page 80


 4659 0046 FFF7FEFF 		bl	HAL_TIM_IC_CaptureHalfCpltCallback
 4660 004a 0023     		movs	r3, #0
 4661 004c 2377     		strb	r3, [r4, #28]
 4662 004e 10BD     		pop	{r4, pc}
 4663              	.L881:
 4664 0050 0423     		movs	r3, #4
 4665 0052 2046     		mov	r0, r4
 4666 0054 2377     		strb	r3, [r4, #28]
 4667 0056 FFF7FEFF 		bl	HAL_TIM_IC_CaptureHalfCpltCallback
 4668 005a 0023     		movs	r3, #0
 4669 005c 2377     		strb	r3, [r4, #28]
 4670 005e 10BD     		pop	{r4, pc}
 4672              		.section	.text.HAL_TIM_PWM_PulseFinishedCallback,"ax",%progbits
 4673              		.align	1
 4674              		.p2align 2,,3
 4675              		.weak	HAL_TIM_PWM_PulseFinishedCallback
 4676              		.syntax unified
 4677              		.thumb
 4678              		.thumb_func
 4680              	HAL_TIM_PWM_PulseFinishedCallback:
 4681              		@ args = 0, pretend = 0, frame = 0
 4682              		@ frame_needed = 0, uses_anonymous_args = 0
 4683              		@ link register save eliminated.
 4684 0000 7047     		bx	lr
 4686 0002 00BF     		.section	.text.TIM_DMADelayPulseCplt,"ax",%progbits
 4687              		.align	1
 4688              		.p2align 2,,3
 4689              		.syntax unified
 4690              		.thumb
 4691              		.thumb_func
 4693              	TIM_DMADelayPulseCplt:
 4694              		@ args = 0, pretend = 0, frame = 0
 4695              		@ frame_needed = 0, uses_anonymous_args = 0
 4696 0000 10B5     		push	{r4, lr}
 4697 0002 446A     		ldr	r4, [r0, #36]
 4698 0004 636A     		ldr	r3, [r4, #36]
 4699 0006 8342     		cmp	r3, r0
 4700 0008 1CD0     		beq	.L891
 4701 000a A36A     		ldr	r3, [r4, #40]
 4702 000c 8342     		cmp	r3, r0
 4703 000e 0BD0     		beq	.L892
 4704 0010 E36A     		ldr	r3, [r4, #44]
 4705 0012 8342     		cmp	r3, r0
 4706 0014 23D0     		beq	.L893
 4707 0016 236B     		ldr	r3, [r4, #48]
 4708 0018 8342     		cmp	r3, r0
 4709 001a 29D0     		beq	.L894
 4710              	.L886:
 4711 001c 2046     		mov	r0, r4
 4712 001e FFF7FEFF 		bl	HAL_TIM_PWM_PulseFinishedCallback
 4713 0022 0023     		movs	r3, #0
 4714 0024 2377     		strb	r3, [r4, #28]
 4715 0026 10BD     		pop	{r4, pc}
 4716              	.L892:
 4717 0028 0222     		movs	r2, #2
 4718 002a 2277     		strb	r2, [r4, #28]
 4719 002c 9B69     		ldr	r3, [r3, #24]
ARM GAS  /var/folders/td/83895s255bq6rlxfmrv9fnww0000gn/T//ccczYGAH.s 			page 81


 4720 002e 002B     		cmp	r3, #0
 4721 0030 F4D1     		bne	.L886
 4722 0032 0123     		movs	r3, #1
 4723 0034 2046     		mov	r0, r4
 4724 0036 84F83F30 		strb	r3, [r4, #63]
 4725 003a FFF7FEFF 		bl	HAL_TIM_PWM_PulseFinishedCallback
 4726 003e 0023     		movs	r3, #0
 4727 0040 2377     		strb	r3, [r4, #28]
 4728 0042 10BD     		pop	{r4, pc}
 4729              	.L891:
 4730 0044 0122     		movs	r2, #1
 4731 0046 2277     		strb	r2, [r4, #28]
 4732 0048 9B69     		ldr	r3, [r3, #24]
 4733 004a 002B     		cmp	r3, #0
 4734 004c E6D1     		bne	.L886
 4735 004e 2046     		mov	r0, r4
 4736 0050 84F83E20 		strb	r2, [r4, #62]
 4737 0054 FFF7FEFF 		bl	HAL_TIM_PWM_PulseFinishedCallback
 4738 0058 0023     		movs	r3, #0
 4739 005a 2377     		strb	r3, [r4, #28]
 4740 005c 10BD     		pop	{r4, pc}
 4741              	.L893:
 4742 005e 0422     		movs	r2, #4
 4743 0060 2277     		strb	r2, [r4, #28]
 4744 0062 9B69     		ldr	r3, [r3, #24]
 4745 0064 002B     		cmp	r3, #0
 4746 0066 D9D1     		bne	.L886
 4747 0068 0123     		movs	r3, #1
 4748 006a 84F84030 		strb	r3, [r4, #64]
 4749 006e D5E7     		b	.L886
 4750              	.L894:
 4751 0070 0822     		movs	r2, #8
 4752 0072 2277     		strb	r2, [r4, #28]
 4753 0074 9B69     		ldr	r3, [r3, #24]
 4754 0076 002B     		cmp	r3, #0
 4755 0078 D0D1     		bne	.L886
 4756 007a 0123     		movs	r3, #1
 4757 007c 84F84130 		strb	r3, [r4, #65]
 4758 0080 CCE7     		b	.L886
 4760 0082 00BF     		.section	.text.HAL_TIM_PWM_PulseFinishedHalfCpltCallback,"ax",%progbits
 4761              		.align	1
 4762              		.p2align 2,,3
 4763              		.weak	HAL_TIM_PWM_PulseFinishedHalfCpltCallback
 4764              		.syntax unified
 4765              		.thumb
 4766              		.thumb_func
 4768              	HAL_TIM_PWM_PulseFinishedHalfCpltCallback:
 4769              		@ args = 0, pretend = 0, frame = 0
 4770              		@ frame_needed = 0, uses_anonymous_args = 0
 4771              		@ link register save eliminated.
 4772 0000 7047     		bx	lr
 4774 0002 00BF     		.section	.text.TIM_DMADelayPulseHalfCplt,"ax",%progbits
 4775              		.align	1
 4776              		.p2align 2,,3
 4777              		.global	TIM_DMADelayPulseHalfCplt
 4778              		.syntax unified
 4779              		.thumb
ARM GAS  /var/folders/td/83895s255bq6rlxfmrv9fnww0000gn/T//ccczYGAH.s 			page 82


 4780              		.thumb_func
 4782              	TIM_DMADelayPulseHalfCplt:
 4783              		@ args = 0, pretend = 0, frame = 0
 4784              		@ frame_needed = 0, uses_anonymous_args = 0
 4785 0000 10B5     		push	{r4, lr}
 4786 0002 446A     		ldr	r4, [r0, #36]
 4787 0004 626A     		ldr	r2, [r4, #36]
 4788 0006 8242     		cmp	r2, r0
 4789 0008 1AD0     		beq	.L902
 4790 000a A26A     		ldr	r2, [r4, #40]
 4791 000c 0346     		mov	r3, r0
 4792 000e 8242     		cmp	r2, r0
 4793 0010 0ED0     		beq	.L903
 4794 0012 E26A     		ldr	r2, [r4, #44]
 4795 0014 8242     		cmp	r2, r0
 4796 0016 1BD0     		beq	.L904
 4797 0018 226B     		ldr	r2, [r4, #48]
 4798 001a 8242     		cmp	r2, r0
 4799 001c 08BF     		it	eq
 4800 001e 0823     		moveq	r3, #8
 4801 0020 2046     		mov	r0, r4
 4802 0022 08BF     		it	eq
 4803 0024 2377     		strbeq	r3, [r4, #28]
 4804 0026 FFF7FEFF 		bl	HAL_TIM_PWM_PulseFinishedHalfCpltCallback
 4805 002a 0023     		movs	r3, #0
 4806 002c 2377     		strb	r3, [r4, #28]
 4807 002e 10BD     		pop	{r4, pc}
 4808              	.L903:
 4809 0030 0223     		movs	r3, #2
 4810 0032 2046     		mov	r0, r4
 4811 0034 2377     		strb	r3, [r4, #28]
 4812 0036 FFF7FEFF 		bl	HAL_TIM_PWM_PulseFinishedHalfCpltCallback
 4813 003a 0023     		movs	r3, #0
 4814 003c 2377     		strb	r3, [r4, #28]
 4815 003e 10BD     		pop	{r4, pc}
 4816              	.L902:
 4817 0040 0123     		movs	r3, #1
 4818 0042 2046     		mov	r0, r4
 4819 0044 2377     		strb	r3, [r4, #28]
 4820 0046 FFF7FEFF 		bl	HAL_TIM_PWM_PulseFinishedHalfCpltCallback
 4821 004a 0023     		movs	r3, #0
 4822 004c 2377     		strb	r3, [r4, #28]
 4823 004e 10BD     		pop	{r4, pc}
 4824              	.L904:
 4825 0050 0423     		movs	r3, #4
 4826 0052 2046     		mov	r0, r4
 4827 0054 2377     		strb	r3, [r4, #28]
 4828 0056 FFF7FEFF 		bl	HAL_TIM_PWM_PulseFinishedHalfCpltCallback
 4829 005a 0023     		movs	r3, #0
 4830 005c 2377     		strb	r3, [r4, #28]
 4831 005e 10BD     		pop	{r4, pc}
 4833              		.section	.text.HAL_TIM_TriggerCallback,"ax",%progbits
 4834              		.align	1
 4835              		.p2align 2,,3
 4836              		.weak	HAL_TIM_TriggerCallback
 4837              		.syntax unified
 4838              		.thumb
ARM GAS  /var/folders/td/83895s255bq6rlxfmrv9fnww0000gn/T//ccczYGAH.s 			page 83


 4839              		.thumb_func
 4841              	HAL_TIM_TriggerCallback:
 4842              		@ args = 0, pretend = 0, frame = 0
 4843              		@ frame_needed = 0, uses_anonymous_args = 0
 4844              		@ link register save eliminated.
 4845 0000 7047     		bx	lr
 4847 0002 00BF     		.section	.text.HAL_TIM_IRQHandler,"ax",%progbits
 4848              		.align	1
 4849              		.p2align 2,,3
 4850              		.global	HAL_TIM_IRQHandler
 4851              		.syntax unified
 4852              		.thumb
 4853              		.thumb_func
 4855              	HAL_TIM_IRQHandler:
 4856              		@ args = 0, pretend = 0, frame = 0
 4857              		@ frame_needed = 0, uses_anonymous_args = 0
 4858 0000 0368     		ldr	r3, [r0]
 4859 0002 10B5     		push	{r4, lr}
 4860 0004 1A69     		ldr	r2, [r3, #16]
 4861 0006 0446     		mov	r4, r0
 4862 0008 9107     		lsls	r1, r2, #30
 4863 000a 02D5     		bpl	.L907
 4864 000c DA68     		ldr	r2, [r3, #12]
 4865 000e 9207     		lsls	r2, r2, #30
 4866 0010 5FD4     		bmi	.L972
 4867              	.L907:
 4868 0012 1A69     		ldr	r2, [r3, #16]
 4869 0014 5007     		lsls	r0, r2, #29
 4870 0016 02D5     		bpl	.L910
 4871 0018 DA68     		ldr	r2, [r3, #12]
 4872 001a 5107     		lsls	r1, r2, #29
 4873 001c 46D4     		bmi	.L973
 4874              	.L910:
 4875 001e 1A69     		ldr	r2, [r3, #16]
 4876 0020 1207     		lsls	r2, r2, #28
 4877 0022 02D5     		bpl	.L913
 4878 0024 DA68     		ldr	r2, [r3, #12]
 4879 0026 1007     		lsls	r0, r2, #28
 4880 0028 2ED4     		bmi	.L974
 4881              	.L913:
 4882 002a 1A69     		ldr	r2, [r3, #16]
 4883 002c D206     		lsls	r2, r2, #27
 4884 002e 02D5     		bpl	.L916
 4885 0030 DA68     		ldr	r2, [r3, #12]
 4886 0032 D006     		lsls	r0, r2, #27
 4887 0034 18D4     		bmi	.L975
 4888              	.L916:
 4889 0036 1A69     		ldr	r2, [r3, #16]
 4890 0038 D107     		lsls	r1, r2, #31
 4891 003a 02D5     		bpl	.L919
 4892 003c DA68     		ldr	r2, [r3, #12]
 4893 003e D207     		lsls	r2, r2, #31
 4894 0040 5DD4     		bmi	.L976
 4895              	.L919:
 4896 0042 1A69     		ldr	r2, [r3, #16]
 4897 0044 1006     		lsls	r0, r2, #24
 4898 0046 02D5     		bpl	.L920
ARM GAS  /var/folders/td/83895s255bq6rlxfmrv9fnww0000gn/T//ccczYGAH.s 			page 84


 4899 0048 DA68     		ldr	r2, [r3, #12]
 4900 004a 1106     		lsls	r1, r2, #24
 4901 004c 5FD4     		bmi	.L977
 4902              	.L920:
 4903 004e 1A69     		ldr	r2, [r3, #16]
 4904 0050 5206     		lsls	r2, r2, #25
 4905 0052 02D5     		bpl	.L921
 4906 0054 DA68     		ldr	r2, [r3, #12]
 4907 0056 5006     		lsls	r0, r2, #25
 4908 0058 61D4     		bmi	.L978
 4909              	.L921:
 4910 005a 1A69     		ldr	r2, [r3, #16]
 4911 005c 9106     		lsls	r1, r2, #26
 4912 005e 02D5     		bpl	.L906
 4913 0060 DA68     		ldr	r2, [r3, #12]
 4914 0062 9206     		lsls	r2, r2, #26
 4915 0064 43D4     		bmi	.L979
 4916              	.L906:
 4917 0066 10BD     		pop	{r4, pc}
 4918              	.L975:
 4919 0068 6FF01001 		mvn	r1, #16
 4920 006c 0822     		movs	r2, #8
 4921 006e 1961     		str	r1, [r3, #16]
 4922 0070 2277     		strb	r2, [r4, #28]
 4923 0072 DB69     		ldr	r3, [r3, #28]
 4924 0074 2046     		mov	r0, r4
 4925 0076 13F4407F 		tst	r3, #768
 4926 007a 64D0     		beq	.L917
 4927 007c FFF7FEFF 		bl	HAL_TIM_IC_CaptureCallback
 4928              	.L918:
 4929 0080 0022     		movs	r2, #0
 4930 0082 2368     		ldr	r3, [r4]
 4931 0084 2277     		strb	r2, [r4, #28]
 4932 0086 D6E7     		b	.L916
 4933              	.L974:
 4934 0088 6FF00801 		mvn	r1, #8
 4935 008c 0422     		movs	r2, #4
 4936 008e 1961     		str	r1, [r3, #16]
 4937 0090 2277     		strb	r2, [r4, #28]
 4938 0092 DB69     		ldr	r3, [r3, #28]
 4939 0094 2046     		mov	r0, r4
 4940 0096 9907     		lsls	r1, r3, #30
 4941 0098 52D1     		bne	.L980
 4942 009a FFF7FEFF 		bl	HAL_TIM_OC_DelayElapsedCallback
 4943 009e 2046     		mov	r0, r4
 4944 00a0 FFF7FEFF 		bl	HAL_TIM_PWM_PulseFinishedCallback
 4945              	.L915:
 4946 00a4 0022     		movs	r2, #0
 4947 00a6 2368     		ldr	r3, [r4]
 4948 00a8 2277     		strb	r2, [r4, #28]
 4949 00aa BEE7     		b	.L913
 4950              	.L973:
 4951 00ac 6FF00401 		mvn	r1, #4
 4952 00b0 0222     		movs	r2, #2
 4953 00b2 1961     		str	r1, [r3, #16]
 4954 00b4 2277     		strb	r2, [r4, #28]
 4955 00b6 9B69     		ldr	r3, [r3, #24]
ARM GAS  /var/folders/td/83895s255bq6rlxfmrv9fnww0000gn/T//ccczYGAH.s 			page 85


 4956 00b8 2046     		mov	r0, r4
 4957 00ba 13F4407F 		tst	r3, #768
 4958 00be 3CD1     		bne	.L981
 4959 00c0 FFF7FEFF 		bl	HAL_TIM_OC_DelayElapsedCallback
 4960 00c4 2046     		mov	r0, r4
 4961 00c6 FFF7FEFF 		bl	HAL_TIM_PWM_PulseFinishedCallback
 4962              	.L912:
 4963 00ca 0022     		movs	r2, #0
 4964 00cc 2368     		ldr	r3, [r4]
 4965 00ce 2277     		strb	r2, [r4, #28]
 4966 00d0 A5E7     		b	.L910
 4967              	.L972:
 4968 00d2 6FF00201 		mvn	r1, #2
 4969 00d6 0122     		movs	r2, #1
 4970 00d8 1961     		str	r1, [r3, #16]
 4971 00da 0277     		strb	r2, [r0, #28]
 4972 00dc 9B69     		ldr	r3, [r3, #24]
 4973 00de 9B07     		lsls	r3, r3, #30
 4974 00e0 25D0     		beq	.L908
 4975 00e2 FFF7FEFF 		bl	HAL_TIM_IC_CaptureCallback
 4976              	.L909:
 4977 00e6 0022     		movs	r2, #0
 4978 00e8 2368     		ldr	r3, [r4]
 4979 00ea 2277     		strb	r2, [r4, #28]
 4980 00ec 91E7     		b	.L907
 4981              	.L979:
 4982 00ee 6FF02002 		mvn	r2, #32
 4983 00f2 2046     		mov	r0, r4
 4984 00f4 BDE81040 		pop	{r4, lr}
 4985 00f8 1A61     		str	r2, [r3, #16]
 4986 00fa FFF7FEBF 		b	HAL_TIMEx_CommutCallback
 4987              	.L976:
 4988 00fe 6FF00102 		mvn	r2, #1
 4989 0102 2046     		mov	r0, r4
 4990 0104 1A61     		str	r2, [r3, #16]
 4991 0106 FFF7FEFF 		bl	HAL_TIM_PeriodElapsedCallback
 4992 010a 2368     		ldr	r3, [r4]
 4993 010c 99E7     		b	.L919
 4994              	.L977:
 4995 010e 6FF08002 		mvn	r2, #128
 4996 0112 2046     		mov	r0, r4
 4997 0114 1A61     		str	r2, [r3, #16]
 4998 0116 FFF7FEFF 		bl	HAL_TIMEx_BreakCallback
 4999 011a 2368     		ldr	r3, [r4]
 5000 011c 97E7     		b	.L920
 5001              	.L978:
 5002 011e 6FF04002 		mvn	r2, #64
 5003 0122 2046     		mov	r0, r4
 5004 0124 1A61     		str	r2, [r3, #16]
 5005 0126 FFF7FEFF 		bl	HAL_TIM_TriggerCallback
 5006 012a 2368     		ldr	r3, [r4]
 5007 012c 95E7     		b	.L921
 5008              	.L908:
 5009 012e FFF7FEFF 		bl	HAL_TIM_OC_DelayElapsedCallback
 5010 0132 2046     		mov	r0, r4
 5011 0134 FFF7FEFF 		bl	HAL_TIM_PWM_PulseFinishedCallback
 5012 0138 D5E7     		b	.L909
ARM GAS  /var/folders/td/83895s255bq6rlxfmrv9fnww0000gn/T//ccczYGAH.s 			page 86


 5013              	.L981:
 5014 013a FFF7FEFF 		bl	HAL_TIM_IC_CaptureCallback
 5015 013e C4E7     		b	.L912
 5016              	.L980:
 5017 0140 FFF7FEFF 		bl	HAL_TIM_IC_CaptureCallback
 5018 0144 AEE7     		b	.L915
 5019              	.L917:
 5020 0146 FFF7FEFF 		bl	HAL_TIM_OC_DelayElapsedCallback
 5021 014a 2046     		mov	r0, r4
 5022 014c FFF7FEFF 		bl	HAL_TIM_PWM_PulseFinishedCallback
 5023 0150 96E7     		b	.L918
 5025 0152 00BF     		.section	.text.TIM_DMATriggerCplt,"ax",%progbits
 5026              		.align	1
 5027              		.p2align 2,,3
 5028              		.syntax unified
 5029              		.thumb
 5030              		.thumb_func
 5032              	TIM_DMATriggerCplt:
 5033              		@ args = 0, pretend = 0, frame = 0
 5034              		@ frame_needed = 0, uses_anonymous_args = 0
 5035 0000 406A     		ldr	r0, [r0, #36]
 5036 0002 08B5     		push	{r3, lr}
 5037 0004 836B     		ldr	r3, [r0, #56]
 5038 0006 9B69     		ldr	r3, [r3, #24]
 5039 0008 13B9     		cbnz	r3, .L983
 5040 000a 0123     		movs	r3, #1
 5041 000c 80F83D30 		strb	r3, [r0, #61]
 5042              	.L983:
 5043 0010 FFF7FEFF 		bl	HAL_TIM_TriggerCallback
 5044 0014 08BD     		pop	{r3, pc}
 5046 0016 00BF     		.section	.text.HAL_TIM_TriggerHalfCpltCallback,"ax",%progbits
 5047              		.align	1
 5048              		.p2align 2,,3
 5049              		.weak	HAL_TIM_TriggerHalfCpltCallback
 5050              		.syntax unified
 5051              		.thumb
 5052              		.thumb_func
 5054              	HAL_TIM_TriggerHalfCpltCallback:
 5055              		@ args = 0, pretend = 0, frame = 0
 5056              		@ frame_needed = 0, uses_anonymous_args = 0
 5057              		@ link register save eliminated.
 5058 0000 7047     		bx	lr
 5060 0002 00BF     		.section	.text.TIM_DMATriggerHalfCplt,"ax",%progbits
 5061              		.align	1
 5062              		.p2align 2,,3
 5063              		.syntax unified
 5064              		.thumb
 5065              		.thumb_func
 5067              	TIM_DMATriggerHalfCplt:
 5068              		@ args = 0, pretend = 0, frame = 0
 5069              		@ frame_needed = 0, uses_anonymous_args = 0
 5070 0000 08B5     		push	{r3, lr}
 5071 0002 406A     		ldr	r0, [r0, #36]
 5072 0004 FFF7FEFF 		bl	HAL_TIM_TriggerHalfCpltCallback
 5073 0008 08BD     		pop	{r3, pc}
 5075 000a 00BF     		.section	.text.HAL_TIM_ErrorCallback,"ax",%progbits
 5076              		.align	1
ARM GAS  /var/folders/td/83895s255bq6rlxfmrv9fnww0000gn/T//ccczYGAH.s 			page 87


 5077              		.p2align 2,,3
 5078              		.weak	HAL_TIM_ErrorCallback
 5079              		.syntax unified
 5080              		.thumb
 5081              		.thumb_func
 5083              	HAL_TIM_ErrorCallback:
 5084              		@ args = 0, pretend = 0, frame = 0
 5085              		@ frame_needed = 0, uses_anonymous_args = 0
 5086              		@ link register save eliminated.
 5087 0000 7047     		bx	lr
 5089 0002 00BF     		.section	.text.TIM_DMAError,"ax",%progbits
 5090              		.align	1
 5091              		.p2align 2,,3
 5092              		.global	TIM_DMAError
 5093              		.syntax unified
 5094              		.thumb
 5095              		.thumb_func
 5097              	TIM_DMAError:
 5098              		@ args = 0, pretend = 0, frame = 0
 5099              		@ frame_needed = 0, uses_anonymous_args = 0
 5100 0000 10B5     		push	{r4, lr}
 5101 0002 446A     		ldr	r4, [r0, #36]
 5102 0004 636A     		ldr	r3, [r4, #36]
 5103 0006 8342     		cmp	r3, r0
 5104 0008 1CD0     		beq	.L996
 5105 000a A36A     		ldr	r3, [r4, #40]
 5106 000c 8342     		cmp	r3, r0
 5107 000e 0ED0     		beq	.L997
 5108 0010 E36A     		ldr	r3, [r4, #44]
 5109 0012 8342     		cmp	r3, r0
 5110 0014 20D0     		beq	.L998
 5111 0016 236B     		ldr	r3, [r4, #48]
 5112 0018 8342     		cmp	r3, r0
 5113 001a 28D0     		beq	.L999
 5114 001c 0123     		movs	r3, #1
 5115 001e 2046     		mov	r0, r4
 5116 0020 84F83D30 		strb	r3, [r4, #61]
 5117 0024 FFF7FEFF 		bl	HAL_TIM_ErrorCallback
 5118 0028 0023     		movs	r3, #0
 5119 002a 2377     		strb	r3, [r4, #28]
 5120 002c 10BD     		pop	{r4, pc}
 5121              	.L997:
 5122 002e 0123     		movs	r3, #1
 5123 0030 0222     		movs	r2, #2
 5124 0032 84F83F30 		strb	r3, [r4, #63]
 5125 0036 2046     		mov	r0, r4
 5126 0038 2277     		strb	r2, [r4, #28]
 5127 003a FFF7FEFF 		bl	HAL_TIM_ErrorCallback
 5128 003e 0023     		movs	r3, #0
 5129 0040 2377     		strb	r3, [r4, #28]
 5130 0042 10BD     		pop	{r4, pc}
 5131              	.L996:
 5132 0044 0123     		movs	r3, #1
 5133 0046 2046     		mov	r0, r4
 5134 0048 2377     		strb	r3, [r4, #28]
 5135 004a 84F83E30 		strb	r3, [r4, #62]
 5136 004e FFF7FEFF 		bl	HAL_TIM_ErrorCallback
ARM GAS  /var/folders/td/83895s255bq6rlxfmrv9fnww0000gn/T//ccczYGAH.s 			page 88


 5137 0052 0023     		movs	r3, #0
 5138 0054 2377     		strb	r3, [r4, #28]
 5139 0056 10BD     		pop	{r4, pc}
 5140              	.L998:
 5141 0058 0123     		movs	r3, #1
 5142 005a 0422     		movs	r2, #4
 5143 005c 84F84030 		strb	r3, [r4, #64]
 5144 0060 2046     		mov	r0, r4
 5145 0062 2277     		strb	r2, [r4, #28]
 5146 0064 FFF7FEFF 		bl	HAL_TIM_ErrorCallback
 5147 0068 0023     		movs	r3, #0
 5148 006a 2377     		strb	r3, [r4, #28]
 5149 006c 10BD     		pop	{r4, pc}
 5150              	.L999:
 5151 006e 0123     		movs	r3, #1
 5152 0070 0822     		movs	r2, #8
 5153 0072 84F84130 		strb	r3, [r4, #65]
 5154 0076 2046     		mov	r0, r4
 5155 0078 2277     		strb	r2, [r4, #28]
 5156 007a FFF7FEFF 		bl	HAL_TIM_ErrorCallback
 5157 007e 0023     		movs	r3, #0
 5158 0080 2377     		strb	r3, [r4, #28]
 5159 0082 10BD     		pop	{r4, pc}
 5161              		.section	.text.HAL_TIM_Base_GetState,"ax",%progbits
 5162              		.align	1
 5163              		.p2align 2,,3
 5164              		.global	HAL_TIM_Base_GetState
 5165              		.syntax unified
 5166              		.thumb
 5167              		.thumb_func
 5169              	HAL_TIM_Base_GetState:
 5170              		@ args = 0, pretend = 0, frame = 0
 5171              		@ frame_needed = 0, uses_anonymous_args = 0
 5172              		@ link register save eliminated.
 5173 0000 90F83D00 		ldrb	r0, [r0, #61]	@ zero_extendqisi2
 5174 0004 7047     		bx	lr
 5176 0006 00BF     		.section	.text.HAL_TIM_OC_GetState,"ax",%progbits
 5177              		.align	1
 5178              		.p2align 2,,3
 5179              		.global	HAL_TIM_OC_GetState
 5180              		.syntax unified
 5181              		.thumb
 5182              		.thumb_func
 5184              	HAL_TIM_OC_GetState:
 5185              		@ args = 0, pretend = 0, frame = 0
 5186              		@ frame_needed = 0, uses_anonymous_args = 0
 5187              		@ link register save eliminated.
 5188 0000 90F83D00 		ldrb	r0, [r0, #61]	@ zero_extendqisi2
 5189 0004 7047     		bx	lr
 5191 0006 00BF     		.section	.text.HAL_TIM_PWM_GetState,"ax",%progbits
 5192              		.align	1
 5193              		.p2align 2,,3
 5194              		.global	HAL_TIM_PWM_GetState
 5195              		.syntax unified
 5196              		.thumb
 5197              		.thumb_func
 5199              	HAL_TIM_PWM_GetState:
ARM GAS  /var/folders/td/83895s255bq6rlxfmrv9fnww0000gn/T//ccczYGAH.s 			page 89


 5200              		@ args = 0, pretend = 0, frame = 0
 5201              		@ frame_needed = 0, uses_anonymous_args = 0
 5202              		@ link register save eliminated.
 5203 0000 90F83D00 		ldrb	r0, [r0, #61]	@ zero_extendqisi2
 5204 0004 7047     		bx	lr
 5206 0006 00BF     		.section	.text.HAL_TIM_IC_GetState,"ax",%progbits
 5207              		.align	1
 5208              		.p2align 2,,3
 5209              		.global	HAL_TIM_IC_GetState
 5210              		.syntax unified
 5211              		.thumb
 5212              		.thumb_func
 5214              	HAL_TIM_IC_GetState:
 5215              		@ args = 0, pretend = 0, frame = 0
 5216              		@ frame_needed = 0, uses_anonymous_args = 0
 5217              		@ link register save eliminated.
 5218 0000 90F83D00 		ldrb	r0, [r0, #61]	@ zero_extendqisi2
 5219 0004 7047     		bx	lr
 5221 0006 00BF     		.section	.text.HAL_TIM_OnePulse_GetState,"ax",%progbits
 5222              		.align	1
 5223              		.p2align 2,,3
 5224              		.global	HAL_TIM_OnePulse_GetState
 5225              		.syntax unified
 5226              		.thumb
 5227              		.thumb_func
 5229              	HAL_TIM_OnePulse_GetState:
 5230              		@ args = 0, pretend = 0, frame = 0
 5231              		@ frame_needed = 0, uses_anonymous_args = 0
 5232              		@ link register save eliminated.
 5233 0000 90F83D00 		ldrb	r0, [r0, #61]	@ zero_extendqisi2
 5234 0004 7047     		bx	lr
 5236 0006 00BF     		.section	.text.HAL_TIM_Encoder_GetState,"ax",%progbits
 5237              		.align	1
 5238              		.p2align 2,,3
 5239              		.global	HAL_TIM_Encoder_GetState
 5240              		.syntax unified
 5241              		.thumb
 5242              		.thumb_func
 5244              	HAL_TIM_Encoder_GetState:
 5245              		@ args = 0, pretend = 0, frame = 0
 5246              		@ frame_needed = 0, uses_anonymous_args = 0
 5247              		@ link register save eliminated.
 5248 0000 90F83D00 		ldrb	r0, [r0, #61]	@ zero_extendqisi2
 5249 0004 7047     		bx	lr
 5251 0006 00BF     		.section	.text.HAL_TIM_GetActiveChannel,"ax",%progbits
 5252              		.align	1
 5253              		.p2align 2,,3
 5254              		.global	HAL_TIM_GetActiveChannel
 5255              		.syntax unified
 5256              		.thumb
 5257              		.thumb_func
 5259              	HAL_TIM_GetActiveChannel:
 5260              		@ args = 0, pretend = 0, frame = 0
 5261              		@ frame_needed = 0, uses_anonymous_args = 0
 5262              		@ link register save eliminated.
 5263 0000 007F     		ldrb	r0, [r0, #28]	@ zero_extendqisi2
 5264 0002 7047     		bx	lr
ARM GAS  /var/folders/td/83895s255bq6rlxfmrv9fnww0000gn/T//ccczYGAH.s 			page 90


 5266              		.section	.text.HAL_TIM_GetChannelState,"ax",%progbits
 5267              		.align	1
 5268              		.p2align 2,,3
 5269              		.global	HAL_TIM_GetChannelState
 5270              		.syntax unified
 5271              		.thumb
 5272              		.thumb_func
 5274              	HAL_TIM_GetChannelState:
 5275              		@ args = 0, pretend = 0, frame = 0
 5276              		@ frame_needed = 0, uses_anonymous_args = 0
 5277              		@ link register save eliminated.
 5278 0000 19B9     		cbnz	r1, .L1008
 5279 0002 90F83E00 		ldrb	r0, [r0, #62]	@ zero_extendqisi2
 5280 0006 C0B2     		uxtb	r0, r0
 5281 0008 7047     		bx	lr
 5282              	.L1008:
 5283 000a 0429     		cmp	r1, #4
 5284 000c 07D0     		beq	.L1012
 5285 000e 0829     		cmp	r1, #8
 5286 0010 0CBF     		ite	eq
 5287 0012 90F84000 		ldrbeq	r0, [r0, #64]	@ zero_extendqisi2
 5288 0016 90F84100 		ldrbne	r0, [r0, #65]	@ zero_extendqisi2
 5289 001a C0B2     		uxtb	r0, r0
 5290 001c 7047     		bx	lr
 5291              	.L1012:
 5292 001e 90F83F00 		ldrb	r0, [r0, #63]	@ zero_extendqisi2
 5293 0022 C0B2     		uxtb	r0, r0
 5294 0024 7047     		bx	lr
 5296 0026 00BF     		.section	.text.HAL_TIM_DMABurstState,"ax",%progbits
 5297              		.align	1
 5298              		.p2align 2,,3
 5299              		.global	HAL_TIM_DMABurstState
 5300              		.syntax unified
 5301              		.thumb
 5302              		.thumb_func
 5304              	HAL_TIM_DMABurstState:
 5305              		@ args = 0, pretend = 0, frame = 0
 5306              		@ frame_needed = 0, uses_anonymous_args = 0
 5307              		@ link register save eliminated.
 5308 0000 90F84600 		ldrb	r0, [r0, #70]	@ zero_extendqisi2
 5309 0004 7047     		bx	lr
 5311 0006 00BF     		.section	.text.TIM_Base_SetConfig,"ax",%progbits
 5312              		.align	1
 5313              		.p2align 2,,3
 5314              		.global	TIM_Base_SetConfig
 5315              		.syntax unified
 5316              		.thumb
 5317              		.thumb_func
 5319              	TIM_Base_SetConfig:
 5320              		@ args = 0, pretend = 0, frame = 0
 5321              		@ frame_needed = 0, uses_anonymous_args = 0
 5322              		@ link register save eliminated.
 5323 0000 244A     		ldr	r2, .L1023
 5324 0002 30B4     		push	{r4, r5}
 5325 0004 9042     		cmp	r0, r2
 5326 0006 0368     		ldr	r3, [r0]
 5327 0008 2CD0     		beq	.L1015
ARM GAS  /var/folders/td/83895s255bq6rlxfmrv9fnww0000gn/T//ccczYGAH.s 			page 91


 5328 000a B0F1804F 		cmp	r0, #1073741824
 5329 000e 14D0     		beq	.L1017
 5330 0010 A2F59432 		sub	r2, r2, #75776
 5331 0014 9042     		cmp	r0, r2
 5332 0016 10D0     		beq	.L1017
 5333 0018 02F58062 		add	r2, r2, #1024
 5334 001c 9042     		cmp	r0, r2
 5335 001e 0CD0     		beq	.L1017
 5336 0020 4D69     		ldr	r5, [r1, #20]
 5337 0022 23F08003 		bic	r3, r3, #128
 5338 0026 2B43     		orrs	r3, r3, r5
 5339 0028 8C68     		ldr	r4, [r1, #8]
 5340 002a 0A68     		ldr	r2, [r1]
 5341 002c 0360     		str	r3, [r0]
 5342 002e 0123     		movs	r3, #1
 5343 0030 C462     		str	r4, [r0, #44]
 5344 0032 8262     		str	r2, [r0, #40]
 5345 0034 30BC     		pop	{r4, r5}
 5346 0036 4361     		str	r3, [r0, #20]
 5347 0038 7047     		bx	lr
 5348              	.L1017:
 5349 003a 4A68     		ldr	r2, [r1, #4]
 5350 003c 23F07003 		bic	r3, r3, #112
 5351 0040 CC68     		ldr	r4, [r1, #12]
 5352 0042 1343     		orrs	r3, r3, r2
 5353 0044 23F44073 		bic	r3, r3, #768
 5354 0048 4A69     		ldr	r2, [r1, #20]
 5355 004a 2343     		orrs	r3, r3, r4
 5356 004c 23F08003 		bic	r3, r3, #128
 5357 0050 1343     		orrs	r3, r3, r2
 5358 0052 8C68     		ldr	r4, [r1, #8]
 5359 0054 0A68     		ldr	r2, [r1]
 5360 0056 0360     		str	r3, [r0]
 5361 0058 0123     		movs	r3, #1
 5362 005a C462     		str	r4, [r0, #44]
 5363 005c 8262     		str	r2, [r0, #40]
 5364 005e 30BC     		pop	{r4, r5}
 5365 0060 4361     		str	r3, [r0, #20]
 5366 0062 7047     		bx	lr
 5367              	.L1015:
 5368 0064 4C68     		ldr	r4, [r1, #4]
 5369 0066 23F07003 		bic	r3, r3, #112
 5370 006a CA68     		ldr	r2, [r1, #12]
 5371 006c 2343     		orrs	r3, r3, r4
 5372 006e 23F44073 		bic	r3, r3, #768
 5373 0072 1343     		orrs	r3, r3, r2
 5374 0074 4A69     		ldr	r2, [r1, #20]
 5375 0076 23F08003 		bic	r3, r3, #128
 5376 007a 1343     		orrs	r3, r3, r2
 5377 007c 0360     		str	r3, [r0]
 5378 007e 8B68     		ldr	r3, [r1, #8]
 5379 0080 30BC     		pop	{r4, r5}
 5380 0082 C362     		str	r3, [r0, #44]
 5381 0084 0B68     		ldr	r3, [r1]
 5382 0086 8362     		str	r3, [r0, #40]
 5383 0088 0B69     		ldr	r3, [r1, #16]
 5384 008a 0363     		str	r3, [r0, #48]
ARM GAS  /var/folders/td/83895s255bq6rlxfmrv9fnww0000gn/T//ccczYGAH.s 			page 92


 5385 008c 0123     		movs	r3, #1
 5386 008e 4361     		str	r3, [r0, #20]
 5387 0090 7047     		bx	lr
 5388              	.L1024:
 5389 0092 00BF     		.align	2
 5390              	.L1023:
 5391 0094 002C0140 		.word	1073818624
 5393              		.section	.text.HAL_TIM_Base_Init,"ax",%progbits
 5394              		.align	1
 5395              		.p2align 2,,3
 5396              		.global	HAL_TIM_Base_Init
 5397              		.syntax unified
 5398              		.thumb
 5399              		.thumb_func
 5401              	HAL_TIM_Base_Init:
 5402              		@ args = 0, pretend = 0, frame = 0
 5403              		@ frame_needed = 0, uses_anonymous_args = 0
 5404 0000 50B3     		cbz	r0, .L1028
 5405 0002 10B5     		push	{r4, lr}
 5406 0004 90F83D30 		ldrb	r3, [r0, #61]	@ zero_extendqisi2
 5407 0008 0446     		mov	r4, r0
 5408 000a 03F0FF02 		and	r2, r3, #255
 5409 000e F3B1     		cbz	r3, .L1033
 5410              	.L1027:
 5411 0010 0223     		movs	r3, #2
 5412 0012 2146     		mov	r1, r4
 5413 0014 84F83D30 		strb	r3, [r4, #61]
 5414 0018 51F8040B 		ldr	r0, [r1], #4
 5415 001c FFF7FEFF 		bl	TIM_Base_SetConfig
 5416 0020 0123     		movs	r3, #1
 5417 0022 84F84630 		strb	r3, [r4, #70]
 5418 0026 84F83E30 		strb	r3, [r4, #62]
 5419 002a 84F83F30 		strb	r3, [r4, #63]
 5420 002e 84F84030 		strb	r3, [r4, #64]
 5421 0032 84F84130 		strb	r3, [r4, #65]
 5422 0036 84F84230 		strb	r3, [r4, #66]
 5423 003a 84F84330 		strb	r3, [r4, #67]
 5424 003e 84F84430 		strb	r3, [r4, #68]
 5425 0042 84F84530 		strb	r3, [r4, #69]
 5426 0046 84F83D30 		strb	r3, [r4, #61]
 5427 004a 0020     		movs	r0, #0
 5428 004c 10BD     		pop	{r4, pc}
 5429              	.L1033:
 5430 004e 80F83C20 		strb	r2, [r0, #60]
 5431 0052 FFF7FEFF 		bl	HAL_TIM_Base_MspInit
 5432 0056 DBE7     		b	.L1027
 5433              	.L1028:
 5434 0058 0120     		movs	r0, #1
 5435 005a 7047     		bx	lr
 5437              		.section	.text.HAL_TIM_OC_Init,"ax",%progbits
 5438              		.align	1
 5439              		.p2align 2,,3
 5440              		.global	HAL_TIM_OC_Init
 5441              		.syntax unified
 5442              		.thumb
 5443              		.thumb_func
 5445              	HAL_TIM_OC_Init:
ARM GAS  /var/folders/td/83895s255bq6rlxfmrv9fnww0000gn/T//ccczYGAH.s 			page 93


 5446              		@ args = 0, pretend = 0, frame = 0
 5447              		@ frame_needed = 0, uses_anonymous_args = 0
 5448 0000 50B3     		cbz	r0, .L1037
 5449 0002 10B5     		push	{r4, lr}
 5450 0004 90F83D30 		ldrb	r3, [r0, #61]	@ zero_extendqisi2
 5451 0008 0446     		mov	r4, r0
 5452 000a 03F0FF02 		and	r2, r3, #255
 5453 000e F3B1     		cbz	r3, .L1042
 5454              	.L1036:
 5455 0010 0223     		movs	r3, #2
 5456 0012 2146     		mov	r1, r4
 5457 0014 84F83D30 		strb	r3, [r4, #61]
 5458 0018 51F8040B 		ldr	r0, [r1], #4
 5459 001c FFF7FEFF 		bl	TIM_Base_SetConfig
 5460 0020 0123     		movs	r3, #1
 5461 0022 84F84630 		strb	r3, [r4, #70]
 5462 0026 84F83E30 		strb	r3, [r4, #62]
 5463 002a 84F83F30 		strb	r3, [r4, #63]
 5464 002e 84F84030 		strb	r3, [r4, #64]
 5465 0032 84F84130 		strb	r3, [r4, #65]
 5466 0036 84F84230 		strb	r3, [r4, #66]
 5467 003a 84F84330 		strb	r3, [r4, #67]
 5468 003e 84F84430 		strb	r3, [r4, #68]
 5469 0042 84F84530 		strb	r3, [r4, #69]
 5470 0046 84F83D30 		strb	r3, [r4, #61]
 5471 004a 0020     		movs	r0, #0
 5472 004c 10BD     		pop	{r4, pc}
 5473              	.L1042:
 5474 004e 80F83C20 		strb	r2, [r0, #60]
 5475 0052 FFF7FEFF 		bl	HAL_TIM_OC_MspInit
 5476 0056 DBE7     		b	.L1036
 5477              	.L1037:
 5478 0058 0120     		movs	r0, #1
 5479 005a 7047     		bx	lr
 5481              		.section	.text.HAL_TIM_PWM_Init,"ax",%progbits
 5482              		.align	1
 5483              		.p2align 2,,3
 5484              		.global	HAL_TIM_PWM_Init
 5485              		.syntax unified
 5486              		.thumb
 5487              		.thumb_func
 5489              	HAL_TIM_PWM_Init:
 5490              		@ args = 0, pretend = 0, frame = 0
 5491              		@ frame_needed = 0, uses_anonymous_args = 0
 5492 0000 50B3     		cbz	r0, .L1046
 5493 0002 10B5     		push	{r4, lr}
 5494 0004 90F83D30 		ldrb	r3, [r0, #61]	@ zero_extendqisi2
 5495 0008 0446     		mov	r4, r0
 5496 000a 03F0FF02 		and	r2, r3, #255
 5497 000e F3B1     		cbz	r3, .L1051
 5498              	.L1045:
 5499 0010 0223     		movs	r3, #2
 5500 0012 2146     		mov	r1, r4
 5501 0014 84F83D30 		strb	r3, [r4, #61]
 5502 0018 51F8040B 		ldr	r0, [r1], #4
 5503 001c FFF7FEFF 		bl	TIM_Base_SetConfig
 5504 0020 0123     		movs	r3, #1
ARM GAS  /var/folders/td/83895s255bq6rlxfmrv9fnww0000gn/T//ccczYGAH.s 			page 94


 5505 0022 84F84630 		strb	r3, [r4, #70]
 5506 0026 84F83E30 		strb	r3, [r4, #62]
 5507 002a 84F83F30 		strb	r3, [r4, #63]
 5508 002e 84F84030 		strb	r3, [r4, #64]
 5509 0032 84F84130 		strb	r3, [r4, #65]
 5510 0036 84F84230 		strb	r3, [r4, #66]
 5511 003a 84F84330 		strb	r3, [r4, #67]
 5512 003e 84F84430 		strb	r3, [r4, #68]
 5513 0042 84F84530 		strb	r3, [r4, #69]
 5514 0046 84F83D30 		strb	r3, [r4, #61]
 5515 004a 0020     		movs	r0, #0
 5516 004c 10BD     		pop	{r4, pc}
 5517              	.L1051:
 5518 004e 80F83C20 		strb	r2, [r0, #60]
 5519 0052 FFF7FEFF 		bl	HAL_TIM_PWM_MspInit
 5520 0056 DBE7     		b	.L1045
 5521              	.L1046:
 5522 0058 0120     		movs	r0, #1
 5523 005a 7047     		bx	lr
 5525              		.section	.text.HAL_TIM_IC_Init,"ax",%progbits
 5526              		.align	1
 5527              		.p2align 2,,3
 5528              		.global	HAL_TIM_IC_Init
 5529              		.syntax unified
 5530              		.thumb
 5531              		.thumb_func
 5533              	HAL_TIM_IC_Init:
 5534              		@ args = 0, pretend = 0, frame = 0
 5535              		@ frame_needed = 0, uses_anonymous_args = 0
 5536 0000 50B3     		cbz	r0, .L1055
 5537 0002 10B5     		push	{r4, lr}
 5538 0004 90F83D30 		ldrb	r3, [r0, #61]	@ zero_extendqisi2
 5539 0008 0446     		mov	r4, r0
 5540 000a 03F0FF02 		and	r2, r3, #255
 5541 000e F3B1     		cbz	r3, .L1060
 5542              	.L1054:
 5543 0010 0223     		movs	r3, #2
 5544 0012 2146     		mov	r1, r4
 5545 0014 84F83D30 		strb	r3, [r4, #61]
 5546 0018 51F8040B 		ldr	r0, [r1], #4
 5547 001c FFF7FEFF 		bl	TIM_Base_SetConfig
 5548 0020 0123     		movs	r3, #1
 5549 0022 84F84630 		strb	r3, [r4, #70]
 5550 0026 84F83E30 		strb	r3, [r4, #62]
 5551 002a 84F83F30 		strb	r3, [r4, #63]
 5552 002e 84F84030 		strb	r3, [r4, #64]
 5553 0032 84F84130 		strb	r3, [r4, #65]
 5554 0036 84F84230 		strb	r3, [r4, #66]
 5555 003a 84F84330 		strb	r3, [r4, #67]
 5556 003e 84F84430 		strb	r3, [r4, #68]
 5557 0042 84F84530 		strb	r3, [r4, #69]
 5558 0046 84F83D30 		strb	r3, [r4, #61]
 5559 004a 0020     		movs	r0, #0
 5560 004c 10BD     		pop	{r4, pc}
 5561              	.L1060:
 5562 004e 80F83C20 		strb	r2, [r0, #60]
 5563 0052 FFF7FEFF 		bl	HAL_TIM_IC_MspInit
ARM GAS  /var/folders/td/83895s255bq6rlxfmrv9fnww0000gn/T//ccczYGAH.s 			page 95


 5564 0056 DBE7     		b	.L1054
 5565              	.L1055:
 5566 0058 0120     		movs	r0, #1
 5567 005a 7047     		bx	lr
 5569              		.section	.text.HAL_TIM_OnePulse_Init,"ax",%progbits
 5570              		.align	1
 5571              		.p2align 2,,3
 5572              		.global	HAL_TIM_OnePulse_Init
 5573              		.syntax unified
 5574              		.thumb
 5575              		.thumb_func
 5577              	HAL_TIM_OnePulse_Init:
 5578              		@ args = 0, pretend = 0, frame = 0
 5579              		@ frame_needed = 0, uses_anonymous_args = 0
 5580 0000 60B3     		cbz	r0, .L1064
 5581 0002 38B5     		push	{r3, r4, r5, lr}
 5582 0004 90F83D30 		ldrb	r3, [r0, #61]	@ zero_extendqisi2
 5583 0008 0446     		mov	r4, r0
 5584 000a 0D46     		mov	r5, r1
 5585 000c 03F0FF02 		and	r2, r3, #255
 5586 0010 FBB1     		cbz	r3, .L1069
 5587              	.L1063:
 5588 0012 0223     		movs	r3, #2
 5589 0014 2146     		mov	r1, r4
 5590 0016 84F83D30 		strb	r3, [r4, #61]
 5591 001a 51F8040B 		ldr	r0, [r1], #4
 5592 001e FFF7FEFF 		bl	TIM_Base_SetConfig
 5593 0022 0123     		movs	r3, #1
 5594 0024 4FF0000C 		mov	ip, #0
 5595 0028 0268     		ldr	r2, [r0]
 5596 002a 22F00802 		bic	r2, r2, #8
 5597 002e 0260     		str	r2, [r0]
 5598 0030 0268     		ldr	r2, [r0]
 5599 0032 2A43     		orrs	r2, r2, r5
 5600 0034 0260     		str	r2, [r0]
 5601 0036 84F84630 		strb	r3, [r4, #70]
 5602 003a 84F83E30 		strb	r3, [r4, #62]
 5603 003e 84F83F30 		strb	r3, [r4, #63]
 5604 0042 84F84230 		strb	r3, [r4, #66]
 5605 0046 84F84330 		strb	r3, [r4, #67]
 5606 004a 84F83D30 		strb	r3, [r4, #61]
 5607 004e 6046     		mov	r0, ip
 5608 0050 38BD     		pop	{r3, r4, r5, pc}
 5609              	.L1069:
 5610 0052 80F83C20 		strb	r2, [r0, #60]
 5611 0056 FFF7FEFF 		bl	HAL_TIM_OnePulse_MspInit
 5612 005a DAE7     		b	.L1063
 5613              	.L1064:
 5614 005c 4FF0010C 		mov	ip, #1
 5615 0060 6046     		mov	r0, ip
 5616 0062 7047     		bx	lr
 5618              		.section	.text.HAL_TIM_Encoder_Init,"ax",%progbits
 5619              		.align	1
 5620              		.p2align 2,,3
 5621              		.global	HAL_TIM_Encoder_Init
 5622              		.syntax unified
 5623              		.thumb
ARM GAS  /var/folders/td/83895s255bq6rlxfmrv9fnww0000gn/T//ccczYGAH.s 			page 96


 5624              		.thumb_func
 5626              	HAL_TIM_Encoder_Init:
 5627              		@ args = 0, pretend = 0, frame = 0
 5628              		@ frame_needed = 0, uses_anonymous_args = 0
 5629 0000 0028     		cmp	r0, #0
 5630 0002 56D0     		beq	.L1073
 5631 0004 F8B5     		push	{r3, r4, r5, r6, r7, lr}
 5632 0006 90F83D30 		ldrb	r3, [r0, #61]	@ zero_extendqisi2
 5633 000a 0446     		mov	r4, r0
 5634 000c 0D46     		mov	r5, r1
 5635 000e 03F0FF02 		and	r2, r3, #255
 5636 0012 002B     		cmp	r3, #0
 5637 0014 48D0     		beq	.L1078
 5638              	.L1072:
 5639 0016 0223     		movs	r3, #2
 5640 0018 2146     		mov	r1, r4
 5641 001a 84F83D30 		strb	r3, [r4, #61]
 5642 001e 51F8040B 		ldr	r0, [r1], #4
 5643 0022 8368     		ldr	r3, [r0, #8]
 5644 0024 23F48043 		bic	r3, r3, #16384
 5645 0028 23F00703 		bic	r3, r3, #7
 5646 002c 8360     		str	r3, [r0, #8]
 5647 002e FFF7FEFF 		bl	TIM_Base_SetConfig
 5648 0032 0122     		movs	r2, #1
 5649 0034 4FF0000C 		mov	ip, #0
 5650 0038 A969     		ldr	r1, [r5, #24]
 5651 003a AB68     		ldr	r3, [r5, #8]
 5652 003c 8668     		ldr	r6, [r0, #8]
 5653 003e 43EA012E 		orr	lr, r3, r1, lsl #8
 5654 0042 2B69     		ldr	r3, [r5, #16]
 5655 0044 8769     		ldr	r7, [r0, #24]
 5656 0046 E969     		ldr	r1, [r5, #28]
 5657 0048 1B01     		lsls	r3, r3, #4
 5658 004a 43EA0123 		orr	r3, r3, r1, lsl #8
 5659 004e 27F44077 		bic	r7, r7, #768
 5660 0052 E968     		ldr	r1, [r5, #12]
 5661 0054 27F00307 		bic	r7, r7, #3
 5662 0058 4EEA070E 		orr	lr, lr, r7
 5663 005c 0B43     		orrs	r3, r3, r1
 5664 005e 296A     		ldr	r1, [r5, #32]
 5665 0060 2EF47C4E 		bic	lr, lr, #64512
 5666 0064 2EF0FC0E 		bic	lr, lr, #252
 5667 0068 43EA0133 		orr	r3, r3, r1, lsl #12
 5668 006c 076A     		ldr	r7, [r0, #32]
 5669 006e 6968     		ldr	r1, [r5, #4]
 5670 0070 43EA0E03 		orr	r3, r3, lr
 5671 0074 D5F814E0 		ldr	lr, [r5, #20]
 5672 0078 2D68     		ldr	r5, [r5]
 5673 007a 27F02207 		bic	r7, r7, #34
 5674 007e 41EA0E11 		orr	r1, r1, lr, lsl #4
 5675 0082 3943     		orrs	r1, r1, r7
 5676 0084 2E43     		orrs	r6, r6, r5
 5677 0086 8660     		str	r6, [r0, #8]
 5678 0088 8361     		str	r3, [r0, #24]
 5679 008a 0162     		str	r1, [r0, #32]
 5680 008c 84F84620 		strb	r2, [r4, #70]
 5681 0090 84F83E20 		strb	r2, [r4, #62]
ARM GAS  /var/folders/td/83895s255bq6rlxfmrv9fnww0000gn/T//ccczYGAH.s 			page 97


 5682 0094 84F83F20 		strb	r2, [r4, #63]
 5683 0098 84F84220 		strb	r2, [r4, #66]
 5684 009c 84F84320 		strb	r2, [r4, #67]
 5685 00a0 84F83D20 		strb	r2, [r4, #61]
 5686 00a4 6046     		mov	r0, ip
 5687 00a6 F8BD     		pop	{r3, r4, r5, r6, r7, pc}
 5688              	.L1078:
 5689 00a8 80F83C20 		strb	r2, [r0, #60]
 5690 00ac FFF7FEFF 		bl	HAL_TIM_Encoder_MspInit
 5691 00b0 B1E7     		b	.L1072
 5692              	.L1073:
 5693 00b2 4FF0010C 		mov	ip, #1
 5694 00b6 6046     		mov	r0, ip
 5695 00b8 7047     		bx	lr
 5697 00ba 00BF     		.section	.text.TIM_OC2_SetConfig,"ax",%progbits
 5698              		.align	1
 5699              		.p2align 2,,3
 5700              		.global	TIM_OC2_SetConfig
 5701              		.syntax unified
 5702              		.thumb
 5703              		.thumb_func
 5705              	TIM_OC2_SetConfig:
 5706              		@ args = 0, pretend = 0, frame = 0
 5707              		@ frame_needed = 0, uses_anonymous_args = 0
 5708              		@ link register save eliminated.
 5709 0000 036A     		ldr	r3, [r0, #32]
 5710 0002 026A     		ldr	r2, [r0, #32]
 5711 0004 70B4     		push	{r4, r5, r6}
 5712 0006 22F01002 		bic	r2, r2, #16
 5713 000a 0262     		str	r2, [r0, #32]
 5714 000c 4468     		ldr	r4, [r0, #4]
 5715 000e 8269     		ldr	r2, [r0, #24]
 5716 0010 0E68     		ldr	r6, [r1]
 5717 0012 114D     		ldr	r5, .L1083
 5718 0014 22F4E642 		bic	r2, r2, #29440
 5719 0018 42EA0622 		orr	r2, r2, r6, lsl #8
 5720 001c 8E68     		ldr	r6, [r1, #8]
 5721 001e 23F02003 		bic	r3, r3, #32
 5722 0022 A842     		cmp	r0, r5
 5723 0024 43EA0613 		orr	r3, r3, r6, lsl #4
 5724 0028 06D0     		beq	.L1082
 5725              	.L1080:
 5726 002a 4968     		ldr	r1, [r1, #4]
 5727 002c 4460     		str	r4, [r0, #4]
 5728 002e 8261     		str	r2, [r0, #24]
 5729 0030 70BC     		pop	{r4, r5, r6}
 5730 0032 8163     		str	r1, [r0, #56]
 5731 0034 0362     		str	r3, [r0, #32]
 5732 0036 7047     		bx	lr
 5733              	.L1082:
 5734 0038 CD68     		ldr	r5, [r1, #12]
 5735 003a 23F08003 		bic	r3, r3, #128
 5736 003e 43EA0513 		orr	r3, r3, r5, lsl #4
 5737 0042 24F44064 		bic	r4, r4, #3072
 5738 0046 D1E90556 		ldrd	r5, r6, [r1, #20]
 5739 004a 3543     		orrs	r5, r5, r6
 5740 004c 23F04003 		bic	r3, r3, #64
ARM GAS  /var/folders/td/83895s255bq6rlxfmrv9fnww0000gn/T//ccczYGAH.s 			page 98


 5741 0050 44EA8504 		orr	r4, r4, r5, lsl #2
 5742 0054 E9E7     		b	.L1080
 5743              	.L1084:
 5744 0056 00BF     		.align	2
 5745              	.L1083:
 5746 0058 002C0140 		.word	1073818624
 5748              		.section	.text.HAL_TIM_OC_ConfigChannel,"ax",%progbits
 5749              		.align	1
 5750              		.p2align 2,,3
 5751              		.global	HAL_TIM_OC_ConfigChannel
 5752              		.syntax unified
 5753              		.thumb
 5754              		.thumb_func
 5756              	HAL_TIM_OC_ConfigChannel:
 5757              		@ args = 0, pretend = 0, frame = 0
 5758              		@ frame_needed = 0, uses_anonymous_args = 0
 5759 0000 90F83C30 		ldrb	r3, [r0, #60]	@ zero_extendqisi2
 5760 0004 012B     		cmp	r3, #1
 5761 0006 25D0     		beq	.L1094
 5762 0008 10B5     		push	{r4, lr}
 5763 000a 0446     		mov	r4, r0
 5764 000c 0C2A     		cmp	r2, #12
 5765 000e 08D8     		bhi	.L1095
 5766 0010 DFE802F0 		tbb	[pc, r2]
 5767              	.L1089:
 5768 0014 14       		.byte	(.L1092-.L1089)/2
 5769 0015 07       		.byte	(.L1095-.L1089)/2
 5770 0016 07       		.byte	(.L1095-.L1089)/2
 5771 0017 07       		.byte	(.L1095-.L1089)/2
 5772 0018 18       		.byte	(.L1091-.L1089)/2
 5773 0019 07       		.byte	(.L1095-.L1089)/2
 5774 001a 07       		.byte	(.L1095-.L1089)/2
 5775 001b 07       		.byte	(.L1095-.L1089)/2
 5776 001c 1C       		.byte	(.L1090-.L1089)/2
 5777 001d 07       		.byte	(.L1095-.L1089)/2
 5778 001e 07       		.byte	(.L1095-.L1089)/2
 5779 001f 07       		.byte	(.L1095-.L1089)/2
 5780 0020 0C       		.byte	(.L1088-.L1089)/2
 5781 0021 00       		.p2align 1
 5782              	.L1095:
 5783 0022 0023     		movs	r3, #0
 5784 0024 84F83C30 		strb	r3, [r4, #60]
 5785 0028 0120     		movs	r0, #1
 5786 002a 10BD     		pop	{r4, pc}
 5787              	.L1088:
 5788 002c 0068     		ldr	r0, [r0]
 5789 002e FFF7FEFF 		bl	TIM_OC4_SetConfig
 5790              	.L1093:
 5791 0032 0023     		movs	r3, #0
 5792 0034 84F83C30 		strb	r3, [r4, #60]
 5793 0038 0020     		movs	r0, #0
 5794 003a 10BD     		pop	{r4, pc}
 5795              	.L1092:
 5796 003c 0068     		ldr	r0, [r0]
 5797 003e FFF7FEFF 		bl	TIM_OC1_SetConfig
 5798 0042 F6E7     		b	.L1093
 5799              	.L1091:
ARM GAS  /var/folders/td/83895s255bq6rlxfmrv9fnww0000gn/T//ccczYGAH.s 			page 99


 5800 0044 0068     		ldr	r0, [r0]
 5801 0046 FFF7FEFF 		bl	TIM_OC2_SetConfig
 5802 004a F2E7     		b	.L1093
 5803              	.L1090:
 5804 004c 0068     		ldr	r0, [r0]
 5805 004e FFF7FEFF 		bl	TIM_OC3_SetConfig
 5806 0052 EEE7     		b	.L1093
 5807              	.L1094:
 5808 0054 0220     		movs	r0, #2
 5809 0056 7047     		bx	lr
 5811              		.section	.text.HAL_TIM_PWM_ConfigChannel,"ax",%progbits
 5812              		.align	1
 5813              		.p2align 2,,3
 5814              		.global	HAL_TIM_PWM_ConfigChannel
 5815              		.syntax unified
 5816              		.thumb
 5817              		.thumb_func
 5819              	HAL_TIM_PWM_ConfigChannel:
 5820              		@ args = 0, pretend = 0, frame = 0
 5821              		@ frame_needed = 0, uses_anonymous_args = 0
 5822 0000 38B5     		push	{r3, r4, r5, lr}
 5823 0002 90F83C30 		ldrb	r3, [r0, #60]	@ zero_extendqisi2
 5824 0006 012B     		cmp	r3, #1
 5825 0008 57D0     		beq	.L1109
 5826 000a 0123     		movs	r3, #1
 5827 000c 0446     		mov	r4, r0
 5828 000e 0D46     		mov	r5, r1
 5829 0010 80F83C30 		strb	r3, [r0, #60]
 5830 0014 0C2A     		cmp	r2, #12
 5831 0016 08D8     		bhi	.L1110
 5832 0018 DFE802F0 		tbb	[pc, r2]
 5833              	.L1104:
 5834 001c 1E       		.byte	(.L1107-.L1104)/2
 5835 001d 07       		.byte	(.L1110-.L1104)/2
 5836 001e 07       		.byte	(.L1110-.L1104)/2
 5837 001f 07       		.byte	(.L1110-.L1104)/2
 5838 0020 2E       		.byte	(.L1106-.L1104)/2
 5839 0021 07       		.byte	(.L1110-.L1104)/2
 5840 0022 07       		.byte	(.L1110-.L1104)/2
 5841 0023 07       		.byte	(.L1110-.L1104)/2
 5842 0024 3F       		.byte	(.L1105-.L1104)/2
 5843 0025 07       		.byte	(.L1110-.L1104)/2
 5844 0026 07       		.byte	(.L1110-.L1104)/2
 5845 0027 07       		.byte	(.L1110-.L1104)/2
 5846 0028 0C       		.byte	(.L1103-.L1104)/2
 5847 0029 00       		.p2align 1
 5848              	.L1110:
 5849 002a 0120     		movs	r0, #1
 5850              	.L1102:
 5851 002c 0023     		movs	r3, #0
 5852 002e 84F83C30 		strb	r3, [r4, #60]
 5853 0032 38BD     		pop	{r3, r4, r5, pc}
 5854              	.L1103:
 5855 0034 0068     		ldr	r0, [r0]
 5856 0036 FFF7FEFF 		bl	TIM_OC4_SetConfig
 5857 003a C369     		ldr	r3, [r0, #28]
 5858 003c 2A69     		ldr	r2, [r5, #16]
ARM GAS  /var/folders/td/83895s255bq6rlxfmrv9fnww0000gn/T//ccczYGAH.s 			page 100


 5859 003e 43F40063 		orr	r3, r3, #2048
 5860 0042 C361     		str	r3, [r0, #28]
 5861 0044 C369     		ldr	r3, [r0, #28]
 5862 0046 23F48063 		bic	r3, r3, #1024
 5863 004a C361     		str	r3, [r0, #28]
 5864 004c C369     		ldr	r3, [r0, #28]
 5865 004e 43EA0223 		orr	r3, r3, r2, lsl #8
 5866 0052 C361     		str	r3, [r0, #28]
 5867              	.L1108:
 5868 0054 0020     		movs	r0, #0
 5869 0056 E9E7     		b	.L1102
 5870              	.L1107:
 5871 0058 0068     		ldr	r0, [r0]
 5872 005a FFF7FEFF 		bl	TIM_OC1_SetConfig
 5873 005e 8369     		ldr	r3, [r0, #24]
 5874 0060 2A69     		ldr	r2, [r5, #16]
 5875 0062 43F00803 		orr	r3, r3, #8
 5876 0066 8361     		str	r3, [r0, #24]
 5877 0068 8369     		ldr	r3, [r0, #24]
 5878 006a 23F00403 		bic	r3, r3, #4
 5879 006e 8361     		str	r3, [r0, #24]
 5880 0070 8369     		ldr	r3, [r0, #24]
 5881 0072 1343     		orrs	r3, r3, r2
 5882 0074 8361     		str	r3, [r0, #24]
 5883 0076 EDE7     		b	.L1108
 5884              	.L1106:
 5885 0078 0068     		ldr	r0, [r0]
 5886 007a FFF7FEFF 		bl	TIM_OC2_SetConfig
 5887 007e 8369     		ldr	r3, [r0, #24]
 5888 0080 2A69     		ldr	r2, [r5, #16]
 5889 0082 43F40063 		orr	r3, r3, #2048
 5890 0086 8361     		str	r3, [r0, #24]
 5891 0088 8369     		ldr	r3, [r0, #24]
 5892 008a 23F48063 		bic	r3, r3, #1024
 5893 008e 8361     		str	r3, [r0, #24]
 5894 0090 8369     		ldr	r3, [r0, #24]
 5895 0092 43EA0223 		orr	r3, r3, r2, lsl #8
 5896 0096 8361     		str	r3, [r0, #24]
 5897 0098 DCE7     		b	.L1108
 5898              	.L1105:
 5899 009a 0068     		ldr	r0, [r0]
 5900 009c FFF7FEFF 		bl	TIM_OC3_SetConfig
 5901 00a0 C369     		ldr	r3, [r0, #28]
 5902 00a2 2A69     		ldr	r2, [r5, #16]
 5903 00a4 43F00803 		orr	r3, r3, #8
 5904 00a8 C361     		str	r3, [r0, #28]
 5905 00aa C369     		ldr	r3, [r0, #28]
 5906 00ac 23F00403 		bic	r3, r3, #4
 5907 00b0 C361     		str	r3, [r0, #28]
 5908 00b2 C369     		ldr	r3, [r0, #28]
 5909 00b4 1343     		orrs	r3, r3, r2
 5910 00b6 C361     		str	r3, [r0, #28]
 5911 00b8 CCE7     		b	.L1108
 5912              	.L1109:
 5913 00ba 0220     		movs	r0, #2
 5914 00bc 38BD     		pop	{r3, r4, r5, pc}
 5916 00be 00BF     		.section	.text.TIM_TI1_SetConfig,"ax",%progbits
ARM GAS  /var/folders/td/83895s255bq6rlxfmrv9fnww0000gn/T//ccczYGAH.s 			page 101


 5917              		.align	1
 5918              		.p2align 2,,3
 5919              		.global	TIM_TI1_SetConfig
 5920              		.syntax unified
 5921              		.thumb
 5922              		.thumb_func
 5924              	TIM_TI1_SetConfig:
 5925              		@ args = 0, pretend = 0, frame = 0
 5926              		@ frame_needed = 0, uses_anonymous_args = 0
 5927              		@ link register save eliminated.
 5928 0000 70B4     		push	{r4, r5, r6}
 5929 0002 056A     		ldr	r5, [r0, #32]
 5930 0004 046A     		ldr	r4, [r0, #32]
 5931 0006 114E     		ldr	r6, .L1119
 5932 0008 24F00104 		bic	r4, r4, #1
 5933 000c 0462     		str	r4, [r0, #32]
 5934 000e B042     		cmp	r0, r6
 5935 0010 8469     		ldr	r4, [r0, #24]
 5936 0012 0DD0     		beq	.L1113
 5937 0014 B0F1804F 		cmp	r0, #1073741824
 5938 0018 0AD0     		beq	.L1113
 5939 001a A6F59436 		sub	r6, r6, #75776
 5940 001e B042     		cmp	r0, r6
 5941 0020 06D0     		beq	.L1113
 5942 0022 06F58066 		add	r6, r6, #1024
 5943 0026 B042     		cmp	r0, r6
 5944 0028 02D0     		beq	.L1113
 5945 002a 44F00102 		orr	r2, r4, #1
 5946 002e 02E0     		b	.L1114
 5947              	.L1113:
 5948 0030 24F00304 		bic	r4, r4, #3
 5949 0034 2243     		orrs	r2, r2, r4
 5950              	.L1114:
 5951 0036 25F00A04 		bic	r4, r5, #10
 5952 003a 01F00A01 		and	r1, r1, #10
 5953 003e 2143     		orrs	r1, r1, r4
 5954 0040 63F30712 		bfi	r2, r3, #4, #4
 5955 0044 8261     		str	r2, [r0, #24]
 5956 0046 70BC     		pop	{r4, r5, r6}
 5957 0048 0162     		str	r1, [r0, #32]
 5958 004a 7047     		bx	lr
 5959              	.L1120:
 5960              		.align	2
 5961              	.L1119:
 5962 004c 002C0140 		.word	1073818624
 5964              		.section	.text.HAL_TIM_IC_ConfigChannel,"ax",%progbits
 5965              		.align	1
 5966              		.p2align 2,,3
 5967              		.global	HAL_TIM_IC_ConfigChannel
 5968              		.syntax unified
 5969              		.thumb
 5970              		.thumb_func
 5972              	HAL_TIM_IC_ConfigChannel:
 5973              		@ args = 0, pretend = 0, frame = 0
 5974              		@ frame_needed = 0, uses_anonymous_args = 0
 5975 0000 90F83C30 		ldrb	r3, [r0, #60]	@ zero_extendqisi2
 5976 0004 012B     		cmp	r3, #1
ARM GAS  /var/folders/td/83895s255bq6rlxfmrv9fnww0000gn/T//ccczYGAH.s 			page 102


 5977 0006 00F08D80 		beq	.L1130
 5978 000a 0123     		movs	r3, #1
 5979 000c 70B5     		push	{r4, r5, r6, lr}
 5980 000e 0446     		mov	r4, r0
 5981 0010 0D46     		mov	r5, r1
 5982 0012 80F83C30 		strb	r3, [r0, #60]
 5983 0016 0C2A     		cmp	r2, #12
 5984 0018 08D8     		bhi	.L1131
 5985 001a DFE802F0 		tbb	[pc, r2]
 5986              	.L1125:
 5987 001e 32       		.byte	(.L1128-.L1125)/2
 5988 001f 07       		.byte	(.L1131-.L1125)/2
 5989 0020 07       		.byte	(.L1131-.L1125)/2
 5990 0021 07       		.byte	(.L1131-.L1125)/2
 5991 0022 41       		.byte	(.L1127-.L1125)/2
 5992 0023 07       		.byte	(.L1131-.L1125)/2
 5993 0024 07       		.byte	(.L1131-.L1125)/2
 5994 0025 07       		.byte	(.L1131-.L1125)/2
 5995 0026 63       		.byte	(.L1126-.L1125)/2
 5996 0027 07       		.byte	(.L1131-.L1125)/2
 5997 0028 07       		.byte	(.L1131-.L1125)/2
 5998 0029 07       		.byte	(.L1131-.L1125)/2
 5999 002a 0C       		.byte	(.L1124-.L1125)/2
 6000 002b 00       		.p2align 1
 6001              	.L1131:
 6002 002c 0023     		movs	r3, #0
 6003 002e 84F83C30 		strb	r3, [r4, #60]
 6004 0032 0120     		movs	r0, #1
 6005 0034 70BD     		pop	{r4, r5, r6, pc}
 6006              	.L1124:
 6007 0036 0368     		ldr	r3, [r0]
 6008 0038 D1E90020 		ldrd	r2, r0, [r1]
 6009 003c 196A     		ldr	r1, [r3, #32]
 6010 003e 1203     		lsls	r2, r2, #12
 6011 0040 21F40051 		bic	r1, r1, #8192
 6012 0044 02F40052 		and	r2, r2, #8192
 6013 0048 0A43     		orrs	r2, r2, r1
 6014 004a 196A     		ldr	r1, [r3, #32]
 6015 004c EE68     		ldr	r6, [r5, #12]
 6016 004e 21F48051 		bic	r1, r1, #4096
 6017 0052 1962     		str	r1, [r3, #32]
 6018 0054 D969     		ldr	r1, [r3, #28]
 6019 0056 AD68     		ldr	r5, [r5, #8]
 6020 0058 21F44071 		bic	r1, r1, #768
 6021 005c 41EA0021 		orr	r1, r1, r0, lsl #8
 6022 0060 66F30F31 		bfi	r1, r6, #12, #4
 6023 0064 D961     		str	r1, [r3, #28]
 6024 0066 1A62     		str	r2, [r3, #32]
 6025 0068 DA69     		ldr	r2, [r3, #28]
 6026 006a 22F44062 		bic	r2, r2, #3072
 6027 006e DA61     		str	r2, [r3, #28]
 6028 0070 DA69     		ldr	r2, [r3, #28]
 6029 0072 42EA0522 		orr	r2, r2, r5, lsl #8
 6030 0076 DA61     		str	r2, [r3, #28]
 6031              	.L1129:
 6032 0078 0023     		movs	r3, #0
 6033 007a 84F83C30 		strb	r3, [r4, #60]
ARM GAS  /var/folders/td/83895s255bq6rlxfmrv9fnww0000gn/T//ccczYGAH.s 			page 103


 6034 007e 0020     		movs	r0, #0
 6035 0080 70BD     		pop	{r4, r5, r6, pc}
 6036              	.L1128:
 6037 0082 0068     		ldr	r0, [r0]
 6038 0084 CB68     		ldr	r3, [r1, #12]
 6039 0086 4A68     		ldr	r2, [r1, #4]
 6040 0088 0968     		ldr	r1, [r1]
 6041 008a FFF7FEFF 		bl	TIM_TI1_SetConfig
 6042 008e 8369     		ldr	r3, [r0, #24]
 6043 0090 AA68     		ldr	r2, [r5, #8]
 6044 0092 23F00C03 		bic	r3, r3, #12
 6045 0096 8361     		str	r3, [r0, #24]
 6046 0098 8369     		ldr	r3, [r0, #24]
 6047 009a 1343     		orrs	r3, r3, r2
 6048 009c 8361     		str	r3, [r0, #24]
 6049 009e EBE7     		b	.L1129
 6050              	.L1127:
 6051 00a0 0368     		ldr	r3, [r0]
 6052 00a2 D1E90020 		ldrd	r2, r0, [r1]
 6053 00a6 196A     		ldr	r1, [r3, #32]
 6054 00a8 1201     		lsls	r2, r2, #4
 6055 00aa 21F0A001 		bic	r1, r1, #160
 6056 00ae 02F0A002 		and	r2, r2, #160
 6057 00b2 0A43     		orrs	r2, r2, r1
 6058 00b4 196A     		ldr	r1, [r3, #32]
 6059 00b6 EE68     		ldr	r6, [r5, #12]
 6060 00b8 21F01001 		bic	r1, r1, #16
 6061 00bc 1962     		str	r1, [r3, #32]
 6062 00be 9969     		ldr	r1, [r3, #24]
 6063 00c0 AD68     		ldr	r5, [r5, #8]
 6064 00c2 21F44071 		bic	r1, r1, #768
 6065 00c6 41EA0021 		orr	r1, r1, r0, lsl #8
 6066 00ca 66F30F31 		bfi	r1, r6, #12, #4
 6067 00ce 9961     		str	r1, [r3, #24]
 6068 00d0 1A62     		str	r2, [r3, #32]
 6069 00d2 9A69     		ldr	r2, [r3, #24]
 6070 00d4 22F44062 		bic	r2, r2, #3072
 6071 00d8 9A61     		str	r2, [r3, #24]
 6072 00da 9A69     		ldr	r2, [r3, #24]
 6073 00dc 42EA0522 		orr	r2, r2, r5, lsl #8
 6074 00e0 9A61     		str	r2, [r3, #24]
 6075 00e2 C9E7     		b	.L1129
 6076              	.L1126:
 6077 00e4 0368     		ldr	r3, [r0]
 6078 00e6 D1E90021 		ldrd	r2, r1, [r1]
 6079 00ea 186A     		ldr	r0, [r3, #32]
 6080 00ec 1202     		lsls	r2, r2, #8
 6081 00ee 20F40070 		bic	r0, r0, #512
 6082 00f2 02F40072 		and	r2, r2, #512
 6083 00f6 0243     		orrs	r2, r2, r0
 6084 00f8 186A     		ldr	r0, [r3, #32]
 6085 00fa EE68     		ldr	r6, [r5, #12]
 6086 00fc 20F48070 		bic	r0, r0, #256
 6087 0100 1862     		str	r0, [r3, #32]
 6088 0102 D869     		ldr	r0, [r3, #28]
 6089 0104 AD68     		ldr	r5, [r5, #8]
 6090 0106 20F00300 		bic	r0, r0, #3
ARM GAS  /var/folders/td/83895s255bq6rlxfmrv9fnww0000gn/T//ccczYGAH.s 			page 104


 6091 010a 0143     		orrs	r1, r1, r0
 6092 010c 66F30711 		bfi	r1, r6, #4, #4
 6093 0110 D961     		str	r1, [r3, #28]
 6094 0112 1A62     		str	r2, [r3, #32]
 6095 0114 DA69     		ldr	r2, [r3, #28]
 6096 0116 22F00C02 		bic	r2, r2, #12
 6097 011a DA61     		str	r2, [r3, #28]
 6098 011c DA69     		ldr	r2, [r3, #28]
 6099 011e 2A43     		orrs	r2, r2, r5
 6100 0120 DA61     		str	r2, [r3, #28]
 6101 0122 A9E7     		b	.L1129
 6102              	.L1130:
 6103 0124 0220     		movs	r0, #2
 6104 0126 7047     		bx	lr
 6106              		.section	.text.HAL_TIM_OnePulse_ConfigChannel,"ax",%progbits
 6107              		.align	1
 6108              		.p2align 2,,3
 6109              		.global	HAL_TIM_OnePulse_ConfigChannel
 6110              		.syntax unified
 6111              		.thumb
 6112              		.thumb_func
 6114              	HAL_TIM_OnePulse_ConfigChannel:
 6115              		@ args = 0, pretend = 0, frame = 32
 6116              		@ frame_needed = 0, uses_anonymous_args = 0
 6117 0000 9A42     		cmp	r2, r3
 6118 0002 4ED0     		beq	.L1146
 6119 0004 70B5     		push	{r4, r5, r6, lr}
 6120 0006 1E46     		mov	r6, r3
 6121 0008 90F83C30 		ldrb	r3, [r0, #60]	@ zero_extendqisi2
 6122 000c 0546     		mov	r5, r0
 6123 000e 012B     		cmp	r3, #1
 6124 0010 88B0     		sub	sp, sp, #32
 6125 0012 76D0     		beq	.L1147
 6126 0014 0C46     		mov	r4, r1
 6127 0016 0123     		movs	r3, #1
 6128 0018 0221     		movs	r1, #2
 6129 001a 80F83C30 		strb	r3, [r0, #60]
 6130 001e 80F83D10 		strb	r1, [r0, #61]
 6131 0022 6368     		ldr	r3, [r4, #4]
 6132 0024 0293     		str	r3, [sp, #8]
 6133 0026 6369     		ldr	r3, [r4, #20]
 6134 0028 0793     		str	r3, [sp, #28]
 6135 002a A368     		ldr	r3, [r4, #8]
 6136 002c 0393     		str	r3, [sp, #12]
 6137 002e E368     		ldr	r3, [r4, #12]
 6138 0030 0493     		str	r3, [sp, #16]
 6139 0032 2368     		ldr	r3, [r4]
 6140 0034 0193     		str	r3, [sp, #4]
 6141 0036 2369     		ldr	r3, [r4, #16]
 6142 0038 0693     		str	r3, [sp, #24]
 6143 003a 8AB1     		cbz	r2, .L1138
 6144 003c 042A     		cmp	r2, #4
 6145 003e 06D1     		bne	.L1144
 6146 0040 0068     		ldr	r0, [r0]
 6147 0042 01A9     		add	r1, sp, #4
 6148 0044 FFF7FEFF 		bl	TIM_OC2_SetConfig
 6149 0048 86B1     		cbz	r6, .L1142
ARM GAS  /var/folders/td/83895s255bq6rlxfmrv9fnww0000gn/T//ccczYGAH.s 			page 105


 6150              	.L1152:
 6151 004a 042E     		cmp	r6, #4
 6152 004c 2BD0     		beq	.L1143
 6153              	.L1144:
 6154 004e 0120     		movs	r0, #1
 6155              	.L1140:
 6156 0050 0122     		movs	r2, #1
 6157 0052 0023     		movs	r3, #0
 6158 0054 85F83D20 		strb	r2, [r5, #61]
 6159 0058 85F83C30 		strb	r3, [r5, #60]
 6160 005c 08B0     		add	sp, sp, #32
 6161              		@ sp needed
 6162 005e 70BD     		pop	{r4, r5, r6, pc}
 6163              	.L1138:
 6164 0060 0068     		ldr	r0, [r0]
 6165 0062 01A9     		add	r1, sp, #4
 6166 0064 FFF7FEFF 		bl	TIM_OC1_SetConfig
 6167 0068 002E     		cmp	r6, #0
 6168 006a EED1     		bne	.L1152
 6169              	.L1142:
 6170 006c D4E90723 		ldrd	r2, r3, [r4, #28]
 6171 0070 2868     		ldr	r0, [r5]
 6172 0072 A169     		ldr	r1, [r4, #24]
 6173 0074 FFF7FEFF 		bl	TIM_TI1_SetConfig
 6174 0078 8369     		ldr	r3, [r0, #24]
 6175 007a 23F00C03 		bic	r3, r3, #12
 6176 007e 8361     		str	r3, [r0, #24]
 6177 0080 8368     		ldr	r3, [r0, #8]
 6178 0082 23F07003 		bic	r3, r3, #112
 6179 0086 8360     		str	r3, [r0, #8]
 6180 0088 8368     		ldr	r3, [r0, #8]
 6181 008a 43F05003 		orr	r3, r3, #80
 6182 008e 8360     		str	r3, [r0, #8]
 6183 0090 8368     		ldr	r3, [r0, #8]
 6184 0092 23F00703 		bic	r3, r3, #7
 6185 0096 8360     		str	r3, [r0, #8]
 6186 0098 8368     		ldr	r3, [r0, #8]
 6187 009a 43F00603 		orr	r3, r3, #6
 6188 009e 8360     		str	r3, [r0, #8]
 6189 00a0 2DE0     		b	.L1145
 6190              	.L1146:
 6191 00a2 0120     		movs	r0, #1
 6192 00a4 7047     		bx	lr
 6193              	.L1143:
 6194 00a6 2B68     		ldr	r3, [r5]
 6195 00a8 D4E90626 		ldrd	r2, r6, [r4, #24]
 6196 00ac 196A     		ldr	r1, [r3, #32]
 6197 00ae 1201     		lsls	r2, r2, #4
 6198 00b0 21F0A001 		bic	r1, r1, #160
 6199 00b4 02F0A002 		and	r2, r2, #160
 6200 00b8 0A43     		orrs	r2, r2, r1
 6201 00ba 196A     		ldr	r1, [r3, #32]
 6202 00bc 206A     		ldr	r0, [r4, #32]
 6203 00be 21F01001 		bic	r1, r1, #16
 6204 00c2 1962     		str	r1, [r3, #32]
 6205 00c4 9969     		ldr	r1, [r3, #24]
 6206 00c6 21F44071 		bic	r1, r1, #768
ARM GAS  /var/folders/td/83895s255bq6rlxfmrv9fnww0000gn/T//ccczYGAH.s 			page 106


 6207 00ca 41EA0621 		orr	r1, r1, r6, lsl #8
 6208 00ce 60F30F31 		bfi	r1, r0, #12, #4
 6209 00d2 9961     		str	r1, [r3, #24]
 6210 00d4 1A62     		str	r2, [r3, #32]
 6211 00d6 9A69     		ldr	r2, [r3, #24]
 6212 00d8 22F44062 		bic	r2, r2, #3072
 6213 00dc 9A61     		str	r2, [r3, #24]
 6214 00de 9A68     		ldr	r2, [r3, #8]
 6215 00e0 22F07002 		bic	r2, r2, #112
 6216 00e4 9A60     		str	r2, [r3, #8]
 6217 00e6 9A68     		ldr	r2, [r3, #8]
 6218 00e8 42F06002 		orr	r2, r2, #96
 6219 00ec 9A60     		str	r2, [r3, #8]
 6220 00ee 9A68     		ldr	r2, [r3, #8]
 6221 00f0 22F00702 		bic	r2, r2, #7
 6222 00f4 9A60     		str	r2, [r3, #8]
 6223 00f6 9A68     		ldr	r2, [r3, #8]
 6224 00f8 42F00602 		orr	r2, r2, #6
 6225 00fc 9A60     		str	r2, [r3, #8]
 6226              	.L1145:
 6227 00fe 0020     		movs	r0, #0
 6228 0100 A6E7     		b	.L1140
 6229              	.L1147:
 6230 0102 0220     		movs	r0, #2
 6231 0104 08B0     		add	sp, sp, #32
 6232              		@ sp needed
 6233 0106 70BD     		pop	{r4, r5, r6, pc}
 6235              		.section	.text.TIM_ETR_SetConfig,"ax",%progbits
 6236              		.align	1
 6237              		.p2align 2,,3
 6238              		.global	TIM_ETR_SetConfig
 6239              		.syntax unified
 6240              		.thumb
 6241              		.thumb_func
 6243              	TIM_ETR_SetConfig:
 6244              		@ args = 0, pretend = 0, frame = 0
 6245              		@ frame_needed = 0, uses_anonymous_args = 0
 6246              		@ link register save eliminated.
 6247 0000 0A43     		orrs	r2, r2, r1
 6248 0002 42EA0322 		orr	r2, r2, r3, lsl #8
 6249 0006 8368     		ldr	r3, [r0, #8]
 6250 0008 23F47F43 		bic	r3, r3, #65280
 6251 000c 1A43     		orrs	r2, r2, r3
 6252 000e 8260     		str	r2, [r0, #8]
 6253 0010 7047     		bx	lr
 6255 0012 00BF     		.section	.text.TIM_CCxChannelCmd,"ax",%progbits
 6256              		.align	1
 6257              		.p2align 2,,3
 6258              		.global	TIM_CCxChannelCmd
 6259              		.syntax unified
 6260              		.thumb
 6261              		.thumb_func
 6263              	TIM_CCxChannelCmd:
 6264              		@ args = 0, pretend = 0, frame = 0
 6265              		@ frame_needed = 0, uses_anonymous_args = 0
 6266              		@ link register save eliminated.
 6267 0000 0123     		movs	r3, #1
ARM GAS  /var/folders/td/83895s255bq6rlxfmrv9fnww0000gn/T//ccczYGAH.s 			page 107


 6268 0002 01F01F01 		and	r1, r1, #31
 6269 0006 03FA01FC 		lsl	ip, r3, r1
 6270 000a 036A     		ldr	r3, [r0, #32]
 6271 000c 8A40     		lsls	r2, r2, r1
 6272 000e 23EA0C03 		bic	r3, r3, ip
 6273 0012 0362     		str	r3, [r0, #32]
 6274 0014 036A     		ldr	r3, [r0, #32]
 6275 0016 1A43     		orrs	r2, r2, r3
 6276 0018 0262     		str	r2, [r0, #32]
 6277 001a 7047     		bx	lr
 6279              		.ident	"GCC: (Arm GNU Toolchain 13.2.rel1 (Build arm-13.7)) 13.2.1 20231009"
ARM GAS  /var/folders/td/83895s255bq6rlxfmrv9fnww0000gn/T//ccczYGAH.s 			page 108

