ARM GAS  /var/folders/td/83895s255bq6rlxfmrv9fnww0000gn/T//ccstNPIk.s 			page 1


   1              		.cpu cortex-m3
   2              		.arch armv7-m
   3              		.fpu softvfp
   4              		.eabi_attribute 20, 1
   5              		.eabi_attribute 21, 1
   6              		.eabi_attribute 23, 3
   7              		.eabi_attribute 24, 1
   8              		.eabi_attribute 25, 1
   9              		.eabi_attribute 26, 1
  10              		.eabi_attribute 30, 2
  11              		.eabi_attribute 34, 1
  12              		.eabi_attribute 18, 4
  13              		.file	"stm32f1xx_hal_cortex.c"
  14              		.text
  15              		.section	.text.HAL_NVIC_SetPriorityGrouping,"ax",%progbits
  16              		.align	1
  17              		.p2align 2,,3
  18              		.global	HAL_NVIC_SetPriorityGrouping
  19              		.syntax unified
  20              		.thumb
  21              		.thumb_func
  23              	HAL_NVIC_SetPriorityGrouping:
  24              		@ args = 0, pretend = 0, frame = 0
  25              		@ frame_needed = 0, uses_anonymous_args = 0
  26              		@ link register save eliminated.
  27 0000 4FF6FF0C 		movw	ip, #63743
  28 0004 0649     		ldr	r1, .L3
  29 0006 0302     		lsls	r3, r0, #8
  30 0008 CA68     		ldr	r2, [r1, #12]
  31 000a 03F4E063 		and	r3, r3, #1792
  32 000e 02EA0C02 		and	r2, r2, ip
  33 0012 1343     		orrs	r3, r3, r2
  34 0014 43F0BF63 		orr	r3, r3, #100139008
  35 0018 43F40033 		orr	r3, r3, #131072
  36 001c CB60     		str	r3, [r1, #12]
  37 001e 7047     		bx	lr
  38              	.L4:
  39              		.align	2
  40              	.L3:
  41 0020 00ED00E0 		.word	-536810240
  43              		.section	.text.HAL_NVIC_SetPriority,"ax",%progbits
  44              		.align	1
  45              		.p2align 2,,3
  46              		.global	HAL_NVIC_SetPriority
  47              		.syntax unified
  48              		.thumb
  49              		.thumb_func
  51              	HAL_NVIC_SetPriority:
  52              		@ args = 0, pretend = 0, frame = 0
  53              		@ frame_needed = 0, uses_anonymous_args = 0
  54 0000 1B4B     		ldr	r3, .L11
  55 0002 00B5     		push	{lr}
  56 0004 DB68     		ldr	r3, [r3, #12]
  57 0006 C3F30223 		ubfx	r3, r3, #8, #3
  58 000a C3F1070E 		rsb	lr, r3, #7
  59 000e BEF1040F 		cmp	lr, #4
  60 0012 03F1040C 		add	ip, r3, #4
ARM GAS  /var/folders/td/83895s255bq6rlxfmrv9fnww0000gn/T//ccstNPIk.s 			page 2


  61 0016 28BF     		it	cs
  62 0018 4FF0040E 		movcs	lr, #4
  63 001c BCF1060F 		cmp	ip, #6
  64 0020 1CD9     		bls	.L9
  65 0022 A3F1030C 		sub	ip, r3, #3
  66 0026 4FF0FF33 		mov	r3, #-1
  67 002a 03FA0CF3 		lsl	r3, r3, ip
  68 002e 22EA0302 		bic	r2, r2, r3
  69              	.L6:
  70 0032 4FF0FF33 		mov	r3, #-1
  71 0036 03FA0EF3 		lsl	r3, r3, lr
  72 003a 21EA0303 		bic	r3, r1, r3
  73 003e 03FA0CF3 		lsl	r3, r3, ip
  74 0042 1343     		orrs	r3, r3, r2
  75 0044 1B01     		lsls	r3, r3, #4
  76 0046 0028     		cmp	r0, #0
  77 0048 DBB2     		uxtb	r3, r3
  78 004a 0ADB     		blt	.L7
  79 004c 00F16040 		add	r0, r0, #-536870912
  80 0050 00F56140 		add	r0, r0, #57600
  81 0054 80F80033 		strb	r3, [r0, #768]
  82 0058 5DF804FB 		ldr	pc, [sp], #4
  83              	.L9:
  84 005c 0022     		movs	r2, #0
  85 005e 9446     		mov	ip, r2
  86 0060 E7E7     		b	.L6
  87              	.L7:
  88 0062 044A     		ldr	r2, .L11+4
  89 0064 00F00F00 		and	r0, r0, #15
  90 0068 0244     		add	r2, r2, r0
  91 006a 1376     		strb	r3, [r2, #24]
  92 006c 5DF804FB 		ldr	pc, [sp], #4
  93              	.L12:
  94              		.align	2
  95              	.L11:
  96 0070 00ED00E0 		.word	-536810240
  97 0074 FCEC00E0 		.word	-536810244
  99              		.section	.text.HAL_NVIC_EnableIRQ,"ax",%progbits
 100              		.align	1
 101              		.p2align 2,,3
 102              		.global	HAL_NVIC_EnableIRQ
 103              		.syntax unified
 104              		.thumb
 105              		.thumb_func
 107              	HAL_NVIC_EnableIRQ:
 108              		@ args = 0, pretend = 0, frame = 0
 109              		@ frame_needed = 0, uses_anonymous_args = 0
 110              		@ link register save eliminated.
 111 0000 0028     		cmp	r0, #0
 112 0002 07DB     		blt	.L13
 113 0004 0123     		movs	r3, #1
 114 0006 00F01F01 		and	r1, r0, #31
 115 000a 034A     		ldr	r2, .L15
 116 000c 4009     		lsrs	r0, r0, #5
 117 000e 8B40     		lsls	r3, r3, r1
 118 0010 42F82030 		str	r3, [r2, r0, lsl #2]
 119              	.L13:
ARM GAS  /var/folders/td/83895s255bq6rlxfmrv9fnww0000gn/T//ccstNPIk.s 			page 3


 120 0014 7047     		bx	lr
 121              	.L16:
 122 0016 00BF     		.align	2
 123              	.L15:
 124 0018 00E100E0 		.word	-536813312
 126              		.section	.text.HAL_NVIC_DisableIRQ,"ax",%progbits
 127              		.align	1
 128              		.p2align 2,,3
 129              		.global	HAL_NVIC_DisableIRQ
 130              		.syntax unified
 131              		.thumb
 132              		.thumb_func
 134              	HAL_NVIC_DisableIRQ:
 135              		@ args = 0, pretend = 0, frame = 0
 136              		@ frame_needed = 0, uses_anonymous_args = 0
 137              		@ link register save eliminated.
 138 0000 0028     		cmp	r0, #0
 139 0002 0CDB     		blt	.L17
 140 0004 0122     		movs	r2, #1
 141 0006 0649     		ldr	r1, .L19
 142 0008 4309     		lsrs	r3, r0, #5
 143 000a 00F01F00 		and	r0, r0, #31
 144 000e 2033     		adds	r3, r3, #32
 145 0010 8240     		lsls	r2, r2, r0
 146 0012 41F82320 		str	r2, [r1, r3, lsl #2]
 147              		.syntax unified
 148              	@ 879 "Drivers/CMSIS/Include/cmsis_gcc.h" 1
 149 0016 BFF34F8F 		dsb 0xF
 150              	@ 0 "" 2
 151              	@ 868 "Drivers/CMSIS/Include/cmsis_gcc.h" 1
 152 001a BFF36F8F 		isb 0xF
 153              	@ 0 "" 2
 154              		.thumb
 155              		.syntax unified
 156              	.L17:
 157 001e 7047     		bx	lr
 158              	.L20:
 159              		.align	2
 160              	.L19:
 161 0020 00E100E0 		.word	-536813312
 163              		.section	.text.HAL_NVIC_SystemReset,"ax",%progbits
 164              		.align	1
 165              		.p2align 2,,3
 166              		.global	HAL_NVIC_SystemReset
 167              		.syntax unified
 168              		.thumb
 169              		.thumb_func
 171              	HAL_NVIC_SystemReset:
 172              		@ Volatile: function does not return.
 173              		@ args = 0, pretend = 0, frame = 0
 174              		@ frame_needed = 0, uses_anonymous_args = 0
 175              		@ link register save eliminated.
 176              		.syntax unified
 177              	@ 879 "Drivers/CMSIS/Include/cmsis_gcc.h" 1
 178 0000 BFF34F8F 		dsb 0xF
 179              	@ 0 "" 2
 180              		.thumb
ARM GAS  /var/folders/td/83895s255bq6rlxfmrv9fnww0000gn/T//ccstNPIk.s 			page 4


 181              		.syntax unified
 182 0004 0549     		ldr	r1, .L23
 183 0006 064B     		ldr	r3, .L23+4
 184 0008 CA68     		ldr	r2, [r1, #12]
 185 000a 02F4E062 		and	r2, r2, #1792
 186 000e 1343     		orrs	r3, r3, r2
 187 0010 CB60     		str	r3, [r1, #12]
 188              		.syntax unified
 189              	@ 879 "Drivers/CMSIS/Include/cmsis_gcc.h" 1
 190 0012 BFF34F8F 		dsb 0xF
 191              	@ 0 "" 2
 192              		.thumb
 193              		.syntax unified
 194              	.L22:
 195              		.syntax unified
 196              	@ 1773 "Drivers/CMSIS/Include/core_cm3.h" 1
 197 0016 00BF     		nop
 198              	@ 0 "" 2
 199              		.thumb
 200              		.syntax unified
 201 0018 FDE7     		b	.L22
 202              	.L24:
 203 001a 00BF     		.align	2
 204              	.L23:
 205 001c 00ED00E0 		.word	-536810240
 206 0020 0400FA05 		.word	100270084
 208              		.section	.text.HAL_SYSTICK_Config,"ax",%progbits
 209              		.align	1
 210              		.p2align 2,,3
 211              		.global	HAL_SYSTICK_Config
 212              		.syntax unified
 213              		.thumb
 214              		.thumb_func
 216              	HAL_SYSTICK_Config:
 217              		@ args = 0, pretend = 0, frame = 0
 218              		@ frame_needed = 0, uses_anonymous_args = 0
 219              		@ link register save eliminated.
 220 0000 0138     		subs	r0, r0, #1
 221 0002 B0F1807F 		cmp	r0, #16777216
 222 0006 01D3     		bcc	.L32
 223 0008 0120     		movs	r0, #1
 224 000a 7047     		bx	lr
 225              	.L32:
 226 000c 4FF0E023 		mov	r3, #-536813568
 227 0010 4FF0F00C 		mov	ip, #240
 228 0014 0022     		movs	r2, #0
 229 0016 0721     		movs	r1, #7
 230 0018 10B4     		push	{r4}
 231 001a 044C     		ldr	r4, .L33
 232 001c 5861     		str	r0, [r3, #20]
 233 001e 84F823C0 		strb	ip, [r4, #35]
 234 0022 1046     		mov	r0, r2
 235 0024 9A61     		str	r2, [r3, #24]
 236 0026 10BC     		pop	{r4}
 237 0028 1961     		str	r1, [r3, #16]
 238 002a 7047     		bx	lr
 239              	.L34:
ARM GAS  /var/folders/td/83895s255bq6rlxfmrv9fnww0000gn/T//ccstNPIk.s 			page 5


 240              		.align	2
 241              	.L33:
 242 002c 00ED00E0 		.word	-536810240
 244              		.section	.text.HAL_NVIC_GetPriorityGrouping,"ax",%progbits
 245              		.align	1
 246              		.p2align 2,,3
 247              		.global	HAL_NVIC_GetPriorityGrouping
 248              		.syntax unified
 249              		.thumb
 250              		.thumb_func
 252              	HAL_NVIC_GetPriorityGrouping:
 253              		@ args = 0, pretend = 0, frame = 0
 254              		@ frame_needed = 0, uses_anonymous_args = 0
 255              		@ link register save eliminated.
 256 0000 024B     		ldr	r3, .L36
 257 0002 D868     		ldr	r0, [r3, #12]
 258 0004 C0F30220 		ubfx	r0, r0, #8, #3
 259 0008 7047     		bx	lr
 260              	.L37:
 261 000a 00BF     		.align	2
 262              	.L36:
 263 000c 00ED00E0 		.word	-536810240
 265              		.section	.text.HAL_NVIC_GetPriority,"ax",%progbits
 266              		.align	1
 267              		.p2align 2,,3
 268              		.global	HAL_NVIC_GetPriority
 269              		.syntax unified
 270              		.thumb
 271              		.thumb_func
 273              	HAL_NVIC_GetPriority:
 274              		@ args = 0, pretend = 0, frame = 0
 275              		@ frame_needed = 0, uses_anonymous_args = 0
 276              		@ link register save eliminated.
 277 0000 0028     		cmp	r0, #0
 278 0002 10B4     		push	{r4}
 279 0004 26DB     		blt	.L39
 280 0006 00F16040 		add	r0, r0, #-536870912
 281 000a 00F56140 		add	r0, r0, #57600
 282 000e 90F80003 		ldrb	r0, [r0, #768]	@ zero_extendqisi2
 283 0012 0009     		lsrs	r0, r0, #4
 284              	.L40:
 285 0014 01F00701 		and	r1, r1, #7
 286 0018 C1F1070C 		rsb	ip, r1, #7
 287 001c BCF1040F 		cmp	ip, #4
 288 0020 01F10404 		add	r4, r1, #4
 289 0024 28BF     		it	cs
 290 0026 4FF0040C 		movcs	ip, #4
 291 002a 062C     		cmp	r4, #6
 292 002c 10D9     		bls	.L42
 293 002e 4FF0FF34 		mov	r4, #-1
 294 0032 0339     		subs	r1, r1, #3
 295 0034 8C40     		lsls	r4, r4, r1
 296 0036 20EA0404 		bic	r4, r0, r4
 297 003a C840     		lsrs	r0, r0, r1
 298              	.L41:
 299 003c 4FF0FF31 		mov	r1, #-1
 300 0040 01FA0CF1 		lsl	r1, r1, ip
ARM GAS  /var/folders/td/83895s255bq6rlxfmrv9fnww0000gn/T//ccstNPIk.s 			page 6


 301 0044 20EA0100 		bic	r0, r0, r1
 302 0048 1060     		str	r0, [r2]
 303 004a 1C60     		str	r4, [r3]
 304 004c 10BC     		pop	{r4}
 305 004e 7047     		bx	lr
 306              	.L42:
 307 0050 0024     		movs	r4, #0
 308 0052 F3E7     		b	.L41
 309              	.L39:
 310 0054 034C     		ldr	r4, .L44
 311 0056 00F00F00 		and	r0, r0, #15
 312 005a 0444     		add	r4, r4, r0
 313 005c 207E     		ldrb	r0, [r4, #24]	@ zero_extendqisi2
 314 005e 0009     		lsrs	r0, r0, #4
 315 0060 D8E7     		b	.L40
 316              	.L45:
 317 0062 00BF     		.align	2
 318              	.L44:
 319 0064 FCEC00E0 		.word	-536810244
 321              		.section	.text.HAL_NVIC_SetPendingIRQ,"ax",%progbits
 322              		.align	1
 323              		.p2align 2,,3
 324              		.global	HAL_NVIC_SetPendingIRQ
 325              		.syntax unified
 326              		.thumb
 327              		.thumb_func
 329              	HAL_NVIC_SetPendingIRQ:
 330              		@ args = 0, pretend = 0, frame = 0
 331              		@ frame_needed = 0, uses_anonymous_args = 0
 332              		@ link register save eliminated.
 333 0000 0028     		cmp	r0, #0
 334 0002 08DB     		blt	.L46
 335 0004 0122     		movs	r2, #1
 336 0006 4309     		lsrs	r3, r0, #5
 337 0008 0349     		ldr	r1, .L48
 338 000a 00F01F00 		and	r0, r0, #31
 339 000e 4033     		adds	r3, r3, #64
 340 0010 8240     		lsls	r2, r2, r0
 341 0012 41F82320 		str	r2, [r1, r3, lsl #2]
 342              	.L46:
 343 0016 7047     		bx	lr
 344              	.L49:
 345              		.align	2
 346              	.L48:
 347 0018 00E100E0 		.word	-536813312
 349              		.section	.text.HAL_NVIC_GetPendingIRQ,"ax",%progbits
 350              		.align	1
 351              		.p2align 2,,3
 352              		.global	HAL_NVIC_GetPendingIRQ
 353              		.syntax unified
 354              		.thumb
 355              		.thumb_func
 357              	HAL_NVIC_GetPendingIRQ:
 358              		@ args = 0, pretend = 0, frame = 0
 359              		@ frame_needed = 0, uses_anonymous_args = 0
 360              		@ link register save eliminated.
 361 0000 0028     		cmp	r0, #0
ARM GAS  /var/folders/td/83895s255bq6rlxfmrv9fnww0000gn/T//ccstNPIk.s 			page 7


 362 0002 0BDB     		blt	.L52
 363 0004 064A     		ldr	r2, .L53
 364 0006 4309     		lsrs	r3, r0, #5
 365 0008 4033     		adds	r3, r3, #64
 366 000a 52F82330 		ldr	r3, [r2, r3, lsl #2]
 367 000e 00F01F00 		and	r0, r0, #31
 368 0012 23FA00F0 		lsr	r0, r3, r0
 369 0016 00F00100 		and	r0, r0, #1
 370 001a 7047     		bx	lr
 371              	.L52:
 372 001c 0020     		movs	r0, #0
 373 001e 7047     		bx	lr
 374              	.L54:
 375              		.align	2
 376              	.L53:
 377 0020 00E100E0 		.word	-536813312
 379              		.section	.text.HAL_NVIC_ClearPendingIRQ,"ax",%progbits
 380              		.align	1
 381              		.p2align 2,,3
 382              		.global	HAL_NVIC_ClearPendingIRQ
 383              		.syntax unified
 384              		.thumb
 385              		.thumb_func
 387              	HAL_NVIC_ClearPendingIRQ:
 388              		@ args = 0, pretend = 0, frame = 0
 389              		@ frame_needed = 0, uses_anonymous_args = 0
 390              		@ link register save eliminated.
 391 0000 0028     		cmp	r0, #0
 392 0002 08DB     		blt	.L55
 393 0004 0122     		movs	r2, #1
 394 0006 4309     		lsrs	r3, r0, #5
 395 0008 0349     		ldr	r1, .L57
 396 000a 00F01F00 		and	r0, r0, #31
 397 000e 6033     		adds	r3, r3, #96
 398 0010 8240     		lsls	r2, r2, r0
 399 0012 41F82320 		str	r2, [r1, r3, lsl #2]
 400              	.L55:
 401 0016 7047     		bx	lr
 402              	.L58:
 403              		.align	2
 404              	.L57:
 405 0018 00E100E0 		.word	-536813312
 407              		.section	.text.HAL_NVIC_GetActive,"ax",%progbits
 408              		.align	1
 409              		.p2align 2,,3
 410              		.global	HAL_NVIC_GetActive
 411              		.syntax unified
 412              		.thumb
 413              		.thumb_func
 415              	HAL_NVIC_GetActive:
 416              		@ args = 0, pretend = 0, frame = 0
 417              		@ frame_needed = 0, uses_anonymous_args = 0
 418              		@ link register save eliminated.
 419 0000 0028     		cmp	r0, #0
 420 0002 0BDB     		blt	.L61
 421 0004 064A     		ldr	r2, .L62
 422 0006 4309     		lsrs	r3, r0, #5
ARM GAS  /var/folders/td/83895s255bq6rlxfmrv9fnww0000gn/T//ccstNPIk.s 			page 8


 423 0008 8033     		adds	r3, r3, #128
 424 000a 52F82330 		ldr	r3, [r2, r3, lsl #2]
 425 000e 00F01F00 		and	r0, r0, #31
 426 0012 23FA00F0 		lsr	r0, r3, r0
 427 0016 00F00100 		and	r0, r0, #1
 428 001a 7047     		bx	lr
 429              	.L61:
 430 001c 0020     		movs	r0, #0
 431 001e 7047     		bx	lr
 432              	.L63:
 433              		.align	2
 434              	.L62:
 435 0020 00E100E0 		.word	-536813312
 437              		.section	.text.HAL_SYSTICK_CLKSourceConfig,"ax",%progbits
 438              		.align	1
 439              		.p2align 2,,3
 440              		.global	HAL_SYSTICK_CLKSourceConfig
 441              		.syntax unified
 442              		.thumb
 443              		.thumb_func
 445              	HAL_SYSTICK_CLKSourceConfig:
 446              		@ args = 0, pretend = 0, frame = 0
 447              		@ frame_needed = 0, uses_anonymous_args = 0
 448              		@ link register save eliminated.
 449 0000 4FF0E022 		mov	r2, #-536813568
 450 0004 1369     		ldr	r3, [r2, #16]
 451 0006 0428     		cmp	r0, #4
 452 0008 0CBF     		ite	eq
 453 000a 43F00403 		orreq	r3, r3, #4
 454 000e 23F00403 		bicne	r3, r3, #4
 455 0012 1361     		str	r3, [r2, #16]
 456 0014 7047     		bx	lr
 458 0016 00BF     		.section	.text.HAL_SYSTICK_Callback,"ax",%progbits
 459              		.align	1
 460              		.p2align 2,,3
 461              		.weak	HAL_SYSTICK_Callback
 462              		.syntax unified
 463              		.thumb
 464              		.thumb_func
 466              	HAL_SYSTICK_Callback:
 467              		@ args = 0, pretend = 0, frame = 0
 468              		@ frame_needed = 0, uses_anonymous_args = 0
 469              		@ link register save eliminated.
 470 0000 7047     		bx	lr
 472 0002 00BF     		.section	.text.HAL_SYSTICK_IRQHandler,"ax",%progbits
 473              		.align	1
 474              		.p2align 2,,3
 475              		.global	HAL_SYSTICK_IRQHandler
 476              		.syntax unified
 477              		.thumb
 478              		.thumb_func
 480              	HAL_SYSTICK_IRQHandler:
 481              		@ args = 0, pretend = 0, frame = 0
 482              		@ frame_needed = 0, uses_anonymous_args = 0
 483 0000 08B5     		push	{r3, lr}
 484 0002 FFF7FEFF 		bl	HAL_SYSTICK_Callback
 485 0006 08BD     		pop	{r3, pc}
ARM GAS  /var/folders/td/83895s255bq6rlxfmrv9fnww0000gn/T//ccstNPIk.s 			page 9


 487              		.ident	"GCC: (Arm GNU Toolchain 13.2.rel1 (Build arm-13.7)) 13.2.1 20231009"
ARM GAS  /var/folders/td/83895s255bq6rlxfmrv9fnww0000gn/T//ccstNPIk.s 			page 10

