ARM GAS  /var/folders/td/83895s255bq6rlxfmrv9fnww0000gn/T//cc420VyG.s 			page 1


   1              		.cpu cortex-m3
   2              		.arch armv7-m
   3              		.fpu softvfp
   4              		.eabi_attribute 20, 1
   5              		.eabi_attribute 21, 1
   6              		.eabi_attribute 23, 3
   7              		.eabi_attribute 24, 1
   8              		.eabi_attribute 25, 1
   9              		.eabi_attribute 26, 1
  10              		.eabi_attribute 30, 2
  11              		.eabi_attribute 34, 1
  12              		.eabi_attribute 18, 4
  13              		.file	"stm32f1xx_ll_usb.c"
  14              		.text
  15              		.section	.text.USB_CoreInit,"ax",%progbits
  16              		.align	1
  17              		.p2align 2,,3
  18              		.global	USB_CoreInit
  19              		.syntax unified
  20              		.thumb
  21              		.thumb_func
  23              	USB_CoreInit:
  24              		@ args = 36, pretend = 16, frame = 0
  25              		@ frame_needed = 0, uses_anonymous_args = 0
  26              		@ link register save eliminated.
  27 0000 84B0     		sub	sp, sp, #16
  28 0002 01A8     		add	r0, sp, #4
  29 0004 80E80E00 		stm	r0, {r1, r2, r3}
  30 0008 04B0     		add	sp, sp, #16
  31 000a 0020     		movs	r0, #0
  32 000c 7047     		bx	lr
  34 000e 00BF     		.section	.text.USB_EnableGlobalInt,"ax",%progbits
  35              		.align	1
  36              		.p2align 2,,3
  37              		.global	USB_EnableGlobalInt
  38              		.syntax unified
  39              		.thumb
  40              		.thumb_func
  42              	USB_EnableGlobalInt:
  43              		@ args = 0, pretend = 0, frame = 0
  44              		@ frame_needed = 0, uses_anonymous_args = 0
  45              		@ link register save eliminated.
  46 0000 0346     		mov	r3, r0
  47 0002 0022     		movs	r2, #0
  48 0004 4FF43F41 		mov	r1, #48896
  49 0008 A3F84420 		strh	r2, [r3, #68]	@ movhi
  50 000c 1046     		mov	r0, r2
  51 000e A3F84010 		strh	r1, [r3, #64]	@ movhi
  52 0012 7047     		bx	lr
  54              		.section	.text.USB_DisableGlobalInt,"ax",%progbits
  55              		.align	1
  56              		.p2align 2,,3
  57              		.global	USB_DisableGlobalInt
  58              		.syntax unified
  59              		.thumb
  60              		.thumb_func
  62              	USB_DisableGlobalInt:
ARM GAS  /var/folders/td/83895s255bq6rlxfmrv9fnww0000gn/T//cc420VyG.s 			page 2


  63              		@ args = 0, pretend = 0, frame = 0
  64              		@ frame_needed = 0, uses_anonymous_args = 0
  65              		@ link register save eliminated.
  66 0000 0346     		mov	r3, r0
  67 0002 44F2FF02 		movw	r2, #16639
  68 0006 B3F84010 		ldrh	r1, [r3, #64]
  69 000a 0020     		movs	r0, #0
  70 000c 0A40     		ands	r2, r2, r1
  71 000e A3F84020 		strh	r2, [r3, #64]	@ movhi
  72 0012 7047     		bx	lr
  74              		.section	.text.USB_SetCurrentMode,"ax",%progbits
  75              		.align	1
  76              		.p2align 2,,3
  77              		.global	USB_SetCurrentMode
  78              		.syntax unified
  79              		.thumb
  80              		.thumb_func
  82              	USB_SetCurrentMode:
  83              		@ args = 0, pretend = 0, frame = 0
  84              		@ frame_needed = 0, uses_anonymous_args = 0
  85              		@ link register save eliminated.
  86 0000 0020     		movs	r0, #0
  87 0002 7047     		bx	lr
  89              		.section	.text.USB_DevInit,"ax",%progbits
  90              		.align	1
  91              		.p2align 2,,3
  92              		.global	USB_DevInit
  93              		.syntax unified
  94              		.thumb
  95              		.thumb_func
  97              	USB_DevInit:
  98              		@ args = 36, pretend = 16, frame = 0
  99              		@ frame_needed = 0, uses_anonymous_args = 0
 100              		@ link register save eliminated.
 101 0000 84B0     		sub	sp, sp, #16
 102 0002 0DF1040C 		add	ip, sp, #4
 103 0006 8CE80E00 		stm	ip, {r1, r2, r3}
 104 000a 0346     		mov	r3, r0
 105 000c 0022     		movs	r2, #0
 106 000e 0121     		movs	r1, #1
 107 0010 1046     		mov	r0, r2
 108 0012 A3F84010 		strh	r1, [r3, #64]	@ movhi
 109 0016 04B0     		add	sp, sp, #16
 110 0018 A3F84020 		strh	r2, [r3, #64]	@ movhi
 111 001c A3F84420 		strh	r2, [r3, #68]	@ movhi
 112 0020 A3F85020 		strh	r2, [r3, #80]	@ movhi
 113 0024 7047     		bx	lr
 115 0026 00BF     		.section	.text.USB_FlushTxFifo,"ax",%progbits
 116              		.align	1
 117              		.p2align 2,,3
 118              		.global	USB_FlushTxFifo
 119              		.syntax unified
 120              		.thumb
 121              		.thumb_func
 123              	USB_FlushTxFifo:
 124              		@ args = 0, pretend = 0, frame = 0
 125              		@ frame_needed = 0, uses_anonymous_args = 0
ARM GAS  /var/folders/td/83895s255bq6rlxfmrv9fnww0000gn/T//cc420VyG.s 			page 3


 126              		@ link register save eliminated.
 127 0000 0020     		movs	r0, #0
 128 0002 7047     		bx	lr
 130              		.section	.text.USB_FlushRxFifo,"ax",%progbits
 131              		.align	1
 132              		.p2align 2,,3
 133              		.global	USB_FlushRxFifo
 134              		.syntax unified
 135              		.thumb
 136              		.thumb_func
 138              	USB_FlushRxFifo:
 139              		@ args = 0, pretend = 0, frame = 0
 140              		@ frame_needed = 0, uses_anonymous_args = 0
 141              		@ link register save eliminated.
 142 0000 0020     		movs	r0, #0
 143 0002 7047     		bx	lr
 145              		.section	.text.USB_ActivateEndpoint,"ax",%progbits
 146              		.align	1
 147              		.p2align 2,,3
 148              		.global	USB_ActivateEndpoint
 149              		.syntax unified
 150              		.thumb
 151              		.thumb_func
 153              	USB_ActivateEndpoint:
 154              		@ args = 0, pretend = 0, frame = 0
 155              		@ frame_needed = 0, uses_anonymous_args = 0
 156 0000 70B5     		push	{r4, r5, r6, lr}
 157 0002 0A78     		ldrb	r2, [r1]	@ zero_extendqisi2
 158 0004 0346     		mov	r3, r0
 159 0006 30F82200 		ldrh	r0, [r0, r2, lsl #2]
 160 000a 91F803E0 		ldrb	lr, [r1, #3]	@ zero_extendqisi2
 161 000e 20F4EC40 		bic	r0, r0, #30208
 162 0012 20F07000 		bic	r0, r0, #112
 163 0016 0004     		lsls	r0, r0, #16
 164 0018 000C     		lsrs	r0, r0, #16
 165 001a BEF1030F 		cmp	lr, #3
 166 001e 00F29E81 		bhi	.L12
 167 0022 DFE80EF0 		tbb	[pc, lr]
 168              	.L14:
 169 0026 CF       		.byte	(.L17-.L14)/2
 170 0027 D2       		.byte	(.L16-.L14)/2
 171 0028 86       		.byte	(.L15-.L14)/2
 172 0029 02       		.byte	(.L13-.L14)/2
 173              		.p2align 1
 174              	.L13:
 175 002a 40F4C060 		orr	r0, r0, #1536
 176              	.L18:
 177 002e 48F2800C 		movw	ip, #32896
 178 0032 40EA0C00 		orr	r0, r0, ip
 179 0036 23F82200 		strh	r0, [r3, r2, lsl #2]	@ movhi
 180 003a 33F82200 		ldrh	r0, [r3, r2, lsl #2]
 181 003e 20F4E040 		bic	r0, r0, #28672
 182 0042 20F07000 		bic	r0, r0, #112
 183 0046 0004     		lsls	r0, r0, #16
 184 0048 000C     		lsrs	r0, r0, #16
 185 004a 1043     		orrs	r0, r0, r2
 186 004c 4CEA000C 		orr	ip, ip, r0
ARM GAS  /var/folders/td/83895s255bq6rlxfmrv9fnww0000gn/T//cc420VyG.s 			page 4


 187 0050 23F822C0 		strh	ip, [r3, r2, lsl #2]	@ movhi
 188 0054 087B     		ldrb	r0, [r1, #12]	@ zero_extendqisi2
 189 0056 0028     		cmp	r0, #0
 190 0058 7DD0     		beq	.L43
 191 005a 0020     		movs	r0, #0
 192              	.L19:
 193 005c 33F822C0 		ldrh	ip, [r3, r2, lsl #2]
 194 0060 2CF4E24C 		bic	ip, ip, #28928
 195 0064 2CF0700C 		bic	ip, ip, #112
 196 0068 4FEA0C4C 		lsl	ip, ip, #16
 197 006c 4FEA1C4C 		lsr	ip, ip, #16
 198 0070 4CF4004C 		orr	ip, ip, #32768
 199 0074 4CF0800C 		orr	ip, ip, #128
 200 0078 23F822C0 		strh	ip, [r3, r2, lsl #2]	@ movhi
 201              	.L31:
 202 007c B3F85040 		ldrh	r4, [r3, #80]
 203 0080 B1F808C0 		ldrh	ip, [r1, #8]
 204 0084 03EB0215 		add	r5, r3, r2, lsl #4
 205 0088 A4B2     		uxth	r4, r4
 206 008a 4FEA5C0C 		lsr	ip, ip, #1
 207 008e 4FEA4C0C 		lsl	ip, ip, #1
 208 0092 2C44     		add	r4, r4, r5
 209 0094 A4F800C4 		strh	ip, [r4, #1024]	@ movhi
 210 0098 4C89     		ldrh	r4, [r1, #10]
 211 009a B3F850C0 		ldrh	ip, [r3, #80]
 212 009e 6408     		lsrs	r4, r4, #1
 213 00a0 1FFA8CFC 		uxth	ip, ip
 214 00a4 AC44     		add	ip, ip, r5
 215 00a6 6400     		lsls	r4, r4, #1
 216 00a8 ACF80844 		strh	r4, [ip, #1032]	@ movhi
 217 00ac 4978     		ldrb	r1, [r1, #1]	@ zero_extendqisi2
 218 00ae 0029     		cmp	r1, #0
 219 00b0 40F0E180 		bne	.L32
 220 00b4 33F82210 		ldrh	r1, [r3, r2, lsl #2]
 221 00b8 4E04     		lsls	r6, r1, #17
 222 00ba 0DD5     		bpl	.L33
 223 00bc 33F82210 		ldrh	r1, [r3, r2, lsl #2]
 224 00c0 21F4E041 		bic	r1, r1, #28672
 225 00c4 21F07001 		bic	r1, r1, #112
 226 00c8 0904     		lsls	r1, r1, #16
 227 00ca 090C     		lsrs	r1, r1, #16
 228 00cc 41F44041 		orr	r1, r1, #49152
 229 00d0 41F08001 		orr	r1, r1, #128
 230 00d4 23F82210 		strh	r1, [r3, r2, lsl #2]	@ movhi
 231              	.L33:
 232 00d8 33F82210 		ldrh	r1, [r3, r2, lsl #2]
 233 00dc 4D06     		lsls	r5, r1, #25
 234 00de 0DD5     		bpl	.L34
 235 00e0 33F82210 		ldrh	r1, [r3, r2, lsl #2]
 236 00e4 21F4E041 		bic	r1, r1, #28672
 237 00e8 21F07001 		bic	r1, r1, #112
 238 00ec 0904     		lsls	r1, r1, #16
 239 00ee 090C     		lsrs	r1, r1, #16
 240 00f0 41F40041 		orr	r1, r1, #32768
 241 00f4 41F0C001 		orr	r1, r1, #192
 242 00f8 23F82210 		strh	r1, [r3, r2, lsl #2]	@ movhi
 243              	.L34:
ARM GAS  /var/folders/td/83895s255bq6rlxfmrv9fnww0000gn/T//cc420VyG.s 			page 5


 244 00fc 48F28004 		movw	r4, #32896
 245 0100 33F82210 		ldrh	r1, [r3, r2, lsl #2]
 246 0104 21F48041 		bic	r1, r1, #16384
 247 0108 21F07001 		bic	r1, r1, #112
 248 010c 0904     		lsls	r1, r1, #16
 249 010e 090C     		lsrs	r1, r1, #16
 250 0110 81F44051 		eor	r1, r1, #12288
 251 0114 2143     		orrs	r1, r1, r4
 252 0116 23F82210 		strh	r1, [r3, r2, lsl #2]	@ movhi
 253 011a 33F82210 		ldrh	r1, [r3, r2, lsl #2]
 254 011e 21F4E041 		bic	r1, r1, #28672
 255 0122 21F04001 		bic	r1, r1, #64
 256 0126 0904     		lsls	r1, r1, #16
 257 0128 090C     		lsrs	r1, r1, #16
 258 012a 0C43     		orrs	r4, r4, r1
 259 012c 23F82240 		strh	r4, [r3, r2, lsl #2]	@ movhi
 260 0130 70BD     		pop	{r4, r5, r6, pc}
 261              	.L15:
 262 0132 48F28004 		movw	r4, #32896
 263 0136 2043     		orrs	r0, r0, r4
 264 0138 23F82200 		strh	r0, [r3, r2, lsl #2]	@ movhi
 265 013c 33F82200 		ldrh	r0, [r3, r2, lsl #2]
 266 0140 924D     		ldr	r5, .L73
 267 0142 80B2     		uxth	r0, r0
 268 0144 2840     		ands	r0, r0, r5
 269 0146 1043     		orrs	r0, r0, r2
 270 0148 0443     		orrs	r4, r4, r0
 271 014a 23F82240 		strh	r4, [r3, r2, lsl #2]	@ movhi
 272 014e 087B     		ldrb	r0, [r1, #12]	@ zero_extendqisi2
 273 0150 0028     		cmp	r0, #0
 274 0152 40F0EA80 		bne	.L41
 275              	.L43:
 276 0156 0020     		movs	r0, #0
 277              	.L42:
 278 0158 CC88     		ldrh	r4, [r1, #6]
 279 015a 4E78     		ldrb	r6, [r1, #1]	@ zero_extendqisi2
 280 015c 6408     		lsrs	r4, r4, #1
 281 015e 6400     		lsls	r4, r4, #1
 282 0160 03EB0215 		add	r5, r3, r2, lsl #4
 283 0164 002E     		cmp	r6, #0
 284 0166 44D0     		beq	.L20
 285 0168 B3F85010 		ldrh	r1, [r3, #80]
 286 016c 89B2     		uxth	r1, r1
 287 016e 2944     		add	r1, r1, r5
 288 0170 A1F80044 		strh	r4, [r1, #1024]	@ movhi
 289 0174 33F82210 		ldrh	r1, [r3, r2, lsl #2]
 290 0178 4906     		lsls	r1, r1, #25
 291 017a 0DD5     		bpl	.L21
 292 017c 33F82210 		ldrh	r1, [r3, r2, lsl #2]
 293 0180 21F4E041 		bic	r1, r1, #28672
 294 0184 21F07001 		bic	r1, r1, #112
 295 0188 0904     		lsls	r1, r1, #16
 296 018a 090C     		lsrs	r1, r1, #16
 297 018c 41F40041 		orr	r1, r1, #32768
 298 0190 41F0C001 		orr	r1, r1, #192
 299 0194 23F82210 		strh	r1, [r3, r2, lsl #2]	@ movhi
 300              	.L21:
ARM GAS  /var/folders/td/83895s255bq6rlxfmrv9fnww0000gn/T//cc420VyG.s 			page 6


 301 0198 33F82210 		ldrh	r1, [r3, r2, lsl #2]
 302 019c BEF1010F 		cmp	lr, #1
 303 01a0 21F4E041 		bic	r1, r1, #28672
 304 01a4 21F04001 		bic	r1, r1, #64
 305 01a8 4FEA0141 		lsl	r1, r1, #16
 306 01ac 4FEA1141 		lsr	r1, r1, #16
 307 01b0 18D0     		beq	.L71
 308 01b2 81F02001 		eor	r1, r1, #32
 309 01b6 41F40041 		orr	r1, r1, #32768
 310 01ba 41F08001 		orr	r1, r1, #128
 311 01be 23F82210 		strh	r1, [r3, r2, lsl #2]	@ movhi
 312 01c2 70BD     		pop	{r4, r5, r6, pc}
 313              	.L17:
 314 01c4 40F40070 		orr	r0, r0, #512
 315 01c8 31E7     		b	.L18
 316              	.L16:
 317 01ca 40F48060 		orr	r0, r0, #1024
 318 01ce 2EE7     		b	.L18
 319              	.L30:
 320 01d0 33F82210 		ldrh	r1, [r3, r2, lsl #2]
 321 01d4 21F48041 		bic	r1, r1, #16384
 322 01d8 21F07001 		bic	r1, r1, #112
 323 01dc 0904     		lsls	r1, r1, #16
 324 01de 090C     		lsrs	r1, r1, #16
 325 01e0 81F40051 		eor	r1, r1, #8192
 326              	.L71:
 327 01e4 41F40041 		orr	r1, r1, #32768
 328 01e8 41F08001 		orr	r1, r1, #128
 329 01ec 23F82210 		strh	r1, [r3, r2, lsl #2]	@ movhi
 330 01f0 70BD     		pop	{r4, r5, r6, pc}
 331              	.L20:
 332 01f2 0E69     		ldr	r6, [r1, #16]
 333 01f4 B3F85010 		ldrh	r1, [r3, #80]
 334 01f8 3E2E     		cmp	r6, #62
 335 01fa 89B2     		uxth	r1, r1
 336 01fc 2944     		add	r1, r1, r5
 337 01fe A1F80844 		strh	r4, [r1, #1032]	@ movhi
 338 0202 B3F85010 		ldrh	r1, [r3, #80]
 339 0206 89B2     		uxth	r1, r1
 340 0208 2944     		add	r1, r1, r5
 341 020a B1F80C44 		ldrh	r4, [r1, #1036]
 342 020e C4F30904 		ubfx	r4, r4, #0, #10
 343 0212 A1F80C44 		strh	r4, [r1, #1036]	@ movhi
 344 0216 76D8     		bhi	.L72
 345 0218 002E     		cmp	r6, #0
 346 021a 40F09280 		bne	.L27
 347 021e B1F80C44 		ldrh	r4, [r1, #1036]
 348 0222 6FEA4444 		mvn	r4, r4, lsl #17
 349 0226 6FEA5444 		mvn	r4, r4, lsr #17
 350 022a A4B2     		uxth	r4, r4
 351 022c A1F80C44 		strh	r4, [r1, #1036]	@ movhi
 352              	.L26:
 353 0230 33F82210 		ldrh	r1, [r3, r2, lsl #2]
 354 0234 4904     		lsls	r1, r1, #17
 355 0236 0DD5     		bpl	.L29
 356 0238 33F82210 		ldrh	r1, [r3, r2, lsl #2]
 357 023c 21F4E041 		bic	r1, r1, #28672
ARM GAS  /var/folders/td/83895s255bq6rlxfmrv9fnww0000gn/T//cc420VyG.s 			page 7


 358 0240 21F07001 		bic	r1, r1, #112
 359 0244 0904     		lsls	r1, r1, #16
 360 0246 090C     		lsrs	r1, r1, #16
 361 0248 41F44041 		orr	r1, r1, #49152
 362 024c 41F08001 		orr	r1, r1, #128
 363 0250 23F82210 		strh	r1, [r3, r2, lsl #2]	@ movhi
 364              	.L29:
 365 0254 002A     		cmp	r2, #0
 366 0256 BBD1     		bne	.L30
 367 0258 1A88     		ldrh	r2, [r3]
 368 025a 22F48042 		bic	r2, r2, #16384
 369 025e 22F07002 		bic	r2, r2, #112
 370 0262 1204     		lsls	r2, r2, #16
 371 0264 120C     		lsrs	r2, r2, #16
 372 0266 82F44052 		eor	r2, r2, #12288
 373 026a 42F40042 		orr	r2, r2, #32768
 374 026e 42F08002 		orr	r2, r2, #128
 375 0272 1A80     		strh	r2, [r3]	@ movhi
 376 0274 70BD     		pop	{r4, r5, r6, pc}
 377              	.L32:
 378 0276 33F82210 		ldrh	r1, [r3, r2, lsl #2]
 379 027a 4C04     		lsls	r4, r1, #17
 380 027c 0DD5     		bpl	.L36
 381 027e 33F82210 		ldrh	r1, [r3, r2, lsl #2]
 382 0282 21F4E041 		bic	r1, r1, #28672
 383 0286 21F07001 		bic	r1, r1, #112
 384 028a 0904     		lsls	r1, r1, #16
 385 028c 090C     		lsrs	r1, r1, #16
 386 028e 41F44041 		orr	r1, r1, #49152
 387 0292 41F08001 		orr	r1, r1, #128
 388 0296 23F82210 		strh	r1, [r3, r2, lsl #2]	@ movhi
 389              	.L36:
 390 029a 33F82210 		ldrh	r1, [r3, r2, lsl #2]
 391 029e 4906     		lsls	r1, r1, #25
 392 02a0 0DD5     		bpl	.L37
 393 02a2 33F82210 		ldrh	r1, [r3, r2, lsl #2]
 394 02a6 21F4E041 		bic	r1, r1, #28672
 395 02aa 21F07001 		bic	r1, r1, #112
 396 02ae 0904     		lsls	r1, r1, #16
 397 02b0 090C     		lsrs	r1, r1, #16
 398 02b2 41F40041 		orr	r1, r1, #32768
 399 02b6 41F0C001 		orr	r1, r1, #192
 400 02ba 23F82210 		strh	r1, [r3, r2, lsl #2]	@ movhi
 401              	.L37:
 402 02be 33F82210 		ldrh	r1, [r3, r2, lsl #2]
 403 02c2 BEF1010F 		cmp	lr, #1
 404 02c6 21F4E041 		bic	r1, r1, #28672
 405 02ca 21F04001 		bic	r1, r1, #64
 406 02ce 4FEA0141 		lsl	r1, r1, #16
 407 02d2 4FEA1141 		lsr	r1, r1, #16
 408 02d6 18BF     		it	ne
 409 02d8 81F02001 		eorne	r1, r1, #32
 410 02dc 41F40041 		orr	r1, r1, #32768
 411 02e0 41F08001 		orr	r1, r1, #128
 412 02e4 23F82210 		strh	r1, [r3, r2, lsl #2]	@ movhi
 413 02e8 33F82210 		ldrh	r1, [r3, r2, lsl #2]
 414 02ec 21F48041 		bic	r1, r1, #16384
ARM GAS  /var/folders/td/83895s255bq6rlxfmrv9fnww0000gn/T//cc420VyG.s 			page 8


 415 02f0 21F07001 		bic	r1, r1, #112
 416 02f4 0904     		lsls	r1, r1, #16
 417 02f6 090C     		lsrs	r1, r1, #16
 418 02f8 41F40041 		orr	r1, r1, #32768
 419 02fc 41F08001 		orr	r1, r1, #128
 420 0300 23F82210 		strh	r1, [r3, r2, lsl #2]	@ movhi
 421 0304 70BD     		pop	{r4, r5, r6, pc}
 422              	.L72:
 423 0306 B1F80C44 		ldrh	r4, [r1, #1036]
 424 030a 7509     		lsrs	r5, r6, #5
 425 030c F606     		lsls	r6, r6, #27
 426 030e 08BF     		it	eq
 427 0310 05F1FF35 		addeq	r5, r5, #-1
 428 0314 A4B2     		uxth	r4, r4
 429 0316 44EA8524 		orr	r4, r4, r5, lsl #10
 430 031a 6FEA4444 		mvn	r4, r4, lsl #17
 431 031e 6FEA5444 		mvn	r4, r4, lsr #17
 432 0322 A4B2     		uxth	r4, r4
 433 0324 A1F80C44 		strh	r4, [r1, #1036]	@ movhi
 434 0328 82E7     		b	.L26
 435              	.L41:
 436 032a 33F82200 		ldrh	r0, [r3, r2, lsl #2]
 437 032e 80B2     		uxth	r0, r0
 438 0330 2840     		ands	r0, r0, r5
 439 0332 40F40140 		orr	r0, r0, #33024
 440 0336 40F08000 		orr	r0, r0, #128
 441 033a 23F82200 		strh	r0, [r3, r2, lsl #2]	@ movhi
 442 033e 0020     		movs	r0, #0
 443 0340 9CE6     		b	.L31
 444              	.L27:
 445 0342 F407     		lsls	r4, r6, #31
 446 0344 B1F80C44 		ldrh	r4, [r1, #1036]
 447 0348 4FEA5605 		lsr	r5, r6, #1
 448 034c 48BF     		it	mi
 449 034e 0135     		addmi	r5, r5, #1
 450 0350 A4B2     		uxth	r4, r4
 451 0352 44EA8524 		orr	r4, r4, r5, lsl #10
 452 0356 A4B2     		uxth	r4, r4
 453 0358 A1F80C44 		strh	r4, [r1, #1036]	@ movhi
 454 035c 68E7     		b	.L26
 455              	.L12:
 456 035e 48F28004 		movw	r4, #32896
 457 0362 2043     		orrs	r0, r0, r4
 458 0364 23F82200 		strh	r0, [r3, r2, lsl #2]	@ movhi
 459 0368 33F82200 		ldrh	r0, [r3, r2, lsl #2]
 460 036c 20F4E040 		bic	r0, r0, #28672
 461 0370 20F07000 		bic	r0, r0, #112
 462 0374 0004     		lsls	r0, r0, #16
 463 0376 000C     		lsrs	r0, r0, #16
 464 0378 1043     		orrs	r0, r0, r2
 465 037a 0443     		orrs	r4, r4, r0
 466 037c 23F82240 		strh	r4, [r3, r2, lsl #2]	@ movhi
 467 0380 087B     		ldrb	r0, [r1, #12]	@ zero_extendqisi2
 468 0382 08B9     		cbnz	r0, .L44
 469 0384 0120     		movs	r0, #1
 470 0386 E7E6     		b	.L42
 471              	.L44:
ARM GAS  /var/folders/td/83895s255bq6rlxfmrv9fnww0000gn/T//cc420VyG.s 			page 9


 472 0388 0120     		movs	r0, #1
 473 038a 67E6     		b	.L19
 474              	.L74:
 475              		.align	2
 476              	.L73:
 477 038c 8F8FFFFF 		.word	-28785
 479              		.section	.text.USB_DeactivateEndpoint,"ax",%progbits
 480              		.align	1
 481              		.p2align 2,,3
 482              		.global	USB_DeactivateEndpoint
 483              		.syntax unified
 484              		.thumb
 485              		.thumb_func
 487              	USB_DeactivateEndpoint:
 488              		@ args = 0, pretend = 0, frame = 0
 489              		@ frame_needed = 0, uses_anonymous_args = 0
 490              		@ link register save eliminated.
 491 0000 10B4     		push	{r4}
 492 0002 0C7B     		ldrb	r4, [r1, #12]	@ zero_extendqisi2
 493 0004 4A78     		ldrb	r2, [r1, #1]	@ zero_extendqisi2
 494 0006 0B78     		ldrb	r3, [r1]	@ zero_extendqisi2
 495 0008 C4B9     		cbnz	r4, .L76
 496 000a 002A     		cmp	r2, #0
 497 000c 00F0B280 		beq	.L77
 498 0010 30F82320 		ldrh	r2, [r0, r3, lsl #2]
 499 0014 5406     		lsls	r4, r2, #25
 500 0016 00F1C680 		bmi	.L106
 501              	.L78:
 502 001a 30F82320 		ldrh	r2, [r0, r3, lsl #2]
 503 001e 22F4E042 		bic	r2, r2, #28672
 504 0022 22F04002 		bic	r2, r2, #64
 505              	.L105:
 506 0026 1204     		lsls	r2, r2, #16
 507 0028 120C     		lsrs	r2, r2, #16
 508 002a 42F40042 		orr	r2, r2, #32768
 509 002e 42F08002 		orr	r2, r2, #128
 510 0032 20F82320 		strh	r2, [r0, r3, lsl #2]	@ movhi
 511 0036 10BC     		pop	{r4}
 512 0038 0020     		movs	r0, #0
 513 003a 7047     		bx	lr
 514              	.L76:
 515 003c 002A     		cmp	r2, #0
 516 003e 4CD1     		bne	.L81
 517 0040 30F82320 		ldrh	r2, [r0, r3, lsl #2]
 518 0044 5204     		lsls	r2, r2, #17
 519 0046 0DD5     		bpl	.L82
 520 0048 30F82320 		ldrh	r2, [r0, r3, lsl #2]
 521 004c 22F4E042 		bic	r2, r2, #28672
 522 0050 22F07002 		bic	r2, r2, #112
 523 0054 1204     		lsls	r2, r2, #16
 524 0056 120C     		lsrs	r2, r2, #16
 525 0058 42F44042 		orr	r2, r2, #49152
 526 005c 42F08002 		orr	r2, r2, #128
 527 0060 20F82320 		strh	r2, [r0, r3, lsl #2]	@ movhi
 528              	.L82:
 529 0064 30F82320 		ldrh	r2, [r0, r3, lsl #2]
 530 0068 5406     		lsls	r4, r2, #25
ARM GAS  /var/folders/td/83895s255bq6rlxfmrv9fnww0000gn/T//cc420VyG.s 			page 10


 531 006a 0DD5     		bpl	.L83
 532 006c 30F82320 		ldrh	r2, [r0, r3, lsl #2]
 533 0070 22F4E042 		bic	r2, r2, #28672
 534 0074 22F07002 		bic	r2, r2, #112
 535 0078 1204     		lsls	r2, r2, #16
 536 007a 120C     		lsrs	r2, r2, #16
 537 007c 42F40042 		orr	r2, r2, #32768
 538 0080 42F0C002 		orr	r2, r2, #192
 539 0084 20F82320 		strh	r2, [r0, r3, lsl #2]	@ movhi
 540              	.L83:
 541 0088 48F28001 		movw	r1, #32896
 542 008c 30F82320 		ldrh	r2, [r0, r3, lsl #2]
 543 0090 10BC     		pop	{r4}
 544 0092 22F4E042 		bic	r2, r2, #28672
 545 0096 22F07002 		bic	r2, r2, #112
 546 009a 1204     		lsls	r2, r2, #16
 547 009c 120C     		lsrs	r2, r2, #16
 548 009e 42F40042 		orr	r2, r2, #32768
 549 00a2 42F0C002 		orr	r2, r2, #192
 550 00a6 20F82320 		strh	r2, [r0, r3, lsl #2]	@ movhi
 551 00aa 30F82320 		ldrh	r2, [r0, r3, lsl #2]
 552 00ae 22F48042 		bic	r2, r2, #16384
 553 00b2 22F07002 		bic	r2, r2, #112
 554 00b6 1204     		lsls	r2, r2, #16
 555 00b8 120C     		lsrs	r2, r2, #16
 556 00ba 0A43     		orrs	r2, r2, r1
 557 00bc 20F82320 		strh	r2, [r0, r3, lsl #2]	@ movhi
 558 00c0 30F82320 		ldrh	r2, [r0, r3, lsl #2]
 559 00c4 22F4E042 		bic	r2, r2, #28672
 560 00c8 22F04002 		bic	r2, r2, #64
 561 00cc 1204     		lsls	r2, r2, #16
 562 00ce 120C     		lsrs	r2, r2, #16
 563 00d0 1143     		orrs	r1, r1, r2
 564 00d2 20F82310 		strh	r1, [r0, r3, lsl #2]	@ movhi
 565 00d6 0020     		movs	r0, #0
 566 00d8 7047     		bx	lr
 567              	.L81:
 568 00da 30F82320 		ldrh	r2, [r0, r3, lsl #2]
 569 00de 5104     		lsls	r1, r2, #17
 570 00e0 0DD5     		bpl	.L84
 571 00e2 30F82320 		ldrh	r2, [r0, r3, lsl #2]
 572 00e6 22F4E042 		bic	r2, r2, #28672
 573 00ea 22F07002 		bic	r2, r2, #112
 574 00ee 1204     		lsls	r2, r2, #16
 575 00f0 120C     		lsrs	r2, r2, #16
 576 00f2 42F44042 		orr	r2, r2, #49152
 577 00f6 42F08002 		orr	r2, r2, #128
 578 00fa 20F82320 		strh	r2, [r0, r3, lsl #2]	@ movhi
 579              	.L84:
 580 00fe 30F82320 		ldrh	r2, [r0, r3, lsl #2]
 581 0102 5206     		lsls	r2, r2, #25
 582 0104 0DD5     		bpl	.L85
 583 0106 30F82320 		ldrh	r2, [r0, r3, lsl #2]
 584 010a 22F4E042 		bic	r2, r2, #28672
 585 010e 22F07002 		bic	r2, r2, #112
 586 0112 1204     		lsls	r2, r2, #16
 587 0114 120C     		lsrs	r2, r2, #16
ARM GAS  /var/folders/td/83895s255bq6rlxfmrv9fnww0000gn/T//cc420VyG.s 			page 11


 588 0116 42F40042 		orr	r2, r2, #32768
 589 011a 42F0C002 		orr	r2, r2, #192
 590 011e 20F82320 		strh	r2, [r0, r3, lsl #2]	@ movhi
 591              	.L85:
 592 0122 48F28001 		movw	r1, #32896
 593 0126 30F82320 		ldrh	r2, [r0, r3, lsl #2]
 594 012a 10BC     		pop	{r4}
 595 012c 22F4E042 		bic	r2, r2, #28672
 596 0130 22F07002 		bic	r2, r2, #112
 597 0134 1204     		lsls	r2, r2, #16
 598 0136 120C     		lsrs	r2, r2, #16
 599 0138 42F44042 		orr	r2, r2, #49152
 600 013c 42F08002 		orr	r2, r2, #128
 601 0140 20F82320 		strh	r2, [r0, r3, lsl #2]	@ movhi
 602 0144 30F82320 		ldrh	r2, [r0, r3, lsl #2]
 603 0148 22F4E042 		bic	r2, r2, #28672
 604 014c 22F04002 		bic	r2, r2, #64
 605 0150 1204     		lsls	r2, r2, #16
 606 0152 120C     		lsrs	r2, r2, #16
 607 0154 0A43     		orrs	r2, r2, r1
 608 0156 20F82320 		strh	r2, [r0, r3, lsl #2]	@ movhi
 609 015a 30F82320 		ldrh	r2, [r0, r3, lsl #2]
 610 015e 22F48042 		bic	r2, r2, #16384
 611 0162 22F07002 		bic	r2, r2, #112
 612 0166 1204     		lsls	r2, r2, #16
 613 0168 120C     		lsrs	r2, r2, #16
 614 016a 1143     		orrs	r1, r1, r2
 615 016c 20F82310 		strh	r1, [r0, r3, lsl #2]	@ movhi
 616 0170 0020     		movs	r0, #0
 617 0172 7047     		bx	lr
 618              	.L77:
 619 0174 30F82320 		ldrh	r2, [r0, r3, lsl #2]
 620 0178 5104     		lsls	r1, r2, #17
 621 017a 0DD5     		bpl	.L80
 622 017c 30F82320 		ldrh	r2, [r0, r3, lsl #2]
 623 0180 22F4E042 		bic	r2, r2, #28672
 624 0184 22F07002 		bic	r2, r2, #112
 625 0188 1204     		lsls	r2, r2, #16
 626 018a 120C     		lsrs	r2, r2, #16
 627 018c 42F44042 		orr	r2, r2, #49152
 628 0190 42F08002 		orr	r2, r2, #128
 629 0194 20F82320 		strh	r2, [r0, r3, lsl #2]	@ movhi
 630              	.L80:
 631 0198 30F82320 		ldrh	r2, [r0, r3, lsl #2]
 632 019c 22F48042 		bic	r2, r2, #16384
 633 01a0 22F07002 		bic	r2, r2, #112
 634 01a4 3FE7     		b	.L105
 635              	.L106:
 636 01a6 30F82320 		ldrh	r2, [r0, r3, lsl #2]
 637 01aa 22F4E042 		bic	r2, r2, #28672
 638 01ae 22F07002 		bic	r2, r2, #112
 639 01b2 1204     		lsls	r2, r2, #16
 640 01b4 120C     		lsrs	r2, r2, #16
 641 01b6 42F40042 		orr	r2, r2, #32768
 642 01ba 42F0C002 		orr	r2, r2, #192
 643 01be 20F82320 		strh	r2, [r0, r3, lsl #2]	@ movhi
 644 01c2 2AE7     		b	.L78
ARM GAS  /var/folders/td/83895s255bq6rlxfmrv9fnww0000gn/T//cc420VyG.s 			page 12


 646              		.section	.text.USB_EPStartXfer,"ax",%progbits
 647              		.align	1
 648              		.p2align 2,,3
 649              		.global	USB_EPStartXfer
 650              		.syntax unified
 651              		.thumb
 652              		.thumb_func
 654              	USB_EPStartXfer:
 655              		@ args = 0, pretend = 0, frame = 8
 656              		@ frame_needed = 0, uses_anonymous_args = 0
 657 0000 2DE9F04F 		push	{r4, r5, r6, r7, r8, r9, r10, fp, lr}
 658 0004 4B78     		ldrb	r3, [r1, #1]	@ zero_extendqisi2
 659 0006 0C7B     		ldrb	r4, [r1, #12]	@ zero_extendqisi2
 660 0008 012B     		cmp	r3, #1
 661 000a 83B0     		sub	sp, sp, #12
 662 000c 74D0     		beq	.L199
 663 000e 002C     		cmp	r4, #0
 664 0010 3ED0     		beq	.L200
 665 0012 CA78     		ldrb	r2, [r1, #3]	@ zero_extendqisi2
 666 0014 022A     		cmp	r2, #2
 667 0016 00F04A81 		beq	.L201
 668 001a 012A     		cmp	r2, #1
 669 001c 40F0BA80 		bne	.L161
 670 0020 8A69     		ldr	r2, [r1, #24]
 671 0022 0C69     		ldr	r4, [r1, #16]
 672 0024 A242     		cmp	r2, r4
 673 0026 94BF     		ite	ls
 674 0028 0025     		movls	r5, #0
 675 002a 151B     		subhi	r5, r2, r4
 676 002c 8D61     		str	r5, [r1, #24]
 677 002e 88BF     		it	hi
 678 0030 2246     		movhi	r2, r4
 679 0032 002B     		cmp	r3, #0
 680 0034 40F01E81 		bne	.L198
 681 0038 B0F85040 		ldrh	r4, [r0, #80]
 682 003c 0B78     		ldrb	r3, [r1]	@ zero_extendqisi2
 683 003e A4B2     		uxth	r4, r4
 684 0040 00F20445 		addw	r5, r0, #1028
 685 0044 1B01     		lsls	r3, r3, #4
 686 0046 2544     		add	r5, r5, r4
 687 0048 EC5A     		ldrh	r4, [r5, r3]
 688 004a 3E2A     		cmp	r2, #62
 689 004c C4F30904 		ubfx	r4, r4, #0, #10
 690 0050 EC52     		strh	r4, [r5, r3]	@ movhi
 691 0052 00F20C46 		addw	r6, r0, #1036
 692 0056 00F2B281 		bhi	.L202
 693 005a 002A     		cmp	r2, #0
 694 005c 40F0F480 		bne	.L157
 695 0060 EA5A     		ldrh	r2, [r5, r3]
 696 0062 6FEA4242 		mvn	r2, r2, lsl #17
 697 0066 6FEA5242 		mvn	r2, r2, lsr #17
 698 006a 92B2     		uxth	r2, r2
 699 006c EA52     		strh	r2, [r5, r3]	@ movhi
 700 006e B0F85020 		ldrh	r2, [r0, #80]
 701 0072 92B2     		uxth	r2, r2
 702 0074 3244     		add	r2, r2, r6
 703 0076 D45A     		ldrh	r4, [r2, r3]
ARM GAS  /var/folders/td/83895s255bq6rlxfmrv9fnww0000gn/T//cc420VyG.s 			page 13


 704 0078 C4F30904 		ubfx	r4, r4, #0, #10
 705 007c D452     		strh	r4, [r2, r3]	@ movhi
 706 007e D45A     		ldrh	r4, [r2, r3]
 707 0080 6FEA4444 		mvn	r4, r4, lsl #17
 708 0084 6FEA5444 		mvn	r4, r4, lsr #17
 709 0088 A4B2     		uxth	r4, r4
 710 008a D452     		strh	r4, [r2, r3]	@ movhi
 711 008c 0A78     		ldrb	r2, [r1]	@ zero_extendqisi2
 712 008e 1FE0     		b	.L142
 713              	.L200:
 714 0090 8D69     		ldr	r5, [r1, #24]
 715 0092 0B69     		ldr	r3, [r1, #16]
 716 0094 0A78     		ldrb	r2, [r1]	@ zero_extendqisi2
 717 0096 9D42     		cmp	r5, r3
 718 0098 84BF     		itt	hi
 719 009a EC1A     		subhi	r4, r5, r3
 720 009c 1D46     		movhi	r5, r3
 721 009e B0F85030 		ldrh	r3, [r0, #80]
 722 00a2 8C61     		str	r4, [r1, #24]
 723 00a4 9BB2     		uxth	r3, r3
 724 00a6 00F20C44 		addw	r4, r0, #1036
 725 00aa 1201     		lsls	r2, r2, #4
 726 00ac 1C44     		add	r4, r4, r3
 727 00ae A35A     		ldrh	r3, [r4, r2]
 728 00b0 3E2D     		cmp	r5, #62
 729 00b2 C3F30903 		ubfx	r3, r3, #0, #10
 730 00b6 A352     		strh	r3, [r4, r2]	@ movhi
 731 00b8 62D8     		bhi	.L203
 732 00ba 002D     		cmp	r5, #0
 733 00bc 40F04181 		bne	.L143
 734 00c0 A35A     		ldrh	r3, [r4, r2]
 735              	.L197:
 736 00c2 6FEA4343 		mvn	r3, r3, lsl #17
 737 00c6 6FEA5343 		mvn	r3, r3, lsr #17
 738 00ca 9BB2     		uxth	r3, r3
 739 00cc A352     		strh	r3, [r4, r2]	@ movhi
 740 00ce 0A78     		ldrb	r2, [r1]	@ zero_extendqisi2
 741              	.L142:
 742 00d0 30F82230 		ldrh	r3, [r0, r2, lsl #2]
 743 00d4 23F48043 		bic	r3, r3, #16384
 744 00d8 23F07003 		bic	r3, r3, #112
 745 00dc 1B04     		lsls	r3, r3, #16
 746 00de 1B0C     		lsrs	r3, r3, #16
 747 00e0 83F44053 		eor	r3, r3, #12288
 748 00e4 43F40043 		orr	r3, r3, #32768
 749 00e8 43F08003 		orr	r3, r3, #128
 750 00ec 20F82230 		strh	r3, [r0, r2, lsl #2]	@ movhi
 751              	.L159:
 752 00f0 0020     		movs	r0, #0
 753 00f2 03B0     		add	sp, sp, #12
 754              		@ sp needed
 755 00f4 BDE8F08F 		pop	{r4, r5, r6, r7, r8, r9, r10, fp, pc}
 756              	.L199:
 757 00f8 0E69     		ldr	r6, [r1, #16]
 758 00fa 8A69     		ldr	r2, [r1, #24]
 759 00fc 4B69     		ldr	r3, [r1, #20]
 760 00fe B242     		cmp	r2, r6
ARM GAS  /var/folders/td/83895s255bq6rlxfmrv9fnww0000gn/T//cc420VyG.s 			page 14


 761 0100 28BF     		it	cs
 762 0102 3246     		movcs	r2, r6
 763 0104 00F5806C 		add	ip, r0, #1024
 764 0108 002C     		cmp	r4, #0
 765 010a 00F0B580 		beq	.L204
 766 010e CD78     		ldrb	r5, [r1, #3]	@ zero_extendqisi2
 767 0110 91F800E0 		ldrb	lr, [r1]	@ zero_extendqisi2
 768 0114 022D     		cmp	r5, #2
 769 0116 0C6A     		ldr	r4, [r1, #32]
 770 0118 4FEA0E17 		lsl	r7, lr, #4
 771 011c 3ED0     		beq	.L205
 772 011e 30F82E50 		ldrh	r5, [r0, lr, lsl #2]
 773 0122 A41A     		subs	r4, r4, r2
 774 0124 B0F85060 		ldrh	r6, [r0, #80]
 775 0128 0C62     		str	r4, [r1, #32]
 776 012a 94B2     		uxth	r4, r2
 777 012c 0134     		adds	r4, r4, #1
 778 012e 6D06     		lsls	r5, r5, #25
 779 0130 92B2     		uxth	r2, r2
 780 0132 4FEA5404 		lsr	r4, r4, #1
 781 0136 B6B2     		uxth	r6, r6
 782 0138 40F11081 		bpl	.L134
 783 013c 00F20C45 		addw	r5, r0, #1036
 784 0140 3544     		add	r5, r5, r6
 785 0142 EA53     		strh	r2, [r5, r7]	@ movhi
 786 0144 4A89     		ldrh	r2, [r1, #10]
 787 0146 0CEB4202 		add	r2, ip, r2, lsl #1
 788 014a 3CB1     		cbz	r4, .L111
 789 014c 02EB8405 		add	r5, r2, r4, lsl #2
 790              	.L135:
 791 0150 33F8024B 		ldrh	r4, [r3], #2	@ unaligned
 792 0154 22F8044B 		strh	r4, [r2], #4	@ movhi
 793 0158 9542     		cmp	r5, r2
 794 015a F9D1     		bne	.L135
 795              	.L111:
 796 015c 0A78     		ldrb	r2, [r1]	@ zero_extendqisi2
 797 015e 30F82230 		ldrh	r3, [r0, r2, lsl #2]
 798 0162 23F4E043 		bic	r3, r3, #28672
 799 0166 23F04003 		bic	r3, r3, #64
 800 016a 1B04     		lsls	r3, r3, #16
 801 016c 1B0C     		lsrs	r3, r3, #16
 802 016e 83F03003 		eor	r3, r3, #48
 803 0172 43F40043 		orr	r3, r3, #32768
 804 0176 43F08003 		orr	r3, r3, #128
 805 017a 20F82230 		strh	r3, [r0, r2, lsl #2]	@ movhi
 806 017e B7E7     		b	.L159
 807              	.L203:
 808 0180 A35A     		ldrh	r3, [r4, r2]
 809 0182 6E09     		lsrs	r6, r5, #5
 810 0184 ED06     		lsls	r5, r5, #27
 811 0186 08BF     		it	eq
 812 0188 06F1FF36 		addeq	r6, r6, #-1
 813 018c 9BB2     		uxth	r3, r3
 814 018e 43EA8623 		orr	r3, r3, r6, lsl #10
 815 0192 96E7     		b	.L197
 816              	.L161:
 817 0194 0120     		movs	r0, #1
ARM GAS  /var/folders/td/83895s255bq6rlxfmrv9fnww0000gn/T//cc420VyG.s 			page 15


 818 0196 03B0     		add	sp, sp, #12
 819              		@ sp needed
 820 0198 BDE8F08F 		pop	{r4, r5, r6, r7, r8, r9, r10, fp, pc}
 821              	.L205:
 822 019c A642     		cmp	r6, r4
 823 019e 00F2044B 		addw	fp, r0, #1028
 824 01a2 80F05981 		bcs	.L115
 825 01a6 30F82E50 		ldrh	r5, [r0, lr, lsl #2]
 826 01aa A41A     		subs	r4, r4, r2
 827 01ac 25F4E045 		bic	r5, r5, #28672
 828 01b0 25F07005 		bic	r5, r5, #112
 829 01b4 2D04     		lsls	r5, r5, #16
 830 01b6 2D0C     		lsrs	r5, r5, #16
 831 01b8 45F40145 		orr	r5, r5, #33024
 832 01bc 45F08005 		orr	r5, r5, #128
 833 01c0 20F82E50 		strh	r5, [r0, lr, lsl #2]	@ movhi
 834 01c4 30F82EE0 		ldrh	lr, [r0, lr, lsl #2]
 835 01c8 95B2     		uxth	r5, r2
 836 01ca 1EF0400F 		tst	lr, #64
 837 01ce B0F850E0 		ldrh	lr, [r0, #80]
 838 01d2 05F10105 		add	r5, r5, #1
 839 01d6 0C62     		str	r4, [r1, #32]
 840 01d8 4FEA5505 		lsr	r5, r5, #1
 841 01dc 1FFA82F9 		uxth	r9, r2
 842 01e0 00F20C4A 		addw	r10, r0, #1036
 843 01e4 1FFA8EFE 		uxth	lr, lr
 844 01e8 00F00881 		beq	.L116
 845 01ec D644     		add	lr, lr, r10
 846 01ee 2EF80790 		strh	r9, [lr, r7]	@ movhi
 847 01f2 B1F80AE0 		ldrh	lr, [r1, #10]
 848 01f6 0CEB4E0E 		add	lr, ip, lr, lsl #1
 849 01fa 55B1     		cbz	r5, .L121
 850 01fc 9846     		mov	r8, r3
 851 01fe 0EEB850A 		add	r10, lr, r5, lsl #2
 852 0202 0196     		str	r6, [sp, #4]
 853              	.L120:
 854 0204 38F8026B 		ldrh	r6, [r8], #2	@ unaligned
 855 0208 2EF8046B 		strh	r6, [lr], #4	@ movhi
 856 020c F245     		cmp	r10, lr
 857 020e F9D1     		bne	.L120
 858 0210 019E     		ldr	r6, [sp, #4]
 859              	.L121:
 860 0212 1344     		add	r3, r3, r2
 861 0214 A642     		cmp	r6, r4
 862 0216 4B61     		str	r3, [r1, #20]
 863 0218 80F05A81 		bcs	.L206
 864 021c A21A     		subs	r2, r4, r2
 865              	.L122:
 866 021e 0A62     		str	r2, [r1, #32]
 867 0220 B0F85020 		ldrh	r2, [r0, #80]
 868 0224 92B2     		uxth	r2, r2
 869 0226 5A44     		add	r2, r2, fp
 870 0228 22F80790 		strh	r9, [r2, r7]	@ movhi
 871 022c 0A89     		ldrh	r2, [r1, #8]
 872 022e 0CEB4202 		add	r2, ip, r2, lsl #1
 873 0232 002D     		cmp	r5, #0
 874 0234 92D0     		beq	.L111
ARM GAS  /var/folders/td/83895s255bq6rlxfmrv9fnww0000gn/T//cc420VyG.s 			page 16


 875 0236 02EB8505 		add	r5, r2, r5, lsl #2
 876              	.L124:
 877 023a 33F8024B 		ldrh	r4, [r3], #2	@ unaligned
 878 023e 22F8044B 		strh	r4, [r2], #4	@ movhi
 879 0242 9542     		cmp	r5, r2
 880 0244 F9D1     		bne	.L124
 881 0246 89E7     		b	.L111
 882              	.L157:
 883 0248 5408     		lsrs	r4, r2, #1
 884 024a D207     		lsls	r2, r2, #31
 885 024c 48BF     		it	mi
 886 024e 0134     		addmi	r4, r4, #1
 887 0250 A202     		lsls	r2, r4, #10
 888 0252 EC5A     		ldrh	r4, [r5, r3]
 889 0254 92B2     		uxth	r2, r2
 890 0256 A4B2     		uxth	r4, r4
 891 0258 1443     		orrs	r4, r4, r2
 892 025a EC52     		strh	r4, [r5, r3]	@ movhi
 893 025c B0F85040 		ldrh	r4, [r0, #80]
 894 0260 A4B2     		uxth	r4, r4
 895 0262 3444     		add	r4, r4, r6
 896 0264 E55A     		ldrh	r5, [r4, r3]
 897 0266 C5F30905 		ubfx	r5, r5, #0, #10
 898 026a E552     		strh	r5, [r4, r3]	@ movhi
 899 026c E55A     		ldrh	r5, [r4, r3]
 900 026e ADB2     		uxth	r5, r5
 901 0270 2A43     		orrs	r2, r2, r5
 902 0272 E252     		strh	r2, [r4, r3]	@ movhi
 903              	.L198:
 904 0274 0A78     		ldrb	r2, [r1]	@ zero_extendqisi2
 905 0276 2BE7     		b	.L142
 906              	.L204:
 907 0278 96B2     		uxth	r6, r2
 908 027a CC88     		ldrh	r4, [r1, #6]
 909 027c 0136     		adds	r6, r6, #1
 910 027e 7608     		lsrs	r6, r6, #1
 911 0280 0CEB4404 		add	r4, ip, r4, lsl #1
 912 0284 92B2     		uxth	r2, r2
 913 0286 18BF     		it	ne
 914 0288 03EB4606 		addne	r6, r3, r6, lsl #1
 915 028c 05D0     		beq	.L113
 916              	.L112:
 917 028e 33F8025B 		ldrh	r5, [r3], #2	@ unaligned
 918 0292 9E42     		cmp	r6, r3
 919 0294 24F8045B 		strh	r5, [r4], #4	@ movhi
 920 0298 F9D1     		bne	.L112
 921              	.L113:
 922 029a B0F85050 		ldrh	r5, [r0, #80]
 923 029e 0C78     		ldrb	r4, [r1]	@ zero_extendqisi2
 924 02a0 ADB2     		uxth	r5, r5
 925 02a2 00F20443 		addw	r3, r0, #1028
 926 02a6 2401     		lsls	r4, r4, #4
 927 02a8 2B44     		add	r3, r3, r5
 928 02aa E252     		strh	r2, [r4, r3]	@ movhi
 929 02ac 56E7     		b	.L111
 930              	.L201:
 931 02ae 4BBB     		cbnz	r3, .L146
ARM GAS  /var/folders/td/83895s255bq6rlxfmrv9fnww0000gn/T//cc420VyG.s 			page 17


 932 02b0 B0F85040 		ldrh	r4, [r0, #80]
 933 02b4 0B78     		ldrb	r3, [r1]	@ zero_extendqisi2
 934 02b6 A4B2     		uxth	r4, r4
 935 02b8 00F20442 		addw	r2, r0, #1028
 936 02bc 1B01     		lsls	r3, r3, #4
 937 02be 2244     		add	r2, r2, r4
 938 02c0 D45A     		ldrh	r4, [r2, r3]
 939 02c2 0D69     		ldr	r5, [r1, #16]
 940 02c4 C4F30904 		ubfx	r4, r4, #0, #10
 941 02c8 3E2D     		cmp	r5, #62
 942 02ca D452     		strh	r4, [r2, r3]	@ movhi
 943 02cc 00F20C46 		addw	r6, r0, #1036
 944 02d0 57D8     		bhi	.L207
 945 02d2 002D     		cmp	r5, #0
 946 02d4 40F0E580 		bne	.L149
 947 02d8 D45A     		ldrh	r4, [r2, r3]
 948 02da 6FEA4444 		mvn	r4, r4, lsl #17
 949 02de 6FEA5444 		mvn	r4, r4, lsr #17
 950 02e2 A4B2     		uxth	r4, r4
 951 02e4 D452     		strh	r4, [r2, r3]	@ movhi
 952 02e6 B0F85020 		ldrh	r2, [r0, #80]
 953 02ea 92B2     		uxth	r2, r2
 954 02ec 3244     		add	r2, r2, r6
 955 02ee D45A     		ldrh	r4, [r2, r3]
 956 02f0 C4F30904 		ubfx	r4, r4, #0, #10
 957 02f4 D452     		strh	r4, [r2, r3]	@ movhi
 958 02f6 D45A     		ldrh	r4, [r2, r3]
 959 02f8 6FEA4444 		mvn	r4, r4, lsl #17
 960 02fc 6FEA5444 		mvn	r4, r4, lsr #17
 961 0300 A4B2     		uxth	r4, r4
 962 0302 D452     		strh	r4, [r2, r3]	@ movhi
 963              	.L146:
 964 0304 CB69     		ldr	r3, [r1, #28]
 965 0306 002B     		cmp	r3, #0
 966 0308 B4D0     		beq	.L198
 967 030a 44F24003 		movw	r3, #16448
 968 030e 0A78     		ldrb	r2, [r1]	@ zero_extendqisi2
 969 0310 30F82240 		ldrh	r4, [r0, r2, lsl #2]
 970 0314 03EA0405 		and	r5, r3, r4
 971 0318 A343     		bics	r3, r3, r4
 972 031a 02D0     		beq	.L152
 973 031c 002D     		cmp	r5, #0
 974 031e 7FF4D7AE 		bne	.L142
 975              	.L152:
 976 0322 30F82230 		ldrh	r3, [r0, r2, lsl #2]
 977 0326 23F4E043 		bic	r3, r3, #28672
 978 032a 23F07003 		bic	r3, r3, #112
 979 032e 1B04     		lsls	r3, r3, #16
 980 0330 1B0C     		lsrs	r3, r3, #16
 981 0332 43F40043 		orr	r3, r3, #32768
 982 0336 43F0C003 		orr	r3, r3, #192
 983 033a 20F82230 		strh	r3, [r0, r2, lsl #2]	@ movhi
 984 033e 0A78     		ldrb	r2, [r1]	@ zero_extendqisi2
 985 0340 C6E6     		b	.L142
 986              	.L143:
 987 0342 EB07     		lsls	r3, r5, #31
 988 0344 A35A     		ldrh	r3, [r4, r2]
ARM GAS  /var/folders/td/83895s255bq6rlxfmrv9fnww0000gn/T//cc420VyG.s 			page 18


 989 0346 4FEA5506 		lsr	r6, r5, #1
 990 034a 48BF     		it	mi
 991 034c 0136     		addmi	r6, r6, #1
 992 034e 9BB2     		uxth	r3, r3
 993 0350 43EA8623 		orr	r3, r3, r6, lsl #10
 994 0354 9BB2     		uxth	r3, r3
 995 0356 A352     		strh	r3, [r4, r2]	@ movhi
 996 0358 0A78     		ldrb	r2, [r1]	@ zero_extendqisi2
 997 035a B9E6     		b	.L142
 998              	.L134:
 999 035c 00F20445 		addw	r5, r0, #1028
 1000 0360 3544     		add	r5, r5, r6
 1001 0362 EA53     		strh	r2, [r5, r7]	@ movhi
 1002 0364 0A89     		ldrh	r2, [r1, #8]
 1003 0366 0CEB420C 		add	ip, ip, r2, lsl #1
 1004 036a 002C     		cmp	r4, #0
 1005 036c 3FF4F6AE 		beq	.L111
 1006 0370 03EB4404 		add	r4, r3, r4, lsl #1
 1007              	.L136:
 1008 0374 33F8022B 		ldrh	r2, [r3], #2	@ unaligned
 1009 0378 9C42     		cmp	r4, r3
 1010 037a 2CF8042B 		strh	r2, [ip], #4	@ movhi
 1011 037e F9D1     		bne	.L136
 1012 0380 ECE6     		b	.L111
 1013              	.L207:
 1014 0382 6C09     		lsrs	r4, r5, #5
 1015 0384 EF06     		lsls	r7, r5, #27
 1016 0386 08BF     		it	eq
 1017 0388 04F1FF34 		addeq	r4, r4, #-1
 1018 038c D55A     		ldrh	r5, [r2, r3]
 1019 038e A402     		lsls	r4, r4, #10
 1020 0390 A4B2     		uxth	r4, r4
 1021 0392 ADB2     		uxth	r5, r5
 1022 0394 2543     		orrs	r5, r5, r4
 1023 0396 45F40045 		orr	r5, r5, #32768
 1024 039a D552     		strh	r5, [r2, r3]	@ movhi
 1025 039c B0F85050 		ldrh	r5, [r0, #80]
 1026 03a0 ADB2     		uxth	r5, r5
 1027 03a2 3544     		add	r5, r5, r6
 1028 03a4 EA5A     		ldrh	r2, [r5, r3]
 1029 03a6 C2F30902 		ubfx	r2, r2, #0, #10
 1030 03aa EA52     		strh	r2, [r5, r3]	@ movhi
 1031 03ac EA5A     		ldrh	r2, [r5, r3]
 1032 03ae 2243     		orrs	r2, r2, r4
 1033 03b0 6FEA4242 		mvn	r2, r2, lsl #17
 1034 03b4 6FEA5242 		mvn	r2, r2, lsr #17
 1035 03b8 92B2     		uxth	r2, r2
 1036 03ba EA52     		strh	r2, [r5, r3]	@ movhi
 1037 03bc A2E7     		b	.L146
 1038              	.L202:
 1039 03be 5409     		lsrs	r4, r2, #5
 1040 03c0 D706     		lsls	r7, r2, #27
 1041 03c2 08BF     		it	eq
 1042 03c4 04F1FF34 		addeq	r4, r4, #-1
 1043 03c8 A202     		lsls	r2, r4, #10
 1044 03ca EC5A     		ldrh	r4, [r5, r3]
 1045 03cc 92B2     		uxth	r2, r2
ARM GAS  /var/folders/td/83895s255bq6rlxfmrv9fnww0000gn/T//cc420VyG.s 			page 19


 1046 03ce A4B2     		uxth	r4, r4
 1047 03d0 1443     		orrs	r4, r4, r2
 1048 03d2 44F40044 		orr	r4, r4, #32768
 1049 03d6 EC52     		strh	r4, [r5, r3]	@ movhi
 1050 03d8 B0F85040 		ldrh	r4, [r0, #80]
 1051 03dc A4B2     		uxth	r4, r4
 1052 03de 3444     		add	r4, r4, r6
 1053 03e0 E55A     		ldrh	r5, [r4, r3]
 1054 03e2 C5F30905 		ubfx	r5, r5, #0, #10
 1055 03e6 E552     		strh	r5, [r4, r3]	@ movhi
 1056 03e8 E55A     		ldrh	r5, [r4, r3]
 1057 03ea 2A43     		orrs	r2, r2, r5
 1058 03ec 6FEA4242 		mvn	r2, r2, lsl #17
 1059 03f0 6FEA5242 		mvn	r2, r2, lsr #17
 1060 03f4 92B2     		uxth	r2, r2
 1061 03f6 E252     		strh	r2, [r4, r3]	@ movhi
 1062 03f8 0A78     		ldrb	r2, [r1]	@ zero_extendqisi2
 1063 03fa 69E6     		b	.L142
 1064              	.L116:
 1065 03fc DE44     		add	lr, lr, fp
 1066 03fe 2EF80790 		strh	r9, [lr, r7]	@ movhi
 1067 0402 B1F808E0 		ldrh	lr, [r1, #8]
 1068 0406 0CEB4E0E 		add	lr, ip, lr, lsl #1
 1069 040a 55B1     		cbz	r5, .L130
 1070 040c 9846     		mov	r8, r3
 1071 040e 0EEB850B 		add	fp, lr, r5, lsl #2
 1072 0412 0196     		str	r6, [sp, #4]
 1073              	.L129:
 1074 0414 38F8026B 		ldrh	r6, [r8], #2	@ unaligned
 1075 0418 2EF8046B 		strh	r6, [lr], #4	@ movhi
 1076 041c F345     		cmp	fp, lr
 1077 041e F9D1     		bne	.L129
 1078 0420 019E     		ldr	r6, [sp, #4]
 1079              	.L130:
 1080 0422 1344     		add	r3, r3, r2
 1081 0424 A642     		cmp	r6, r4
 1082 0426 4B61     		str	r3, [r1, #20]
 1083 0428 59D2     		bcs	.L208
 1084 042a A41A     		subs	r4, r4, r2
 1085              	.L131:
 1086 042c B0F85020 		ldrh	r2, [r0, #80]
 1087 0430 0C62     		str	r4, [r1, #32]
 1088 0432 92B2     		uxth	r2, r2
 1089 0434 5244     		add	r2, r2, r10
 1090 0436 22F80790 		strh	r9, [r2, r7]	@ movhi
 1091 043a 4A89     		ldrh	r2, [r1, #10]
 1092 043c 0CEB4202 		add	r2, ip, r2, lsl #1
 1093 0440 002D     		cmp	r5, #0
 1094 0442 3FF48BAE 		beq	.L111
 1095 0446 03EB4505 		add	r5, r3, r5, lsl #1
 1096              	.L132:
 1097 044a 33F8024B 		ldrh	r4, [r3], #2	@ unaligned
 1098 044e 9D42     		cmp	r5, r3
 1099 0450 22F8044B 		strh	r4, [r2], #4	@ movhi
 1100 0454 F9D1     		bne	.L132
 1101 0456 81E6     		b	.L111
 1102              	.L115:
ARM GAS  /var/folders/td/83895s255bq6rlxfmrv9fnww0000gn/T//cc420VyG.s 			page 20


 1103 0458 A5B2     		uxth	r5, r4
 1104 045a 2C46     		mov	r4, r5
 1105 045c 30F82E20 		ldrh	r2, [r0, lr, lsl #2]
 1106 0460 0134     		adds	r4, r4, #1
 1107 0462 22F4E242 		bic	r2, r2, #28928
 1108 0466 22F07002 		bic	r2, r2, #112
 1109 046a 1204     		lsls	r2, r2, #16
 1110 046c 120C     		lsrs	r2, r2, #16
 1111 046e 42F40042 		orr	r2, r2, #32768
 1112 0472 42F08002 		orr	r2, r2, #128
 1113 0476 20F82E20 		strh	r2, [r0, lr, lsl #2]	@ movhi
 1114 047a B0F85020 		ldrh	r2, [r0, #80]
 1115 047e 6408     		lsrs	r4, r4, #1
 1116 0480 92B2     		uxth	r2, r2
 1117 0482 5A44     		add	r2, r2, fp
 1118 0484 D553     		strh	r5, [r2, r7]	@ movhi
 1119 0486 0A89     		ldrh	r2, [r1, #8]
 1120 0488 0CEB4202 		add	r2, ip, r2, lsl #1
 1121 048c 3FF466AE 		beq	.L111
 1122 0490 03EB4405 		add	r5, r3, r4, lsl #1
 1123              	.L133:
 1124 0494 33F8024B 		ldrh	r4, [r3], #2	@ unaligned
 1125 0498 9D42     		cmp	r5, r3
 1126 049a 22F8044B 		strh	r4, [r2], #4	@ movhi
 1127 049e F9D1     		bne	.L133
 1128 04a0 5CE6     		b	.L111
 1129              	.L149:
 1130 04a2 6C08     		lsrs	r4, r5, #1
 1131 04a4 ED07     		lsls	r5, r5, #31
 1132 04a6 48BF     		it	mi
 1133 04a8 0134     		addmi	r4, r4, #1
 1134 04aa D55A     		ldrh	r5, [r2, r3]
 1135 04ac A402     		lsls	r4, r4, #10
 1136 04ae A4B2     		uxth	r4, r4
 1137 04b0 ADB2     		uxth	r5, r5
 1138 04b2 2543     		orrs	r5, r5, r4
 1139 04b4 D552     		strh	r5, [r2, r3]	@ movhi
 1140 04b6 B0F85020 		ldrh	r2, [r0, #80]
 1141 04ba 92B2     		uxth	r2, r2
 1142 04bc 3244     		add	r2, r2, r6
 1143 04be D55A     		ldrh	r5, [r2, r3]
 1144 04c0 C5F30905 		ubfx	r5, r5, #0, #10
 1145 04c4 D552     		strh	r5, [r2, r3]	@ movhi
 1146 04c6 D55A     		ldrh	r5, [r2, r3]
 1147 04c8 ADB2     		uxth	r5, r5
 1148 04ca 2C43     		orrs	r4, r4, r5
 1149 04cc D452     		strh	r4, [r2, r3]	@ movhi
 1150 04ce 19E7     		b	.L146
 1151              	.L206:
 1152 04d0 A5B2     		uxth	r5, r4
 1153 04d2 0135     		adds	r5, r5, #1
 1154 04d4 0022     		movs	r2, #0
 1155 04d6 1FFA84F9 		uxth	r9, r4
 1156 04da 6D08     		lsrs	r5, r5, #1
 1157 04dc 9FE6     		b	.L122
 1158              	.L208:
 1159 04de A5B2     		uxth	r5, r4
ARM GAS  /var/folders/td/83895s255bq6rlxfmrv9fnww0000gn/T//cc420VyG.s 			page 21


 1160 04e0 0135     		adds	r5, r5, #1
 1161 04e2 1FFA84F9 		uxth	r9, r4
 1162 04e6 6D08     		lsrs	r5, r5, #1
 1163 04e8 0024     		movs	r4, #0
 1164 04ea 9FE7     		b	.L131
 1166              		.section	.text.USB_EPSetStall,"ax",%progbits
 1167              		.align	1
 1168              		.p2align 2,,3
 1169              		.global	USB_EPSetStall
 1170              		.syntax unified
 1171              		.thumb
 1172              		.thumb_func
 1174              	USB_EPSetStall:
 1175              		@ args = 0, pretend = 0, frame = 0
 1176              		@ frame_needed = 0, uses_anonymous_args = 0
 1177              		@ link register save eliminated.
 1178 0000 4B78     		ldrb	r3, [r1, #1]	@ zero_extendqisi2
 1179 0002 0A78     		ldrb	r2, [r1]	@ zero_extendqisi2
 1180 0004 8BB1     		cbz	r3, .L210
 1181 0006 30F82230 		ldrh	r3, [r0, r2, lsl #2]
 1182 000a 23F4E043 		bic	r3, r3, #28672
 1183 000e 23F04003 		bic	r3, r3, #64
 1184 0012 1B04     		lsls	r3, r3, #16
 1185 0014 1B0C     		lsrs	r3, r3, #16
 1186 0016 83F01003 		eor	r3, r3, #16
 1187 001a 43F40043 		orr	r3, r3, #32768
 1188 001e 43F08003 		orr	r3, r3, #128
 1189 0022 20F82230 		strh	r3, [r0, r2, lsl #2]	@ movhi
 1190 0026 0020     		movs	r0, #0
 1191 0028 7047     		bx	lr
 1192              	.L210:
 1193 002a 30F82230 		ldrh	r3, [r0, r2, lsl #2]
 1194 002e 23F48043 		bic	r3, r3, #16384
 1195 0032 23F07003 		bic	r3, r3, #112
 1196 0036 1B04     		lsls	r3, r3, #16
 1197 0038 1B0C     		lsrs	r3, r3, #16
 1198 003a 83F48053 		eor	r3, r3, #4096
 1199 003e 43F40043 		orr	r3, r3, #32768
 1200 0042 43F08003 		orr	r3, r3, #128
 1201 0046 20F82230 		strh	r3, [r0, r2, lsl #2]	@ movhi
 1202 004a 0020     		movs	r0, #0
 1203 004c 7047     		bx	lr
 1205 004e 00BF     		.section	.text.USB_EPClearStall,"ax",%progbits
 1206              		.align	1
 1207              		.p2align 2,,3
 1208              		.global	USB_EPClearStall
 1209              		.syntax unified
 1210              		.thumb
 1211              		.thumb_func
 1213              	USB_EPClearStall:
 1214              		@ args = 0, pretend = 0, frame = 0
 1215              		@ frame_needed = 0, uses_anonymous_args = 0
 1216              		@ link register save eliminated.
 1217 0000 0B7B     		ldrb	r3, [r1, #12]	@ zero_extendqisi2
 1218 0002 3BBB     		cbnz	r3, .L214
 1219 0004 4B78     		ldrb	r3, [r1, #1]	@ zero_extendqisi2
 1220 0006 0A78     		ldrb	r2, [r1]	@ zero_extendqisi2
ARM GAS  /var/folders/td/83895s255bq6rlxfmrv9fnww0000gn/T//cc420VyG.s 			page 22


 1221 0008 33B3     		cbz	r3, .L215
 1222 000a 30F82230 		ldrh	r3, [r0, r2, lsl #2]
 1223 000e 5B06     		lsls	r3, r3, #25
 1224 0010 0DD5     		bpl	.L216
 1225 0012 30F82230 		ldrh	r3, [r0, r2, lsl #2]
 1226 0016 23F4E043 		bic	r3, r3, #28672
 1227 001a 23F07003 		bic	r3, r3, #112
 1228 001e 1B04     		lsls	r3, r3, #16
 1229 0020 1B0C     		lsrs	r3, r3, #16
 1230 0022 43F40043 		orr	r3, r3, #32768
 1231 0026 43F0C003 		orr	r3, r3, #192
 1232 002a 20F82230 		strh	r3, [r0, r2, lsl #2]	@ movhi
 1233              	.L216:
 1234 002e CB78     		ldrb	r3, [r1, #3]	@ zero_extendqisi2
 1235 0030 012B     		cmp	r3, #1
 1236 0032 0FD0     		beq	.L214
 1237 0034 30F82230 		ldrh	r3, [r0, r2, lsl #2]
 1238 0038 23F4E043 		bic	r3, r3, #28672
 1239 003c 23F04003 		bic	r3, r3, #64
 1240 0040 1B04     		lsls	r3, r3, #16
 1241 0042 1B0C     		lsrs	r3, r3, #16
 1242 0044 83F02003 		eor	r3, r3, #32
 1243 0048 43F40043 		orr	r3, r3, #32768
 1244 004c 43F08003 		orr	r3, r3, #128
 1245 0050 20F82230 		strh	r3, [r0, r2, lsl #2]	@ movhi
 1246              	.L214:
 1247 0054 0020     		movs	r0, #0
 1248 0056 7047     		bx	lr
 1249              	.L215:
 1250 0058 30F82230 		ldrh	r3, [r0, r2, lsl #2]
 1251 005c 5B04     		lsls	r3, r3, #17
 1252 005e 0DD5     		bpl	.L218
 1253 0060 30F82230 		ldrh	r3, [r0, r2, lsl #2]
 1254 0064 23F4E043 		bic	r3, r3, #28672
 1255 0068 23F07003 		bic	r3, r3, #112
 1256 006c 1B04     		lsls	r3, r3, #16
 1257 006e 1B0C     		lsrs	r3, r3, #16
 1258 0070 43F44043 		orr	r3, r3, #49152
 1259 0074 43F08003 		orr	r3, r3, #128
 1260 0078 20F82230 		strh	r3, [r0, r2, lsl #2]	@ movhi
 1261              	.L218:
 1262 007c 30F82230 		ldrh	r3, [r0, r2, lsl #2]
 1263 0080 23F48043 		bic	r3, r3, #16384
 1264 0084 23F07003 		bic	r3, r3, #112
 1265 0088 1B04     		lsls	r3, r3, #16
 1266 008a 1B0C     		lsrs	r3, r3, #16
 1267 008c 83F44053 		eor	r3, r3, #12288
 1268 0090 43F40043 		orr	r3, r3, #32768
 1269 0094 43F08003 		orr	r3, r3, #128
 1270 0098 20F82230 		strh	r3, [r0, r2, lsl #2]	@ movhi
 1271 009c 0020     		movs	r0, #0
 1272 009e 7047     		bx	lr
 1274              		.section	.text.USB_EPStopXfer,"ax",%progbits
 1275              		.align	1
 1276              		.p2align 2,,3
 1277              		.global	USB_EPStopXfer
 1278              		.syntax unified
ARM GAS  /var/folders/td/83895s255bq6rlxfmrv9fnww0000gn/T//cc420VyG.s 			page 23


 1279              		.thumb
 1280              		.thumb_func
 1282              	USB_EPStopXfer:
 1283              		@ args = 0, pretend = 0, frame = 0
 1284              		@ frame_needed = 0, uses_anonymous_args = 0
 1285              		@ link register save eliminated.
 1286 0000 4A78     		ldrb	r2, [r1, #1]	@ zero_extendqisi2
 1287 0002 0B7B     		ldrb	r3, [r1, #12]	@ zero_extendqisi2
 1288 0004 012A     		cmp	r2, #1
 1289 0006 18D0     		beq	.L233
 1290 0008 ABB9     		cbnz	r3, .L230
 1291 000a CB78     		ldrb	r3, [r1, #3]	@ zero_extendqisi2
 1292 000c 0A78     		ldrb	r2, [r1]	@ zero_extendqisi2
 1293 000e 012B     		cmp	r3, #1
 1294 0010 30F82230 		ldrh	r3, [r0, r2, lsl #2]
 1295 0014 23F48043 		bic	r3, r3, #16384
 1296 0018 23F07003 		bic	r3, r3, #112
 1297 001c 4FEA0343 		lsl	r3, r3, #16
 1298 0020 4FEA1343 		lsr	r3, r3, #16
 1299 0024 23D0     		beq	.L232
 1300 0026 83F40053 		eor	r3, r3, #8192
 1301 002a 43F40043 		orr	r3, r3, #32768
 1302 002e 43F08003 		orr	r3, r3, #128
 1303 0032 20F82230 		strh	r3, [r0, r2, lsl #2]	@ movhi
 1304              	.L230:
 1305 0036 0020     		movs	r0, #0
 1306 0038 7047     		bx	lr
 1307              	.L233:
 1308 003a 002B     		cmp	r3, #0
 1309 003c FBD1     		bne	.L230
 1310 003e CB78     		ldrb	r3, [r1, #3]	@ zero_extendqisi2
 1311 0040 0A78     		ldrb	r2, [r1]	@ zero_extendqisi2
 1312 0042 012B     		cmp	r3, #1
 1313 0044 30F82230 		ldrh	r3, [r0, r2, lsl #2]
 1314 0048 23F4E043 		bic	r3, r3, #28672
 1315 004c 23F04003 		bic	r3, r3, #64
 1316 0050 4FEA0343 		lsl	r3, r3, #16
 1317 0054 4FEA1343 		lsr	r3, r3, #16
 1318 0058 09D0     		beq	.L232
 1319 005a 83F02003 		eor	r3, r3, #32
 1320 005e 43F40043 		orr	r3, r3, #32768
 1321 0062 43F08003 		orr	r3, r3, #128
 1322 0066 20F82230 		strh	r3, [r0, r2, lsl #2]	@ movhi
 1323 006a 0020     		movs	r0, #0
 1324 006c 7047     		bx	lr
 1325              	.L232:
 1326 006e 43F40043 		orr	r3, r3, #32768
 1327 0072 43F08003 		orr	r3, r3, #128
 1328 0076 20F82230 		strh	r3, [r0, r2, lsl #2]	@ movhi
 1329 007a 0020     		movs	r0, #0
 1330 007c 7047     		bx	lr
 1332 007e 00BF     		.section	.text.USB_StopDevice,"ax",%progbits
 1333              		.align	1
 1334              		.p2align 2,,3
 1335              		.global	USB_StopDevice
 1336              		.syntax unified
 1337              		.thumb
ARM GAS  /var/folders/td/83895s255bq6rlxfmrv9fnww0000gn/T//cc420VyG.s 			page 24


 1338              		.thumb_func
 1340              	USB_StopDevice:
 1341              		@ args = 0, pretend = 0, frame = 0
 1342              		@ frame_needed = 0, uses_anonymous_args = 0
 1343              		@ link register save eliminated.
 1344 0000 0346     		mov	r3, r0
 1345 0002 0022     		movs	r2, #0
 1346 0004 4FF0010C 		mov	ip, #1
 1347 0008 0321     		movs	r1, #3
 1348 000a A3F840C0 		strh	ip, [r3, #64]	@ movhi
 1349 000e 1046     		mov	r0, r2
 1350 0010 A3F84420 		strh	r2, [r3, #68]	@ movhi
 1351 0014 A3F84010 		strh	r1, [r3, #64]	@ movhi
 1352 0018 7047     		bx	lr
 1354 001a 00BF     		.section	.text.USB_SetDevAddress,"ax",%progbits
 1355              		.align	1
 1356              		.p2align 2,,3
 1357              		.global	USB_SetDevAddress
 1358              		.syntax unified
 1359              		.thumb
 1360              		.thumb_func
 1362              	USB_SetDevAddress:
 1363              		@ args = 0, pretend = 0, frame = 0
 1364              		@ frame_needed = 0, uses_anonymous_args = 0
 1365              		@ link register save eliminated.
 1366 0000 11B9     		cbnz	r1, .L236
 1367 0002 8023     		movs	r3, #128
 1368 0004 A0F84C30 		strh	r3, [r0, #76]	@ movhi
 1369              	.L236:
 1370 0008 0020     		movs	r0, #0
 1371 000a 7047     		bx	lr
 1373              		.section	.text.USB_DevConnect,"ax",%progbits
 1374              		.align	1
 1375              		.p2align 2,,3
 1376              		.global	USB_DevConnect
 1377              		.syntax unified
 1378              		.thumb
 1379              		.thumb_func
 1381              	USB_DevConnect:
 1382              		@ args = 0, pretend = 0, frame = 0
 1383              		@ frame_needed = 0, uses_anonymous_args = 0
 1384              		@ link register save eliminated.
 1385 0000 0020     		movs	r0, #0
 1386 0002 7047     		bx	lr
 1388              		.section	.text.USB_DevDisconnect,"ax",%progbits
 1389              		.align	1
 1390              		.p2align 2,,3
 1391              		.global	USB_DevDisconnect
 1392              		.syntax unified
 1393              		.thumb
 1394              		.thumb_func
 1396              	USB_DevDisconnect:
 1397              		@ args = 0, pretend = 0, frame = 0
 1398              		@ frame_needed = 0, uses_anonymous_args = 0
 1399              		@ link register save eliminated.
 1400 0000 0020     		movs	r0, #0
 1401 0002 7047     		bx	lr
ARM GAS  /var/folders/td/83895s255bq6rlxfmrv9fnww0000gn/T//cc420VyG.s 			page 25


 1403              		.section	.text.USB_ReadInterrupts,"ax",%progbits
 1404              		.align	1
 1405              		.p2align 2,,3
 1406              		.global	USB_ReadInterrupts
 1407              		.syntax unified
 1408              		.thumb
 1409              		.thumb_func
 1411              	USB_ReadInterrupts:
 1412              		@ args = 0, pretend = 0, frame = 0
 1413              		@ frame_needed = 0, uses_anonymous_args = 0
 1414              		@ link register save eliminated.
 1415 0000 B0F84400 		ldrh	r0, [r0, #68]
 1416 0004 80B2     		uxth	r0, r0
 1417 0006 7047     		bx	lr
 1419              		.section	.text.USB_ReadDevAllOutEpInterrupt,"ax",%progbits
 1420              		.align	1
 1421              		.p2align 2,,3
 1422              		.global	USB_ReadDevAllOutEpInterrupt
 1423              		.syntax unified
 1424              		.thumb
 1425              		.thumb_func
 1427              	USB_ReadDevAllOutEpInterrupt:
 1428              		@ args = 0, pretend = 0, frame = 0
 1429              		@ frame_needed = 0, uses_anonymous_args = 0
 1430              		@ link register save eliminated.
 1431 0000 0020     		movs	r0, #0
 1432 0002 7047     		bx	lr
 1434              		.section	.text.USB_ReadDevAllInEpInterrupt,"ax",%progbits
 1435              		.align	1
 1436              		.p2align 2,,3
 1437              		.global	USB_ReadDevAllInEpInterrupt
 1438              		.syntax unified
 1439              		.thumb
 1440              		.thumb_func
 1442              	USB_ReadDevAllInEpInterrupt:
 1443              		@ args = 0, pretend = 0, frame = 0
 1444              		@ frame_needed = 0, uses_anonymous_args = 0
 1445              		@ link register save eliminated.
 1446 0000 0020     		movs	r0, #0
 1447 0002 7047     		bx	lr
 1449              		.section	.text.USB_ReadDevOutEPInterrupt,"ax",%progbits
 1450              		.align	1
 1451              		.p2align 2,,3
 1452              		.global	USB_ReadDevOutEPInterrupt
 1453              		.syntax unified
 1454              		.thumb
 1455              		.thumb_func
 1457              	USB_ReadDevOutEPInterrupt:
 1458              		@ args = 0, pretend = 0, frame = 0
 1459              		@ frame_needed = 0, uses_anonymous_args = 0
 1460              		@ link register save eliminated.
 1461 0000 0020     		movs	r0, #0
 1462 0002 7047     		bx	lr
 1464              		.section	.text.USB_ReadDevInEPInterrupt,"ax",%progbits
 1465              		.align	1
 1466              		.p2align 2,,3
 1467              		.global	USB_ReadDevInEPInterrupt
ARM GAS  /var/folders/td/83895s255bq6rlxfmrv9fnww0000gn/T//cc420VyG.s 			page 26


 1468              		.syntax unified
 1469              		.thumb
 1470              		.thumb_func
 1472              	USB_ReadDevInEPInterrupt:
 1473              		@ args = 0, pretend = 0, frame = 0
 1474              		@ frame_needed = 0, uses_anonymous_args = 0
 1475              		@ link register save eliminated.
 1476 0000 0020     		movs	r0, #0
 1477 0002 7047     		bx	lr
 1479              		.section	.text.USB_ClearInterrupts,"ax",%progbits
 1480              		.align	1
 1481              		.p2align 2,,3
 1482              		.global	USB_ClearInterrupts
 1483              		.syntax unified
 1484              		.thumb
 1485              		.thumb_func
 1487              	USB_ClearInterrupts:
 1488              		@ args = 0, pretend = 0, frame = 0
 1489              		@ frame_needed = 0, uses_anonymous_args = 0
 1490              		@ link register save eliminated.
 1491 0000 7047     		bx	lr
 1493 0002 00BF     		.section	.text.USB_EP0_OutStart,"ax",%progbits
 1494              		.align	1
 1495              		.p2align 2,,3
 1496              		.global	USB_EP0_OutStart
 1497              		.syntax unified
 1498              		.thumb
 1499              		.thumb_func
 1501              	USB_EP0_OutStart:
 1502              		@ args = 0, pretend = 0, frame = 0
 1503              		@ frame_needed = 0, uses_anonymous_args = 0
 1504              		@ link register save eliminated.
 1505 0000 0020     		movs	r0, #0
 1506 0002 7047     		bx	lr
 1508              		.section	.text.USB_ActivateRemoteWakeup,"ax",%progbits
 1509              		.align	1
 1510              		.p2align 2,,3
 1511              		.global	USB_ActivateRemoteWakeup
 1512              		.syntax unified
 1513              		.thumb
 1514              		.thumb_func
 1516              	USB_ActivateRemoteWakeup:
 1517              		@ args = 0, pretend = 0, frame = 0
 1518              		@ frame_needed = 0, uses_anonymous_args = 0
 1519              		@ link register save eliminated.
 1520 0000 0246     		mov	r2, r0
 1521 0002 B2F84030 		ldrh	r3, [r2, #64]
 1522 0006 0020     		movs	r0, #0
 1523 0008 9BB2     		uxth	r3, r3
 1524 000a 43F01003 		orr	r3, r3, #16
 1525 000e A2F84030 		strh	r3, [r2, #64]	@ movhi
 1526 0012 7047     		bx	lr
 1528              		.section	.text.USB_DeActivateRemoteWakeup,"ax",%progbits
 1529              		.align	1
 1530              		.p2align 2,,3
 1531              		.global	USB_DeActivateRemoteWakeup
 1532              		.syntax unified
ARM GAS  /var/folders/td/83895s255bq6rlxfmrv9fnww0000gn/T//cc420VyG.s 			page 27


 1533              		.thumb
 1534              		.thumb_func
 1536              	USB_DeActivateRemoteWakeup:
 1537              		@ args = 0, pretend = 0, frame = 0
 1538              		@ frame_needed = 0, uses_anonymous_args = 0
 1539              		@ link register save eliminated.
 1540 0000 0246     		mov	r2, r0
 1541 0002 B2F84030 		ldrh	r3, [r2, #64]
 1542 0006 0020     		movs	r0, #0
 1543 0008 23F01003 		bic	r3, r3, #16
 1544 000c 1B04     		lsls	r3, r3, #16
 1545 000e 1B0C     		lsrs	r3, r3, #16
 1546 0010 A2F84030 		strh	r3, [r2, #64]	@ movhi
 1547 0014 7047     		bx	lr
 1549 0016 00BF     		.section	.text.USB_WritePMA,"ax",%progbits
 1550              		.align	1
 1551              		.p2align 2,,3
 1552              		.global	USB_WritePMA
 1553              		.syntax unified
 1554              		.thumb
 1555              		.thumb_func
 1557              	USB_WritePMA:
 1558              		@ args = 0, pretend = 0, frame = 0
 1559              		@ frame_needed = 0, uses_anonymous_args = 0
 1560              		@ link register save eliminated.
 1561 0000 0133     		adds	r3, r3, #1
 1562 0002 00EB4200 		add	r0, r0, r2, lsl #1
 1563 0006 5B08     		lsrs	r3, r3, #1
 1564 0008 00F58060 		add	r0, r0, #1024
 1565 000c 07D0     		beq	.L248
 1566 000e 00EB8302 		add	r2, r0, r3, lsl #2
 1567              	.L250:
 1568 0012 31F8023B 		ldrh	r3, [r1], #2	@ unaligned
 1569 0016 20F8043B 		strh	r3, [r0], #4	@ movhi
 1570 001a 8242     		cmp	r2, r0
 1571 001c F9D1     		bne	.L250
 1572              	.L248:
 1573 001e 7047     		bx	lr
 1575              		.section	.text.USB_ReadPMA,"ax",%progbits
 1576              		.align	1
 1577              		.p2align 2,,3
 1578              		.global	USB_ReadPMA
 1579              		.syntax unified
 1580              		.thumb
 1581              		.thumb_func
 1583              	USB_ReadPMA:
 1584              		@ args = 0, pretend = 0, frame = 0
 1585              		@ frame_needed = 0, uses_anonymous_args = 0
 1586 0000 70B5     		push	{r4, r5, r6, lr}
 1587 0002 00EB4200 		add	r0, r0, r2, lsl #1
 1588 0006 5E08     		lsrs	r6, r3, #1
 1589 0008 00F58065 		add	r5, r0, #1024
 1590 000c 14D0     		beq	.L254
 1591 000e 2846     		mov	r0, r5
 1592 0010 B646     		mov	lr, r6
 1593 0012 01F1020C 		add	ip, r1, #2
 1594              	.L255:
ARM GAS  /var/folders/td/83895s255bq6rlxfmrv9fnww0000gn/T//cc420VyG.s 			page 28


 1595 0016 30F8042B 		ldrh	r2, [r0], #4
 1596 001a 0CF1020C 		add	ip, ip, #2
 1597 001e 92B2     		uxth	r2, r2
 1598 0020 140A     		lsrs	r4, r2, #8
 1599 0022 BEF1010E 		subs	lr, lr, #1
 1600 0026 0CF8042C 		strb	r2, [ip, #-4]
 1601 002a 0CF8034C 		strb	r4, [ip, #-3]
 1602 002e F2D1     		bne	.L255
 1603 0030 01EB4601 		add	r1, r1, r6, lsl #1
 1604 0034 05EB8605 		add	r5, r5, r6, lsl #2
 1605              	.L254:
 1606 0038 DB07     		lsls	r3, r3, #31
 1607 003a 44BF     		itt	mi
 1608 003c 2B88     		ldrhmi	r3, [r5]
 1609 003e 0B70     		strbmi	r3, [r1]
 1610 0040 70BD     		pop	{r4, r5, r6, pc}
 1612 0042 00BF     		.ident	"GCC: (Arm GNU Toolchain 13.2.rel1 (Build arm-13.7)) 13.2.1 20231009"
ARM GAS  /var/folders/td/83895s255bq6rlxfmrv9fnww0000gn/T//cc420VyG.s 			page 29

