ARM GAS  /var/folders/td/83895s255bq6rlxfmrv9fnww0000gn/T//cc0P7Xe6.s 			page 1


   1              		.cpu cortex-m3
   2              		.arch armv7-m
   3              		.fpu softvfp
   4              		.eabi_attribute 20, 1
   5              		.eabi_attribute 21, 1
   6              		.eabi_attribute 23, 3
   7              		.eabi_attribute 24, 1
   8              		.eabi_attribute 25, 1
   9              		.eabi_attribute 26, 1
  10              		.eabi_attribute 30, 2
  11              		.eabi_attribute 34, 1
  12              		.eabi_attribute 18, 4
  13              		.file	"stm32f1xx_hal_tim_ex.c"
  14              		.text
  15              		.section	.text.TIM_DMAErrorCCxN,"ax",%progbits
  16              		.align	1
  17              		.p2align 2,,3
  18              		.syntax unified
  19              		.thumb
  20              		.thumb_func
  22              	TIM_DMAErrorCCxN:
  23              		@ args = 0, pretend = 0, frame = 0
  24              		@ frame_needed = 0, uses_anonymous_args = 0
  25 0000 10B5     		push	{r4, lr}
  26 0002 446A     		ldr	r4, [r0, #36]
  27 0004 636A     		ldr	r3, [r4, #36]
  28 0006 8342     		cmp	r3, r0
  29 0008 16D0     		beq	.L7
  30 000a A36A     		ldr	r3, [r4, #40]
  31 000c 8342     		cmp	r3, r0
  32 000e 08D0     		beq	.L8
  33 0010 E36A     		ldr	r3, [r4, #44]
  34 0012 8342     		cmp	r3, r0
  35 0014 1AD0     		beq	.L9
  36 0016 2046     		mov	r0, r4
  37 0018 FFF7FEFF 		bl	HAL_TIM_ErrorCallback
  38 001c 0023     		movs	r3, #0
  39 001e 2377     		strb	r3, [r4, #28]
  40 0020 10BD     		pop	{r4, pc}
  41              	.L8:
  42 0022 0123     		movs	r3, #1
  43 0024 0222     		movs	r2, #2
  44 0026 84F84330 		strb	r3, [r4, #67]
  45 002a 2046     		mov	r0, r4
  46 002c 2277     		strb	r2, [r4, #28]
  47 002e FFF7FEFF 		bl	HAL_TIM_ErrorCallback
  48 0032 0023     		movs	r3, #0
  49 0034 2377     		strb	r3, [r4, #28]
  50 0036 10BD     		pop	{r4, pc}
  51              	.L7:
  52 0038 0123     		movs	r3, #1
  53 003a 2046     		mov	r0, r4
  54 003c 2377     		strb	r3, [r4, #28]
  55 003e 84F84230 		strb	r3, [r4, #66]
  56 0042 FFF7FEFF 		bl	HAL_TIM_ErrorCallback
  57 0046 0023     		movs	r3, #0
  58 0048 2377     		strb	r3, [r4, #28]
ARM GAS  /var/folders/td/83895s255bq6rlxfmrv9fnww0000gn/T//cc0P7Xe6.s 			page 2


  59 004a 10BD     		pop	{r4, pc}
  60              	.L9:
  61 004c 0123     		movs	r3, #1
  62 004e 0422     		movs	r2, #4
  63 0050 84F84430 		strb	r3, [r4, #68]
  64 0054 2046     		mov	r0, r4
  65 0056 2277     		strb	r2, [r4, #28]
  66 0058 FFF7FEFF 		bl	HAL_TIM_ErrorCallback
  67 005c 0023     		movs	r3, #0
  68 005e 2377     		strb	r3, [r4, #28]
  69 0060 10BD     		pop	{r4, pc}
  71 0062 00BF     		.section	.text.TIM_DMADelayPulseNCplt,"ax",%progbits
  72              		.align	1
  73              		.p2align 2,,3
  74              		.syntax unified
  75              		.thumb
  76              		.thumb_func
  78              	TIM_DMADelayPulseNCplt:
  79              		@ args = 0, pretend = 0, frame = 0
  80              		@ frame_needed = 0, uses_anonymous_args = 0
  81 0000 10B5     		push	{r4, lr}
  82 0002 446A     		ldr	r4, [r0, #36]
  83 0004 636A     		ldr	r3, [r4, #36]
  84 0006 8342     		cmp	r3, r0
  85 0008 1CD0     		beq	.L18
  86 000a A36A     		ldr	r3, [r4, #40]
  87 000c 8342     		cmp	r3, r0
  88 000e 0BD0     		beq	.L19
  89 0010 E36A     		ldr	r3, [r4, #44]
  90 0012 8342     		cmp	r3, r0
  91 0014 23D0     		beq	.L20
  92 0016 236B     		ldr	r3, [r4, #48]
  93 0018 8342     		cmp	r3, r0
  94 001a 29D0     		beq	.L21
  95              	.L13:
  96 001c 2046     		mov	r0, r4
  97 001e FFF7FEFF 		bl	HAL_TIM_PWM_PulseFinishedCallback
  98 0022 0023     		movs	r3, #0
  99 0024 2377     		strb	r3, [r4, #28]
 100 0026 10BD     		pop	{r4, pc}
 101              	.L19:
 102 0028 0222     		movs	r2, #2
 103 002a 2277     		strb	r2, [r4, #28]
 104 002c 9B69     		ldr	r3, [r3, #24]
 105 002e 002B     		cmp	r3, #0
 106 0030 F4D1     		bne	.L13
 107 0032 0123     		movs	r3, #1
 108 0034 2046     		mov	r0, r4
 109 0036 84F84330 		strb	r3, [r4, #67]
 110 003a FFF7FEFF 		bl	HAL_TIM_PWM_PulseFinishedCallback
 111 003e 0023     		movs	r3, #0
 112 0040 2377     		strb	r3, [r4, #28]
 113 0042 10BD     		pop	{r4, pc}
 114              	.L18:
 115 0044 0122     		movs	r2, #1
 116 0046 2277     		strb	r2, [r4, #28]
 117 0048 9B69     		ldr	r3, [r3, #24]
ARM GAS  /var/folders/td/83895s255bq6rlxfmrv9fnww0000gn/T//cc0P7Xe6.s 			page 3


 118 004a 002B     		cmp	r3, #0
 119 004c E6D1     		bne	.L13
 120 004e 2046     		mov	r0, r4
 121 0050 84F84220 		strb	r2, [r4, #66]
 122 0054 FFF7FEFF 		bl	HAL_TIM_PWM_PulseFinishedCallback
 123 0058 0023     		movs	r3, #0
 124 005a 2377     		strb	r3, [r4, #28]
 125 005c 10BD     		pop	{r4, pc}
 126              	.L20:
 127 005e 0422     		movs	r2, #4
 128 0060 2277     		strb	r2, [r4, #28]
 129 0062 9B69     		ldr	r3, [r3, #24]
 130 0064 002B     		cmp	r3, #0
 131 0066 D9D1     		bne	.L13
 132 0068 0123     		movs	r3, #1
 133 006a 84F84430 		strb	r3, [r4, #68]
 134 006e D5E7     		b	.L13
 135              	.L21:
 136 0070 0822     		movs	r2, #8
 137 0072 2277     		strb	r2, [r4, #28]
 138 0074 9B69     		ldr	r3, [r3, #24]
 139 0076 002B     		cmp	r3, #0
 140 0078 D0D1     		bne	.L13
 141 007a 0123     		movs	r3, #1
 142 007c 84F84530 		strb	r3, [r4, #69]
 143 0080 CCE7     		b	.L13
 145 0082 00BF     		.section	.text.HAL_TIMEx_HallSensor_MspInit,"ax",%progbits
 146              		.align	1
 147              		.p2align 2,,3
 148              		.weak	HAL_TIMEx_HallSensor_MspInit
 149              		.syntax unified
 150              		.thumb
 151              		.thumb_func
 153              	HAL_TIMEx_HallSensor_MspInit:
 154              		@ args = 0, pretend = 0, frame = 0
 155              		@ frame_needed = 0, uses_anonymous_args = 0
 156              		@ link register save eliminated.
 157 0000 7047     		bx	lr
 159 0002 00BF     		.section	.text.HAL_TIMEx_HallSensor_Init,"ax",%progbits
 160              		.align	1
 161              		.p2align 2,,3
 162              		.global	HAL_TIMEx_HallSensor_Init
 163              		.syntax unified
 164              		.thumb
 165              		.thumb_func
 167              	HAL_TIMEx_HallSensor_Init:
 168              		@ args = 0, pretend = 0, frame = 32
 169              		@ frame_needed = 0, uses_anonymous_args = 0
 170 0000 0028     		cmp	r0, #0
 171 0002 5FD0     		beq	.L26
 172 0004 70B5     		push	{r4, r5, r6, lr}
 173 0006 90F83D30 		ldrb	r3, [r0, #61]	@ zero_extendqisi2
 174 000a 0446     		mov	r4, r0
 175 000c 0E46     		mov	r6, r1
 176 000e 88B0     		sub	sp, sp, #32
 177 0010 03F0FF02 		and	r2, r3, #255
 178 0014 002B     		cmp	r3, #0
ARM GAS  /var/folders/td/83895s255bq6rlxfmrv9fnww0000gn/T//cc0P7Xe6.s 			page 4


 179 0016 50D0     		beq	.L31
 180              	.L25:
 181 0018 0223     		movs	r3, #2
 182 001a 2146     		mov	r1, r4
 183 001c 84F83D30 		strb	r3, [r4, #61]
 184 0020 51F8040B 		ldr	r0, [r1], #4
 185 0024 FFF7FEFF 		bl	TIM_Base_SetConfig
 186 0028 B368     		ldr	r3, [r6, #8]
 187 002a 3168     		ldr	r1, [r6]
 188 002c 2068     		ldr	r0, [r4]
 189 002e 0322     		movs	r2, #3
 190 0030 FFF7FEFF 		bl	TIM_TI1_SetConfig
 191 0034 7023     		movs	r3, #112
 192 0036 0025     		movs	r5, #0
 193 0038 2068     		ldr	r0, [r4]
 194 003a 0193     		str	r3, [sp, #4]
 195 003c 8369     		ldr	r3, [r0, #24]
 196 003e F268     		ldr	r2, [r6, #12]
 197 0040 23F00C03 		bic	r3, r3, #12
 198 0044 7168     		ldr	r1, [r6, #4]
 199 0046 8361     		str	r3, [r0, #24]
 200 0048 8369     		ldr	r3, [r0, #24]
 201 004a 0B43     		orrs	r3, r3, r1
 202 004c 8361     		str	r3, [r0, #24]
 203 004e 4368     		ldr	r3, [r0, #4]
 204 0050 01A9     		add	r1, sp, #4
 205 0052 43F08003 		orr	r3, r3, #128
 206 0056 4360     		str	r3, [r0, #4]
 207 0058 8368     		ldr	r3, [r0, #8]
 208 005a 0292     		str	r2, [sp, #8]
 209 005c 23F07003 		bic	r3, r3, #112
 210 0060 8360     		str	r3, [r0, #8]
 211 0062 8368     		ldr	r3, [r0, #8]
 212 0064 43F04003 		orr	r3, r3, #64
 213 0068 8360     		str	r3, [r0, #8]
 214 006a 8368     		ldr	r3, [r0, #8]
 215 006c 23F00703 		bic	r3, r3, #7
 216 0070 8360     		str	r3, [r0, #8]
 217 0072 8368     		ldr	r3, [r0, #8]
 218 0074 43F00403 		orr	r3, r3, #4
 219 0078 8360     		str	r3, [r0, #8]
 220 007a CDE90555 		strd	r5, r5, [sp, #20]
 221 007e CDE90355 		strd	r5, r5, [sp, #12]
 222 0082 0795     		str	r5, [sp, #28]
 223 0084 FFF7FEFF 		bl	TIM_OC2_SetConfig
 224 0088 0123     		movs	r3, #1
 225 008a 2846     		mov	r0, r5
 226 008c 2268     		ldr	r2, [r4]
 227 008e 5168     		ldr	r1, [r2, #4]
 228 0090 21F07001 		bic	r1, r1, #112
 229 0094 5160     		str	r1, [r2, #4]
 230 0096 5168     		ldr	r1, [r2, #4]
 231 0098 41F05001 		orr	r1, r1, #80
 232 009c 5160     		str	r1, [r2, #4]
 233 009e 84F84630 		strb	r3, [r4, #70]
 234 00a2 84F83E30 		strb	r3, [r4, #62]
 235 00a6 84F83F30 		strb	r3, [r4, #63]
ARM GAS  /var/folders/td/83895s255bq6rlxfmrv9fnww0000gn/T//cc0P7Xe6.s 			page 5


 236 00aa 84F84230 		strb	r3, [r4, #66]
 237 00ae 84F84330 		strb	r3, [r4, #67]
 238 00b2 84F83D30 		strb	r3, [r4, #61]
 239 00b6 08B0     		add	sp, sp, #32
 240              		@ sp needed
 241 00b8 70BD     		pop	{r4, r5, r6, pc}
 242              	.L31:
 243 00ba 80F83C20 		strb	r2, [r0, #60]
 244 00be FFF7FEFF 		bl	HAL_TIMEx_HallSensor_MspInit
 245 00c2 A9E7     		b	.L25
 246              	.L26:
 247 00c4 0120     		movs	r0, #1
 248 00c6 7047     		bx	lr
 250              		.section	.text.HAL_TIMEx_HallSensor_MspDeInit,"ax",%progbits
 251              		.align	1
 252              		.p2align 2,,3
 253              		.weak	HAL_TIMEx_HallSensor_MspDeInit
 254              		.syntax unified
 255              		.thumb
 256              		.thumb_func
 258              	HAL_TIMEx_HallSensor_MspDeInit:
 259              		@ args = 0, pretend = 0, frame = 0
 260              		@ frame_needed = 0, uses_anonymous_args = 0
 261              		@ link register save eliminated.
 262 0000 7047     		bx	lr
 264 0002 00BF     		.section	.text.HAL_TIMEx_HallSensor_DeInit,"ax",%progbits
 265              		.align	1
 266              		.p2align 2,,3
 267              		.global	HAL_TIMEx_HallSensor_DeInit
 268              		.syntax unified
 269              		.thumb
 270              		.thumb_func
 272              	HAL_TIMEx_HallSensor_DeInit:
 273              		@ args = 0, pretend = 0, frame = 0
 274              		@ frame_needed = 0, uses_anonymous_args = 0
 275 0000 0221     		movs	r1, #2
 276 0002 41F21112 		movw	r2, #4369
 277 0006 0368     		ldr	r3, [r0]
 278 0008 10B5     		push	{r4, lr}
 279 000a 80F83D10 		strb	r1, [r0, #61]
 280 000e 196A     		ldr	r1, [r3, #32]
 281 0010 0446     		mov	r4, r0
 282 0012 1142     		tst	r1, r2
 283 0014 08D1     		bne	.L34
 284 0016 40F24442 		movw	r2, #1092
 285 001a 196A     		ldr	r1, [r3, #32]
 286 001c 1142     		tst	r1, r2
 287 001e 03D1     		bne	.L34
 288 0020 1A68     		ldr	r2, [r3]
 289 0022 22F00102 		bic	r2, r2, #1
 290 0026 1A60     		str	r2, [r3]
 291              	.L34:
 292 0028 2046     		mov	r0, r4
 293 002a FFF7FEFF 		bl	HAL_TIMEx_HallSensor_MspDeInit
 294 002e 0020     		movs	r0, #0
 295 0030 84F84600 		strb	r0, [r4, #70]
 296 0034 84F83C00 		strb	r0, [r4, #60]
ARM GAS  /var/folders/td/83895s255bq6rlxfmrv9fnww0000gn/T//cc0P7Xe6.s 			page 6


 297 0038 84F83E00 		strb	r0, [r4, #62]
 298 003c 84F83F00 		strb	r0, [r4, #63]
 299 0040 84F84200 		strb	r0, [r4, #66]
 300 0044 84F84300 		strb	r0, [r4, #67]
 301 0048 84F83D00 		strb	r0, [r4, #61]
 302 004c 10BD     		pop	{r4, pc}
 304 004e 00BF     		.section	.text.HAL_TIMEx_HallSensor_Start,"ax",%progbits
 305              		.align	1
 306              		.p2align 2,,3
 307              		.global	HAL_TIMEx_HallSensor_Start
 308              		.syntax unified
 309              		.thumb
 310              		.thumb_func
 312              	HAL_TIMEx_HallSensor_Start:
 313              		@ args = 0, pretend = 0, frame = 0
 314              		@ frame_needed = 0, uses_anonymous_args = 0
 315 0000 90F83EC0 		ldrb	ip, [r0, #62]	@ zero_extendqisi2
 316 0004 90F83F30 		ldrb	r3, [r0, #63]	@ zero_extendqisi2
 317 0008 BCF1010F 		cmp	ip, #1
 318 000c 90F84210 		ldrb	r1, [r0, #66]	@ zero_extendqisi2
 319 0010 90F84320 		ldrb	r2, [r0, #67]	@ zero_extendqisi2
 320 0014 07D1     		bne	.L42
 321 0016 DBB2     		uxtb	r3, r3
 322 0018 012B     		cmp	r3, #1
 323 001a 10B5     		push	{r4, lr}
 324 001c 0446     		mov	r4, r0
 325 001e 5FFA8CF0 		uxtb	r0, ip
 326 0022 02D0     		beq	.L52
 327              	.L37:
 328 0024 10BD     		pop	{r4, pc}
 329              	.L42:
 330 0026 0120     		movs	r0, #1
 331 0028 7047     		bx	lr
 332              	.L52:
 333 002a C9B2     		uxtb	r1, r1
 334 002c 0129     		cmp	r1, #1
 335 002e F9D1     		bne	.L37
 336 0030 D2B2     		uxtb	r2, r2
 337 0032 012A     		cmp	r2, #1
 338 0034 F6D1     		bne	.L37
 339 0036 0223     		movs	r3, #2
 340 0038 0021     		movs	r1, #0
 341 003a 84F83E30 		strb	r3, [r4, #62]
 342 003e 2068     		ldr	r0, [r4]
 343 0040 84F83F30 		strb	r3, [r4, #63]
 344 0044 84F84230 		strb	r3, [r4, #66]
 345 0048 84F84330 		strb	r3, [r4, #67]
 346 004c FFF7FEFF 		bl	TIM_CCxChannelCmd
 347 0050 0D4A     		ldr	r2, .L53
 348 0052 2368     		ldr	r3, [r4]
 349 0054 9342     		cmp	r3, r2
 350 0056 10D0     		beq	.L38
 351 0058 B3F1804F 		cmp	r3, #1073741824
 352 005c 0DD0     		beq	.L38
 353 005e A2F59432 		sub	r2, r2, #75776
 354 0062 9342     		cmp	r3, r2
 355 0064 09D0     		beq	.L38
ARM GAS  /var/folders/td/83895s255bq6rlxfmrv9fnww0000gn/T//cc0P7Xe6.s 			page 7


 356 0066 02F58062 		add	r2, r2, #1024
 357 006a 9342     		cmp	r3, r2
 358 006c 05D0     		beq	.L38
 359              	.L39:
 360 006e 1A68     		ldr	r2, [r3]
 361 0070 42F00102 		orr	r2, r2, #1
 362 0074 1A60     		str	r2, [r3]
 363              	.L41:
 364 0076 0020     		movs	r0, #0
 365 0078 10BD     		pop	{r4, pc}
 366              	.L38:
 367 007a 9A68     		ldr	r2, [r3, #8]
 368 007c 02F00702 		and	r2, r2, #7
 369 0080 062A     		cmp	r2, #6
 370 0082 F4D1     		bne	.L39
 371 0084 F7E7     		b	.L41
 372              	.L54:
 373 0086 00BF     		.align	2
 374              	.L53:
 375 0088 002C0140 		.word	1073818624
 377              		.section	.text.HAL_TIMEx_HallSensor_Stop,"ax",%progbits
 378              		.align	1
 379              		.p2align 2,,3
 380              		.global	HAL_TIMEx_HallSensor_Stop
 381              		.syntax unified
 382              		.thumb
 383              		.thumb_func
 385              	HAL_TIMEx_HallSensor_Stop:
 386              		@ args = 0, pretend = 0, frame = 0
 387              		@ frame_needed = 0, uses_anonymous_args = 0
 388 0000 0022     		movs	r2, #0
 389 0002 10B5     		push	{r4, lr}
 390 0004 0446     		mov	r4, r0
 391 0006 1146     		mov	r1, r2
 392 0008 0068     		ldr	r0, [r0]
 393 000a FFF7FEFF 		bl	TIM_CCxChannelCmd
 394 000e 41F21112 		movw	r2, #4369
 395 0012 2368     		ldr	r3, [r4]
 396 0014 196A     		ldr	r1, [r3, #32]
 397 0016 1142     		tst	r1, r2
 398 0018 08D1     		bne	.L56
 399 001a 40F24442 		movw	r2, #1092
 400 001e 196A     		ldr	r1, [r3, #32]
 401 0020 1142     		tst	r1, r2
 402 0022 03D1     		bne	.L56
 403 0024 1A68     		ldr	r2, [r3]
 404 0026 22F00102 		bic	r2, r2, #1
 405 002a 1A60     		str	r2, [r3]
 406              	.L56:
 407 002c 0123     		movs	r3, #1
 408 002e 84F83E30 		strb	r3, [r4, #62]
 409 0032 84F83F30 		strb	r3, [r4, #63]
 410 0036 84F84230 		strb	r3, [r4, #66]
 411 003a 84F84330 		strb	r3, [r4, #67]
 412 003e 0020     		movs	r0, #0
 413 0040 10BD     		pop	{r4, pc}
 415 0042 00BF     		.section	.text.HAL_TIMEx_HallSensor_Start_IT,"ax",%progbits
ARM GAS  /var/folders/td/83895s255bq6rlxfmrv9fnww0000gn/T//cc0P7Xe6.s 			page 8


 416              		.align	1
 417              		.p2align 2,,3
 418              		.global	HAL_TIMEx_HallSensor_Start_IT
 419              		.syntax unified
 420              		.thumb
 421              		.thumb_func
 423              	HAL_TIMEx_HallSensor_Start_IT:
 424              		@ args = 0, pretend = 0, frame = 0
 425              		@ frame_needed = 0, uses_anonymous_args = 0
 426 0000 90F83EC0 		ldrb	ip, [r0, #62]	@ zero_extendqisi2
 427 0004 90F83F30 		ldrb	r3, [r0, #63]	@ zero_extendqisi2
 428 0008 BCF1010F 		cmp	ip, #1
 429 000c 90F84210 		ldrb	r1, [r0, #66]	@ zero_extendqisi2
 430 0010 90F84320 		ldrb	r2, [r0, #67]	@ zero_extendqisi2
 431 0014 07D1     		bne	.L64
 432 0016 DBB2     		uxtb	r3, r3
 433 0018 012B     		cmp	r3, #1
 434 001a 10B5     		push	{r4, lr}
 435 001c 0446     		mov	r4, r0
 436 001e 5FFA8CF0 		uxtb	r0, ip
 437 0022 02D0     		beq	.L74
 438              	.L59:
 439 0024 10BD     		pop	{r4, pc}
 440              	.L64:
 441 0026 0120     		movs	r0, #1
 442 0028 7047     		bx	lr
 443              	.L74:
 444 002a C9B2     		uxtb	r1, r1
 445 002c 0129     		cmp	r1, #1
 446 002e F9D1     		bne	.L59
 447 0030 D2B2     		uxtb	r2, r2
 448 0032 012A     		cmp	r2, #1
 449 0034 F6D1     		bne	.L59
 450 0036 0223     		movs	r3, #2
 451 0038 2068     		ldr	r0, [r4]
 452 003a 84F83E30 		strb	r3, [r4, #62]
 453 003e 84F83F30 		strb	r3, [r4, #63]
 454 0042 84F84230 		strb	r3, [r4, #66]
 455 0046 84F84330 		strb	r3, [r4, #67]
 456 004a C368     		ldr	r3, [r0, #12]
 457 004c 0021     		movs	r1, #0
 458 004e 43F00203 		orr	r3, r3, #2
 459 0052 C360     		str	r3, [r0, #12]
 460 0054 FFF7FEFF 		bl	TIM_CCxChannelCmd
 461 0058 0D4A     		ldr	r2, .L75
 462 005a 2368     		ldr	r3, [r4]
 463 005c 9342     		cmp	r3, r2
 464 005e 10D0     		beq	.L60
 465 0060 B3F1804F 		cmp	r3, #1073741824
 466 0064 0DD0     		beq	.L60
 467 0066 A2F59432 		sub	r2, r2, #75776
 468 006a 9342     		cmp	r3, r2
 469 006c 09D0     		beq	.L60
 470 006e 02F58062 		add	r2, r2, #1024
 471 0072 9342     		cmp	r3, r2
 472 0074 05D0     		beq	.L60
 473              	.L61:
ARM GAS  /var/folders/td/83895s255bq6rlxfmrv9fnww0000gn/T//cc0P7Xe6.s 			page 9


 474 0076 1A68     		ldr	r2, [r3]
 475 0078 42F00102 		orr	r2, r2, #1
 476 007c 1A60     		str	r2, [r3]
 477              	.L63:
 478 007e 0020     		movs	r0, #0
 479 0080 10BD     		pop	{r4, pc}
 480              	.L60:
 481 0082 9A68     		ldr	r2, [r3, #8]
 482 0084 02F00702 		and	r2, r2, #7
 483 0088 062A     		cmp	r2, #6
 484 008a F4D1     		bne	.L61
 485 008c F7E7     		b	.L63
 486              	.L76:
 487 008e 00BF     		.align	2
 488              	.L75:
 489 0090 002C0140 		.word	1073818624
 491              		.section	.text.HAL_TIMEx_HallSensor_Stop_IT,"ax",%progbits
 492              		.align	1
 493              		.p2align 2,,3
 494              		.global	HAL_TIMEx_HallSensor_Stop_IT
 495              		.syntax unified
 496              		.thumb
 497              		.thumb_func
 499              	HAL_TIMEx_HallSensor_Stop_IT:
 500              		@ args = 0, pretend = 0, frame = 0
 501              		@ frame_needed = 0, uses_anonymous_args = 0
 502 0000 0022     		movs	r2, #0
 503 0002 10B5     		push	{r4, lr}
 504 0004 0446     		mov	r4, r0
 505 0006 1146     		mov	r1, r2
 506 0008 0068     		ldr	r0, [r0]
 507 000a FFF7FEFF 		bl	TIM_CCxChannelCmd
 508 000e 41F21111 		movw	r1, #4369
 509 0012 2368     		ldr	r3, [r4]
 510 0014 DA68     		ldr	r2, [r3, #12]
 511 0016 22F00202 		bic	r2, r2, #2
 512 001a DA60     		str	r2, [r3, #12]
 513 001c 1A6A     		ldr	r2, [r3, #32]
 514 001e 0A42     		tst	r2, r1
 515 0020 08D1     		bne	.L78
 516 0022 40F24442 		movw	r2, #1092
 517 0026 196A     		ldr	r1, [r3, #32]
 518 0028 1142     		tst	r1, r2
 519 002a 03D1     		bne	.L78
 520 002c 1A68     		ldr	r2, [r3]
 521 002e 22F00102 		bic	r2, r2, #1
 522 0032 1A60     		str	r2, [r3]
 523              	.L78:
 524 0034 0123     		movs	r3, #1
 525 0036 84F83E30 		strb	r3, [r4, #62]
 526 003a 84F83F30 		strb	r3, [r4, #63]
 527 003e 84F84230 		strb	r3, [r4, #66]
 528 0042 84F84330 		strb	r3, [r4, #67]
 529 0046 0020     		movs	r0, #0
 530 0048 10BD     		pop	{r4, pc}
 532 004a 00BF     		.section	.text.HAL_TIMEx_HallSensor_Start_DMA,"ax",%progbits
 533              		.align	1
ARM GAS  /var/folders/td/83895s255bq6rlxfmrv9fnww0000gn/T//cc0P7Xe6.s 			page 10


 534              		.p2align 2,,3
 535              		.global	HAL_TIMEx_HallSensor_Start_DMA
 536              		.syntax unified
 537              		.thumb
 538              		.thumb_func
 540              	HAL_TIMEx_HallSensor_Start_DMA:
 541              		@ args = 0, pretend = 0, frame = 0
 542              		@ frame_needed = 0, uses_anonymous_args = 0
 543 0000 70B5     		push	{r4, r5, r6, lr}
 544 0002 0446     		mov	r4, r0
 545 0004 90F83EE0 		ldrb	lr, [r0, #62]	@ zero_extendqisi2
 546 0008 94F842C0 		ldrb	ip, [r4, #66]	@ zero_extendqisi2
 547 000c BEF1020F 		cmp	lr, #2
 548 0010 5FFA8EF0 		uxtb	r0, lr
 549 0014 3CD0     		beq	.L81
 550 0016 5FFA8CFC 		uxtb	ip, ip
 551 001a BCF1020F 		cmp	ip, #2
 552 001e 3AD0     		beq	.L88
 553 0020 0128     		cmp	r0, #1
 554 0022 36D1     		bne	.L83
 555 0024 BCF1010F 		cmp	ip, #1
 556 0028 33D1     		bne	.L83
 557 002a 0D46     		mov	r5, r1
 558 002c 89B3     		cbz	r1, .L83
 559 002e 1646     		mov	r6, r2
 560 0030 7AB3     		cbz	r2, .L83
 561 0032 4FF0020C 		mov	ip, #2
 562 0036 0246     		mov	r2, r0
 563 0038 0021     		movs	r1, #0
 564 003a 2068     		ldr	r0, [r4]
 565 003c 84F83EC0 		strb	ip, [r4, #62]
 566 0040 84F842C0 		strb	ip, [r4, #66]
 567 0044 FFF7FEFF 		bl	TIM_CCxChannelCmd
 568 0048 1749     		ldr	r1, .L103
 569 004a 606A     		ldr	r0, [r4, #36]
 570 004c 174A     		ldr	r2, .L103+4
 571 004e 184B     		ldr	r3, .L103+8
 572 0050 0163     		str	r1, [r0, #48]
 573 0052 2168     		ldr	r1, [r4]
 574 0054 C0E90A23 		strd	r2, r3, [r0, #40]
 575 0058 3431     		adds	r1, r1, #52
 576 005a 3346     		mov	r3, r6
 577 005c 2A46     		mov	r2, r5
 578 005e FFF7FEFF 		bl	HAL_DMA_Start_IT
 579 0062 B0B9     		cbnz	r0, .L83
 580 0064 2368     		ldr	r3, [r4]
 581 0066 1349     		ldr	r1, .L103+12
 582 0068 DA68     		ldr	r2, [r3, #12]
 583 006a 8B42     		cmp	r3, r1
 584 006c 42F40072 		orr	r2, r2, #512
 585 0070 DA60     		str	r2, [r3, #12]
 586 0072 12D0     		beq	.L84
 587 0074 B3F1804F 		cmp	r3, #1073741824
 588 0078 0FD0     		beq	.L84
 589 007a 0F4A     		ldr	r2, .L103+16
 590 007c 9342     		cmp	r3, r2
 591 007e 0CD0     		beq	.L84
ARM GAS  /var/folders/td/83895s255bq6rlxfmrv9fnww0000gn/T//cc0P7Xe6.s 			page 11


 592 0080 02F58062 		add	r2, r2, #1024
 593 0084 9342     		cmp	r3, r2
 594 0086 08D0     		beq	.L84
 595              	.L85:
 596 0088 1A68     		ldr	r2, [r3]
 597 008a 42F00102 		orr	r2, r2, #1
 598 008e 1A60     		str	r2, [r3]
 599              	.L81:
 600 0090 70BD     		pop	{r4, r5, r6, pc}
 601              	.L83:
 602 0092 0120     		movs	r0, #1
 603 0094 70BD     		pop	{r4, r5, r6, pc}
 604              	.L88:
 605 0096 6046     		mov	r0, ip
 606 0098 70BD     		pop	{r4, r5, r6, pc}
 607              	.L84:
 608 009a 9A68     		ldr	r2, [r3, #8]
 609 009c 02F00702 		and	r2, r2, #7
 610 00a0 062A     		cmp	r2, #6
 611 00a2 F1D1     		bne	.L85
 612 00a4 70BD     		pop	{r4, r5, r6, pc}
 613              	.L104:
 614 00a6 00BF     		.align	2
 615              	.L103:
 616 00a8 00000000 		.word	TIM_DMAError
 617 00ac 00000000 		.word	TIM_DMACaptureCplt
 618 00b0 00000000 		.word	TIM_DMACaptureHalfCplt
 619 00b4 002C0140 		.word	1073818624
 620 00b8 00040040 		.word	1073742848
 622              		.section	.text.HAL_TIMEx_HallSensor_Stop_DMA,"ax",%progbits
 623              		.align	1
 624              		.p2align 2,,3
 625              		.global	HAL_TIMEx_HallSensor_Stop_DMA
 626              		.syntax unified
 627              		.thumb
 628              		.thumb_func
 630              	HAL_TIMEx_HallSensor_Stop_DMA:
 631              		@ args = 0, pretend = 0, frame = 0
 632              		@ frame_needed = 0, uses_anonymous_args = 0
 633 0000 0022     		movs	r2, #0
 634 0002 10B5     		push	{r4, lr}
 635 0004 0446     		mov	r4, r0
 636 0006 1146     		mov	r1, r2
 637 0008 0068     		ldr	r0, [r0]
 638 000a FFF7FEFF 		bl	TIM_CCxChannelCmd
 639 000e 2268     		ldr	r2, [r4]
 640 0010 606A     		ldr	r0, [r4, #36]
 641 0012 D368     		ldr	r3, [r2, #12]
 642 0014 23F40073 		bic	r3, r3, #512
 643 0018 D360     		str	r3, [r2, #12]
 644 001a FFF7FEFF 		bl	HAL_DMA_Abort_IT
 645 001e 41F21112 		movw	r2, #4369
 646 0022 2368     		ldr	r3, [r4]
 647 0024 196A     		ldr	r1, [r3, #32]
 648 0026 1142     		tst	r1, r2
 649 0028 08D1     		bne	.L106
 650 002a 40F24442 		movw	r2, #1092
ARM GAS  /var/folders/td/83895s255bq6rlxfmrv9fnww0000gn/T//cc0P7Xe6.s 			page 12


 651 002e 196A     		ldr	r1, [r3, #32]
 652 0030 1142     		tst	r1, r2
 653 0032 03D1     		bne	.L106
 654 0034 1A68     		ldr	r2, [r3]
 655 0036 22F00102 		bic	r2, r2, #1
 656 003a 1A60     		str	r2, [r3]
 657              	.L106:
 658 003c 0123     		movs	r3, #1
 659 003e 84F83E30 		strb	r3, [r4, #62]
 660 0042 84F84230 		strb	r3, [r4, #66]
 661 0046 0020     		movs	r0, #0
 662 0048 10BD     		pop	{r4, pc}
 664 004a 00BF     		.section	.text.HAL_TIMEx_OCN_Start,"ax",%progbits
 665              		.align	1
 666              		.p2align 2,,3
 667              		.global	HAL_TIMEx_OCN_Start
 668              		.syntax unified
 669              		.thumb
 670              		.thumb_func
 672              	HAL_TIMEx_OCN_Start:
 673              		@ args = 0, pretend = 0, frame = 0
 674              		@ frame_needed = 0, uses_anonymous_args = 0
 675              		@ link register save eliminated.
 676 0000 59BB     		cbnz	r1, .L109
 677 0002 90F84230 		ldrb	r3, [r0, #66]	@ zero_extendqisi2
 678 0006 012B     		cmp	r3, #1
 679 0008 2FD1     		bne	.L124
 680 000a 0223     		movs	r3, #2
 681 000c 80F84230 		strb	r3, [r0, #66]
 682              	.L117:
 683 0010 0422     		movs	r2, #4
 684 0012 0368     		ldr	r3, [r0]
 685 0014 01F01F01 		and	r1, r1, #31
 686 0018 186A     		ldr	r0, [r3, #32]
 687 001a 8A40     		lsls	r2, r2, r1
 688 001c 20EA0200 		bic	r0, r0, r2
 689 0020 10B4     		push	{r4}
 690 0022 1862     		str	r0, [r3, #32]
 691 0024 196A     		ldr	r1, [r3, #32]
 692 0026 204C     		ldr	r4, .L142
 693 0028 0A43     		orrs	r2, r2, r1
 694 002a 1A62     		str	r2, [r3, #32]
 695 002c 5A6C     		ldr	r2, [r3, #68]
 696 002e A342     		cmp	r3, r4
 697 0030 42F40042 		orr	r2, r2, #32768
 698 0034 5A64     		str	r2, [r3, #68]
 699 0036 1AD0     		beq	.L118
 700 0038 B3F1804F 		cmp	r3, #1073741824
 701 003c 17D0     		beq	.L118
 702 003e 1B4A     		ldr	r2, .L142+4
 703 0040 9342     		cmp	r3, r2
 704 0042 14D0     		beq	.L118
 705 0044 02F58062 		add	r2, r2, #1024
 706 0048 9342     		cmp	r3, r2
 707 004a 10D0     		beq	.L118
 708              	.L138:
 709 004c 1A68     		ldr	r2, [r3]
ARM GAS  /var/folders/td/83895s255bq6rlxfmrv9fnww0000gn/T//cc0P7Xe6.s 			page 13


 710 004e 0020     		movs	r0, #0
 711 0050 42F00102 		orr	r2, r2, #1
 712 0054 10BC     		pop	{r4}
 713 0056 1A60     		str	r2, [r3]
 714 0058 7047     		bx	lr
 715              	.L109:
 716 005a 0429     		cmp	r1, #4
 717 005c 13D0     		beq	.L140
 718 005e 0829     		cmp	r1, #8
 719 0060 19D0     		beq	.L141
 720 0062 90F84530 		ldrb	r3, [r0, #69]	@ zero_extendqisi2
 721 0066 012B     		cmp	r3, #1
 722 0068 09D0     		beq	.L134
 723              	.L124:
 724 006a 0120     		movs	r0, #1
 725 006c 7047     		bx	lr
 726              	.L118:
 727 006e 9A68     		ldr	r2, [r3, #8]
 728 0070 02F00702 		and	r2, r2, #7
 729 0074 062A     		cmp	r2, #6
 730 0076 E9D1     		bne	.L138
 731 0078 0020     		movs	r0, #0
 732 007a 10BC     		pop	{r4}
 733 007c 7047     		bx	lr
 734              	.L134:
 735 007e 0223     		movs	r3, #2
 736 0080 80F84530 		strb	r3, [r0, #69]
 737 0084 C4E7     		b	.L117
 738              	.L140:
 739 0086 90F84330 		ldrb	r3, [r0, #67]	@ zero_extendqisi2
 740 008a 012B     		cmp	r3, #1
 741 008c EDD1     		bne	.L124
 742 008e 0223     		movs	r3, #2
 743 0090 80F84330 		strb	r3, [r0, #67]
 744 0094 BCE7     		b	.L117
 745              	.L141:
 746 0096 90F84430 		ldrb	r3, [r0, #68]	@ zero_extendqisi2
 747 009a 012B     		cmp	r3, #1
 748 009c E5D1     		bne	.L124
 749 009e 0223     		movs	r3, #2
 750 00a0 80F84430 		strb	r3, [r0, #68]
 751 00a4 B4E7     		b	.L117
 752              	.L143:
 753 00a6 00BF     		.align	2
 754              	.L142:
 755 00a8 002C0140 		.word	1073818624
 756 00ac 00040040 		.word	1073742848
 758              		.section	.text.HAL_TIMEx_OCN_Stop,"ax",%progbits
 759              		.align	1
 760              		.p2align 2,,3
 761              		.global	HAL_TIMEx_OCN_Stop
 762              		.syntax unified
 763              		.thumb
 764              		.thumb_func
 766              	HAL_TIMEx_OCN_Stop:
 767              		@ args = 0, pretend = 0, frame = 0
 768              		@ frame_needed = 0, uses_anonymous_args = 0
ARM GAS  /var/folders/td/83895s255bq6rlxfmrv9fnww0000gn/T//cc0P7Xe6.s 			page 14


 769              		@ link register save eliminated.
 770 0000 0422     		movs	r2, #4
 771 0002 10B4     		push	{r4}
 772 0004 41F21114 		movw	r4, #4369
 773 0008 0368     		ldr	r3, [r0]
 774 000a 01F01F0C 		and	ip, r1, #31
 775 000e 02FA0CFC 		lsl	ip, r2, ip
 776 0012 1A6A     		ldr	r2, [r3, #32]
 777 0014 22EA0C02 		bic	r2, r2, ip
 778 0018 1A62     		str	r2, [r3, #32]
 779 001a 1A6A     		ldr	r2, [r3, #32]
 780 001c 1A62     		str	r2, [r3, #32]
 781 001e 1A6A     		ldr	r2, [r3, #32]
 782 0020 2242     		tst	r2, r4
 783 0022 04D1     		bne	.L145
 784 0024 40F24442 		movw	r2, #1092
 785 0028 1C6A     		ldr	r4, [r3, #32]
 786 002a 1442     		tst	r4, r2
 787 002c 20D0     		beq	.L152
 788              	.L145:
 789 002e 41F21112 		movw	r2, #4369
 790 0032 1C6A     		ldr	r4, [r3, #32]
 791 0034 1442     		tst	r4, r2
 792 0036 04D1     		bne	.L146
 793 0038 40F24442 		movw	r2, #1092
 794 003c 1C6A     		ldr	r4, [r3, #32]
 795 003e 1442     		tst	r4, r2
 796 0040 11D0     		beq	.L153
 797              	.L146:
 798 0042 0123     		movs	r3, #1
 799 0044 21B9     		cbnz	r1, .L147
 800 0046 80F84230 		strb	r3, [r0, #66]
 801 004a 10BC     		pop	{r4}
 802 004c 0020     		movs	r0, #0
 803 004e 7047     		bx	lr
 804              	.L147:
 805 0050 0429     		cmp	r1, #4
 806 0052 12D0     		beq	.L154
 807 0054 0829     		cmp	r1, #8
 808 0056 0CBF     		ite	eq
 809 0058 80F84430 		strbeq	r3, [r0, #68]
 810 005c 80F84530 		strbne	r3, [r0, #69]
 811 0060 10BC     		pop	{r4}
 812 0062 0020     		movs	r0, #0
 813 0064 7047     		bx	lr
 814              	.L153:
 815 0066 1A68     		ldr	r2, [r3]
 816 0068 22F00102 		bic	r2, r2, #1
 817 006c 1A60     		str	r2, [r3]
 818 006e E8E7     		b	.L146
 819              	.L152:
 820 0070 5A6C     		ldr	r2, [r3, #68]
 821 0072 22F40042 		bic	r2, r2, #32768
 822 0076 5A64     		str	r2, [r3, #68]
 823 0078 D9E7     		b	.L145
 824              	.L154:
 825 007a 80F84330 		strb	r3, [r0, #67]
ARM GAS  /var/folders/td/83895s255bq6rlxfmrv9fnww0000gn/T//cc0P7Xe6.s 			page 15


 826 007e 10BC     		pop	{r4}
 827 0080 0020     		movs	r0, #0
 828 0082 7047     		bx	lr
 830              		.section	.text.HAL_TIMEx_OCN_Start_IT,"ax",%progbits
 831              		.align	1
 832              		.p2align 2,,3
 833              		.global	HAL_TIMEx_OCN_Start_IT
 834              		.syntax unified
 835              		.thumb
 836              		.thumb_func
 838              	HAL_TIMEx_OCN_Start_IT:
 839              		@ args = 0, pretend = 0, frame = 0
 840              		@ frame_needed = 0, uses_anonymous_args = 0
 841              		@ link register save eliminated.
 842 0000 0029     		cmp	r1, #0
 843 0002 39D1     		bne	.L156
 844 0004 90F84230 		ldrb	r3, [r0, #66]	@ zero_extendqisi2
 845 0008 012B     		cmp	r3, #1
 846 000a 40D1     		bne	.L157
 847 000c 0222     		movs	r2, #2
 848 000e 0368     		ldr	r3, [r0]
 849 0010 80F84220 		strb	r2, [r0, #66]
 850 0014 DA68     		ldr	r2, [r3, #12]
 851 0016 42F00202 		orr	r2, r2, #2
 852 001a DA60     		str	r2, [r3, #12]
 853              	.L164:
 854 001c 0422     		movs	r2, #4
 855 001e D868     		ldr	r0, [r3, #12]
 856 0020 10B4     		push	{r4}
 857 0022 40F08000 		orr	r0, r0, #128
 858 0026 D860     		str	r0, [r3, #12]
 859 0028 186A     		ldr	r0, [r3, #32]
 860 002a 8A40     		lsls	r2, r2, r1
 861 002c 20EA0200 		bic	r0, r0, r2
 862 0030 1862     		str	r0, [r3, #32]
 863 0032 196A     		ldr	r1, [r3, #32]
 864 0034 244C     		ldr	r4, .L182
 865 0036 0A43     		orrs	r2, r2, r1
 866 0038 1A62     		str	r2, [r3, #32]
 867 003a 5A6C     		ldr	r2, [r3, #68]
 868 003c A342     		cmp	r3, r4
 869 003e 42F40042 		orr	r2, r2, #32768
 870 0042 5A64     		str	r2, [r3, #68]
 871 0044 10D0     		beq	.L165
 872 0046 B3F1804F 		cmp	r3, #1073741824
 873 004a 0DD0     		beq	.L165
 874 004c 1F4A     		ldr	r2, .L182+4
 875 004e 9342     		cmp	r3, r2
 876 0050 0AD0     		beq	.L165
 877 0052 02F58062 		add	r2, r2, #1024
 878 0056 9342     		cmp	r3, r2
 879 0058 06D0     		beq	.L165
 880              	.L166:
 881 005a 1A68     		ldr	r2, [r3]
 882 005c 0020     		movs	r0, #0
 883 005e 42F00102 		orr	r2, r2, #1
 884 0062 10BC     		pop	{r4}
ARM GAS  /var/folders/td/83895s255bq6rlxfmrv9fnww0000gn/T//cc0P7Xe6.s 			page 16


 885 0064 1A60     		str	r2, [r3]
 886 0066 7047     		bx	lr
 887              	.L165:
 888 0068 9A68     		ldr	r2, [r3, #8]
 889 006a 02F00702 		and	r2, r2, #7
 890 006e 062A     		cmp	r2, #6
 891 0070 F3D1     		bne	.L166
 892 0072 0020     		movs	r0, #0
 893 0074 10BC     		pop	{r4}
 894 0076 7047     		bx	lr
 895              	.L156:
 896 0078 0429     		cmp	r1, #4
 897 007a 0AD0     		beq	.L180
 898 007c 0829     		cmp	r1, #8
 899 007e 15D0     		beq	.L181
 900 0080 90F84530 		ldrb	r3, [r0, #69]	@ zero_extendqisi2
 901 0084 012B     		cmp	r3, #1
 902 0086 02D1     		bne	.L157
 903 0088 0223     		movs	r3, #2
 904 008a 80F84530 		strb	r3, [r0, #69]
 905              	.L157:
 906 008e 0120     		movs	r0, #1
 907 0090 7047     		bx	lr
 908              	.L180:
 909 0092 90F84330 		ldrb	r3, [r0, #67]	@ zero_extendqisi2
 910 0096 012B     		cmp	r3, #1
 911 0098 F9D1     		bne	.L157
 912 009a 0222     		movs	r2, #2
 913 009c 0368     		ldr	r3, [r0]
 914 009e 80F84320 		strb	r2, [r0, #67]
 915 00a2 DA68     		ldr	r2, [r3, #12]
 916 00a4 42F00402 		orr	r2, r2, #4
 917 00a8 DA60     		str	r2, [r3, #12]
 918 00aa B7E7     		b	.L164
 919              	.L181:
 920 00ac 90F84430 		ldrb	r3, [r0, #68]	@ zero_extendqisi2
 921 00b0 012B     		cmp	r3, #1
 922 00b2 ECD1     		bne	.L157
 923 00b4 0222     		movs	r2, #2
 924 00b6 0368     		ldr	r3, [r0]
 925 00b8 80F84420 		strb	r2, [r0, #68]
 926 00bc DA68     		ldr	r2, [r3, #12]
 927 00be 42F00802 		orr	r2, r2, #8
 928 00c2 DA60     		str	r2, [r3, #12]
 929 00c4 AAE7     		b	.L164
 930              	.L183:
 931 00c6 00BF     		.align	2
 932              	.L182:
 933 00c8 002C0140 		.word	1073818624
 934 00cc 00040040 		.word	1073742848
 936              		.section	.text.HAL_TIMEx_OCN_Stop_IT,"ax",%progbits
 937              		.align	1
 938              		.p2align 2,,3
 939              		.global	HAL_TIMEx_OCN_Stop_IT
 940              		.syntax unified
 941              		.thumb
 942              		.thumb_func
ARM GAS  /var/folders/td/83895s255bq6rlxfmrv9fnww0000gn/T//cc0P7Xe6.s 			page 17


 944              	HAL_TIMEx_OCN_Stop_IT:
 945              		@ args = 0, pretend = 0, frame = 0
 946              		@ frame_needed = 0, uses_anonymous_args = 0
 947              		@ link register save eliminated.
 948 0000 0429     		cmp	r1, #4
 949 0002 48D0     		beq	.L185
 950 0004 0829     		cmp	r1, #8
 951 0006 35D0     		beq	.L186
 952 0008 0029     		cmp	r1, #0
 953 000a 42D1     		bne	.L195
 954 000c 0368     		ldr	r3, [r0]
 955 000e DA68     		ldr	r2, [r3, #12]
 956 0010 22F00202 		bic	r2, r2, #2
 957 0014 DA60     		str	r2, [r3, #12]
 958              	.L188:
 959 0016 4FF0040C 		mov	ip, #4
 960 001a 10B4     		push	{r4}
 961 001c 40F24444 		movw	r4, #1092
 962 0020 1A6A     		ldr	r2, [r3, #32]
 963 0022 0CFA01FC 		lsl	ip, ip, r1
 964 0026 22EA0C02 		bic	r2, r2, ip
 965 002a 1A62     		str	r2, [r3, #32]
 966 002c 1A6A     		ldr	r2, [r3, #32]
 967 002e 1A62     		str	r2, [r3, #32]
 968 0030 1A6A     		ldr	r2, [r3, #32]
 969 0032 2242     		tst	r2, r4
 970 0034 03D1     		bne	.L189
 971 0036 DA68     		ldr	r2, [r3, #12]
 972 0038 22F08002 		bic	r2, r2, #128
 973 003c DA60     		str	r2, [r3, #12]
 974              	.L189:
 975 003e 41F21112 		movw	r2, #4369
 976 0042 1C6A     		ldr	r4, [r3, #32]
 977 0044 1442     		tst	r4, r2
 978 0046 04D1     		bne	.L190
 979 0048 40F24442 		movw	r2, #1092
 980 004c 1C6A     		ldr	r4, [r3, #32]
 981 004e 1442     		tst	r4, r2
 982 0050 2CD0     		beq	.L199
 983              	.L190:
 984 0052 41F21112 		movw	r2, #4369
 985 0056 1C6A     		ldr	r4, [r3, #32]
 986 0058 1442     		tst	r4, r2
 987 005a 04D1     		bne	.L191
 988 005c 40F24442 		movw	r2, #1092
 989 0060 1C6A     		ldr	r4, [r3, #32]
 990 0062 1442     		tst	r4, r2
 991 0064 1DD0     		beq	.L200
 992              	.L191:
 993 0066 0123     		movs	r3, #1
 994 0068 51B9     		cbnz	r1, .L192
 995 006a 80F84230 		strb	r3, [r0, #66]
 996 006e 10BC     		pop	{r4}
 997 0070 0020     		movs	r0, #0
 998 0072 7047     		bx	lr
 999              	.L186:
 1000 0074 0368     		ldr	r3, [r0]
ARM GAS  /var/folders/td/83895s255bq6rlxfmrv9fnww0000gn/T//cc0P7Xe6.s 			page 18


 1001 0076 DA68     		ldr	r2, [r3, #12]
 1002 0078 22F00802 		bic	r2, r2, #8
 1003 007c DA60     		str	r2, [r3, #12]
 1004 007e CAE7     		b	.L188
 1005              	.L192:
 1006 0080 0429     		cmp	r1, #4
 1007 0082 0CBF     		ite	eq
 1008 0084 80F84330 		strbeq	r3, [r0, #67]
 1009 0088 80F84430 		strbne	r3, [r0, #68]
 1010 008c 10BC     		pop	{r4}
 1011 008e 0020     		movs	r0, #0
 1012 0090 7047     		bx	lr
 1013              	.L195:
 1014 0092 0120     		movs	r0, #1
 1015 0094 7047     		bx	lr
 1016              	.L185:
 1017 0096 0368     		ldr	r3, [r0]
 1018 0098 DA68     		ldr	r2, [r3, #12]
 1019 009a 22F00402 		bic	r2, r2, #4
 1020 009e DA60     		str	r2, [r3, #12]
 1021 00a0 B9E7     		b	.L188
 1022              	.L200:
 1023 00a2 1A68     		ldr	r2, [r3]
 1024 00a4 22F00102 		bic	r2, r2, #1
 1025 00a8 1A60     		str	r2, [r3]
 1026 00aa DCE7     		b	.L191
 1027              	.L199:
 1028 00ac 5A6C     		ldr	r2, [r3, #68]
 1029 00ae 22F40042 		bic	r2, r2, #32768
 1030 00b2 5A64     		str	r2, [r3, #68]
 1031 00b4 CDE7     		b	.L190
 1033 00b6 00BF     		.section	.text.HAL_TIMEx_OCN_Start_DMA,"ax",%progbits
 1034              		.align	1
 1035              		.p2align 2,,3
 1036              		.global	HAL_TIMEx_OCN_Start_DMA
 1037              		.syntax unified
 1038              		.thumb
 1039              		.thumb_func
 1041              	HAL_TIMEx_OCN_Start_DMA:
 1042              		@ args = 0, pretend = 0, frame = 0
 1043              		@ frame_needed = 0, uses_anonymous_args = 0
 1044 0000 F8B5     		push	{r3, r4, r5, r6, r7, lr}
 1045 0002 0446     		mov	r4, r0
 1046 0004 1E46     		mov	r6, r3
 1047 0006 0D46     		mov	r5, r1
 1048 0008 0029     		cmp	r1, #0
 1049 000a 44D1     		bne	.L202
 1050 000c 90F84210 		ldrb	r1, [r0, #66]	@ zero_extendqisi2
 1051 0010 0229     		cmp	r1, #2
 1052 0012 C8B2     		uxtb	r0, r1
 1053 0014 3ED0     		beq	.L203
 1054 0016 94F84210 		ldrb	r1, [r4, #66]	@ zero_extendqisi2
 1055 001a 0129     		cmp	r1, #1
 1056 001c 4DD1     		bne	.L218
 1057 001e 002A     		cmp	r2, #0
 1058 0020 4BD0     		beq	.L218
 1059 0022 002B     		cmp	r3, #0
ARM GAS  /var/folders/td/83895s255bq6rlxfmrv9fnww0000gn/T//cc0P7Xe6.s 			page 19


 1060 0024 49D0     		beq	.L218
 1061 0026 4FF0020E 		mov	lr, #2
 1062 002a 606A     		ldr	r0, [r4, #36]
 1063 002c 1146     		mov	r1, r2
 1064 002e DFF834C1 		ldr	ip, .L278
 1065 0032 2268     		ldr	r2, [r4]
 1066 0034 4C4F     		ldr	r7, .L278+4
 1067 0036 4D4E     		ldr	r6, .L278+8
 1068 0038 84F842E0 		strb	lr, [r4, #66]
 1069 003c 3432     		adds	r2, r2, #52
 1070 003e C0E90AC7 		strd	ip, r7, [r0, #40]
 1071 0042 0663     		str	r6, [r0, #48]
 1072 0044 FFF7FEFF 		bl	HAL_DMA_Start_IT
 1073 0048 0028     		cmp	r0, #0
 1074 004a 36D1     		bne	.L218
 1075 004c 2368     		ldr	r3, [r4]
 1076 004e DA68     		ldr	r2, [r3, #12]
 1077 0050 42F40072 		orr	r2, r2, #512
 1078 0054 DA60     		str	r2, [r3, #12]
 1079              	.L219:
 1080 0056 0422     		movs	r2, #4
 1081 0058 196A     		ldr	r1, [r3, #32]
 1082 005a AA40     		lsls	r2, r2, r5
 1083 005c 21EA0201 		bic	r1, r1, r2
 1084 0060 1962     		str	r1, [r3, #32]
 1085 0062 196A     		ldr	r1, [r3, #32]
 1086 0064 4248     		ldr	r0, .L278+12
 1087 0066 0A43     		orrs	r2, r2, r1
 1088 0068 1A62     		str	r2, [r3, #32]
 1089 006a 5A6C     		ldr	r2, [r3, #68]
 1090 006c 8342     		cmp	r3, r0
 1091 006e 42F40042 		orr	r2, r2, #32768
 1092 0072 5A64     		str	r2, [r3, #68]
 1093 0074 23D0     		beq	.L220
 1094 0076 B3F1804F 		cmp	r3, #1073741824
 1095 007a 20D0     		beq	.L220
 1096 007c 3D4A     		ldr	r2, .L278+16
 1097 007e 9342     		cmp	r3, r2
 1098 0080 1DD0     		beq	.L220
 1099 0082 02F58062 		add	r2, r2, #1024
 1100 0086 9342     		cmp	r3, r2
 1101 0088 19D0     		beq	.L220
 1102              	.L221:
 1103 008a 1A68     		ldr	r2, [r3]
 1104 008c 42F00102 		orr	r2, r2, #1
 1105 0090 1A60     		str	r2, [r3]
 1106              	.L222:
 1107 0092 0020     		movs	r0, #0
 1108              	.L203:
 1109 0094 F8BD     		pop	{r3, r4, r5, r6, r7, pc}
 1110              	.L202:
 1111 0096 0429     		cmp	r1, #4
 1112 0098 17D0     		beq	.L276
 1113 009a 0829     		cmp	r1, #8
 1114 009c 3BD0     		beq	.L277
 1115 009e 90F84530 		ldrb	r3, [r0, #69]	@ zero_extendqisi2
 1116 00a2 022B     		cmp	r3, #2
ARM GAS  /var/folders/td/83895s255bq6rlxfmrv9fnww0000gn/T//cc0P7Xe6.s 			page 20


 1117 00a4 D8B2     		uxtb	r0, r3
 1118 00a6 F5D0     		beq	.L203
 1119 00a8 94F84530 		ldrb	r3, [r4, #69]	@ zero_extendqisi2
 1120 00ac 012B     		cmp	r3, #1
 1121 00ae 04D1     		bne	.L218
 1122 00b0 1AB1     		cbz	r2, .L218
 1123 00b2 16B1     		cbz	r6, .L218
 1124 00b4 0223     		movs	r3, #2
 1125 00b6 84F84530 		strb	r3, [r4, #69]
 1126              	.L218:
 1127 00ba 0120     		movs	r0, #1
 1128 00bc F8BD     		pop	{r3, r4, r5, r6, r7, pc}
 1129              	.L220:
 1130 00be 9A68     		ldr	r2, [r3, #8]
 1131 00c0 02F00702 		and	r2, r2, #7
 1132 00c4 062A     		cmp	r2, #6
 1133 00c6 E0D1     		bne	.L221
 1134 00c8 E3E7     		b	.L222
 1135              	.L276:
 1136 00ca 90F84310 		ldrb	r1, [r0, #67]	@ zero_extendqisi2
 1137 00ce 0229     		cmp	r1, #2
 1138 00d0 C8B2     		uxtb	r0, r1
 1139 00d2 DFD0     		beq	.L203
 1140 00d4 94F84310 		ldrb	r1, [r4, #67]	@ zero_extendqisi2
 1141 00d8 0129     		cmp	r1, #1
 1142 00da EED1     		bne	.L218
 1143 00dc 002A     		cmp	r2, #0
 1144 00de ECD0     		beq	.L218
 1145 00e0 002B     		cmp	r3, #0
 1146 00e2 EAD0     		beq	.L218
 1147 00e4 4FF0020E 		mov	lr, #2
 1148 00e8 A06A     		ldr	r0, [r4, #40]
 1149 00ea 1146     		mov	r1, r2
 1150 00ec DFF874C0 		ldr	ip, .L278
 1151 00f0 2268     		ldr	r2, [r4]
 1152 00f2 1D4F     		ldr	r7, .L278+4
 1153 00f4 1D4E     		ldr	r6, .L278+8
 1154 00f6 84F843E0 		strb	lr, [r4, #67]
 1155 00fa 3832     		adds	r2, r2, #56
 1156 00fc C0E90AC7 		strd	ip, r7, [r0, #40]
 1157 0100 0663     		str	r6, [r0, #48]
 1158 0102 FFF7FEFF 		bl	HAL_DMA_Start_IT
 1159 0106 0028     		cmp	r0, #0
 1160 0108 D7D1     		bne	.L218
 1161 010a 2368     		ldr	r3, [r4]
 1162 010c DA68     		ldr	r2, [r3, #12]
 1163 010e 42F48062 		orr	r2, r2, #1024
 1164 0112 DA60     		str	r2, [r3, #12]
 1165 0114 9FE7     		b	.L219
 1166              	.L277:
 1167 0116 90F84410 		ldrb	r1, [r0, #68]	@ zero_extendqisi2
 1168 011a 0229     		cmp	r1, #2
 1169 011c C8B2     		uxtb	r0, r1
 1170 011e B9D0     		beq	.L203
 1171 0120 94F84410 		ldrb	r1, [r4, #68]	@ zero_extendqisi2
 1172 0124 0129     		cmp	r1, #1
 1173 0126 C8D1     		bne	.L218
ARM GAS  /var/folders/td/83895s255bq6rlxfmrv9fnww0000gn/T//cc0P7Xe6.s 			page 21


 1174 0128 002A     		cmp	r2, #0
 1175 012a C6D0     		beq	.L218
 1176 012c 002B     		cmp	r3, #0
 1177 012e C4D0     		beq	.L218
 1178 0130 4FF0020E 		mov	lr, #2
 1179 0134 E06A     		ldr	r0, [r4, #44]
 1180 0136 1146     		mov	r1, r2
 1181 0138 DFF828C0 		ldr	ip, .L278
 1182 013c 2268     		ldr	r2, [r4]
 1183 013e 0A4F     		ldr	r7, .L278+4
 1184 0140 0A4E     		ldr	r6, .L278+8
 1185 0142 84F844E0 		strb	lr, [r4, #68]
 1186 0146 3C32     		adds	r2, r2, #60
 1187 0148 C0E90AC7 		strd	ip, r7, [r0, #40]
 1188 014c 0663     		str	r6, [r0, #48]
 1189 014e FFF7FEFF 		bl	HAL_DMA_Start_IT
 1190 0152 0028     		cmp	r0, #0
 1191 0154 B1D1     		bne	.L218
 1192 0156 2368     		ldr	r3, [r4]
 1193 0158 DA68     		ldr	r2, [r3, #12]
 1194 015a 42F40062 		orr	r2, r2, #2048
 1195 015e DA60     		str	r2, [r3, #12]
 1196 0160 79E7     		b	.L219
 1197              	.L279:
 1198 0162 00BF     		.align	2
 1199              	.L278:
 1200 0164 00000000 		.word	TIM_DMADelayPulseNCplt
 1201 0168 00000000 		.word	TIM_DMADelayPulseHalfCplt
 1202 016c 00000000 		.word	TIM_DMAErrorCCxN
 1203 0170 002C0140 		.word	1073818624
 1204 0174 00040040 		.word	1073742848
 1206              		.section	.text.HAL_TIMEx_OCN_Stop_DMA,"ax",%progbits
 1207              		.align	1
 1208              		.p2align 2,,3
 1209              		.global	HAL_TIMEx_OCN_Stop_DMA
 1210              		.syntax unified
 1211              		.thumb
 1212              		.thumb_func
 1214              	HAL_TIMEx_OCN_Stop_DMA:
 1215              		@ args = 0, pretend = 0, frame = 0
 1216              		@ frame_needed = 0, uses_anonymous_args = 0
 1217 0000 0429     		cmp	r1, #4
 1218 0002 38B5     		push	{r3, r4, r5, lr}
 1219 0004 0C46     		mov	r4, r1
 1220 0006 0546     		mov	r5, r0
 1221 0008 3ED0     		beq	.L281
 1222 000a 0829     		cmp	r1, #8
 1223 000c 2CD0     		beq	.L282
 1224 000e 0029     		cmp	r1, #0
 1225 0010 43D1     		bne	.L290
 1226 0012 0268     		ldr	r2, [r0]
 1227 0014 406A     		ldr	r0, [r0, #36]
 1228 0016 D368     		ldr	r3, [r2, #12]
 1229 0018 23F40073 		bic	r3, r3, #512
 1230 001c D360     		str	r3, [r2, #12]
 1231 001e FFF7FEFF 		bl	HAL_DMA_Abort_IT
 1232              	.L284:
ARM GAS  /var/folders/td/83895s255bq6rlxfmrv9fnww0000gn/T//cc0P7Xe6.s 			page 22


 1233 0022 0421     		movs	r1, #4
 1234 0024 41F21110 		movw	r0, #4369
 1235 0028 2B68     		ldr	r3, [r5]
 1236 002a A140     		lsls	r1, r1, r4
 1237 002c 1A6A     		ldr	r2, [r3, #32]
 1238 002e 22EA0102 		bic	r2, r2, r1
 1239 0032 1A62     		str	r2, [r3, #32]
 1240 0034 1A6A     		ldr	r2, [r3, #32]
 1241 0036 1A62     		str	r2, [r3, #32]
 1242 0038 1A6A     		ldr	r2, [r3, #32]
 1243 003a 0242     		tst	r2, r0
 1244 003c 04D1     		bne	.L285
 1245 003e 40F24442 		movw	r2, #1092
 1246 0042 196A     		ldr	r1, [r3, #32]
 1247 0044 1142     		tst	r1, r2
 1248 0046 2FD0     		beq	.L292
 1249              	.L285:
 1250 0048 41F21112 		movw	r2, #4369
 1251 004c 196A     		ldr	r1, [r3, #32]
 1252 004e 1142     		tst	r1, r2
 1253 0050 04D1     		bne	.L286
 1254 0052 40F24442 		movw	r2, #1092
 1255 0056 196A     		ldr	r1, [r3, #32]
 1256 0058 1142     		tst	r1, r2
 1257 005a 20D0     		beq	.L293
 1258              	.L286:
 1259 005c 0123     		movs	r3, #1
 1260 005e 64B9     		cbnz	r4, .L287
 1261 0060 85F84230 		strb	r3, [r5, #66]
 1262              	.L288:
 1263 0064 0020     		movs	r0, #0
 1264 0066 38BD     		pop	{r3, r4, r5, pc}
 1265              	.L282:
 1266 0068 0268     		ldr	r2, [r0]
 1267 006a C06A     		ldr	r0, [r0, #44]
 1268 006c D368     		ldr	r3, [r2, #12]
 1269 006e 23F40063 		bic	r3, r3, #2048
 1270 0072 D360     		str	r3, [r2, #12]
 1271 0074 FFF7FEFF 		bl	HAL_DMA_Abort_IT
 1272 0078 D3E7     		b	.L284
 1273              	.L287:
 1274 007a 042C     		cmp	r4, #4
 1275 007c 0CBF     		ite	eq
 1276 007e 85F84330 		strbeq	r3, [r5, #67]
 1277 0082 85F84430 		strbne	r3, [r5, #68]
 1278 0086 EDE7     		b	.L288
 1279              	.L281:
 1280 0088 0268     		ldr	r2, [r0]
 1281 008a 806A     		ldr	r0, [r0, #40]
 1282 008c D368     		ldr	r3, [r2, #12]
 1283 008e 23F48063 		bic	r3, r3, #1024
 1284 0092 D360     		str	r3, [r2, #12]
 1285 0094 FFF7FEFF 		bl	HAL_DMA_Abort_IT
 1286 0098 C3E7     		b	.L284
 1287              	.L290:
 1288 009a 0120     		movs	r0, #1
 1289 009c 38BD     		pop	{r3, r4, r5, pc}
ARM GAS  /var/folders/td/83895s255bq6rlxfmrv9fnww0000gn/T//cc0P7Xe6.s 			page 23


 1290              	.L293:
 1291 009e 1A68     		ldr	r2, [r3]
 1292 00a0 22F00102 		bic	r2, r2, #1
 1293 00a4 1A60     		str	r2, [r3]
 1294 00a6 D9E7     		b	.L286
 1295              	.L292:
 1296 00a8 5A6C     		ldr	r2, [r3, #68]
 1297 00aa 22F40042 		bic	r2, r2, #32768
 1298 00ae 5A64     		str	r2, [r3, #68]
 1299 00b0 CAE7     		b	.L285
 1301 00b2 00BF     		.section	.text.HAL_TIMEx_PWMN_Start,"ax",%progbits
 1302              		.align	1
 1303              		.p2align 2,,3
 1304              		.global	HAL_TIMEx_PWMN_Start
 1305              		.syntax unified
 1306              		.thumb
 1307              		.thumb_func
 1309              	HAL_TIMEx_PWMN_Start:
 1310              		@ args = 0, pretend = 0, frame = 0
 1311              		@ frame_needed = 0, uses_anonymous_args = 0
 1312              		@ link register save eliminated.
 1313 0000 FFF7FEBF 		b	HAL_TIMEx_OCN_Start
 1315              		.section	.text.HAL_TIMEx_PWMN_Stop,"ax",%progbits
 1316              		.align	1
 1317              		.p2align 2,,3
 1318              		.global	HAL_TIMEx_PWMN_Stop
 1319              		.syntax unified
 1320              		.thumb
 1321              		.thumb_func
 1323              	HAL_TIMEx_PWMN_Stop:
 1324              		@ args = 0, pretend = 0, frame = 0
 1325              		@ frame_needed = 0, uses_anonymous_args = 0
 1326              		@ link register save eliminated.
 1327 0000 FFF7FEBF 		b	HAL_TIMEx_OCN_Stop
 1329              		.section	.text.HAL_TIMEx_PWMN_Start_IT,"ax",%progbits
 1330              		.align	1
 1331              		.p2align 2,,3
 1332              		.global	HAL_TIMEx_PWMN_Start_IT
 1333              		.syntax unified
 1334              		.thumb
 1335              		.thumb_func
 1337              	HAL_TIMEx_PWMN_Start_IT:
 1338              		@ args = 0, pretend = 0, frame = 0
 1339              		@ frame_needed = 0, uses_anonymous_args = 0
 1340              		@ link register save eliminated.
 1341 0000 FFF7FEBF 		b	HAL_TIMEx_OCN_Start_IT
 1343              		.section	.text.HAL_TIMEx_PWMN_Stop_IT,"ax",%progbits
 1344              		.align	1
 1345              		.p2align 2,,3
 1346              		.global	HAL_TIMEx_PWMN_Stop_IT
 1347              		.syntax unified
 1348              		.thumb
 1349              		.thumb_func
 1351              	HAL_TIMEx_PWMN_Stop_IT:
 1352              		@ args = 0, pretend = 0, frame = 0
 1353              		@ frame_needed = 0, uses_anonymous_args = 0
 1354              		@ link register save eliminated.
ARM GAS  /var/folders/td/83895s255bq6rlxfmrv9fnww0000gn/T//cc0P7Xe6.s 			page 24


 1355 0000 FFF7FEBF 		b	HAL_TIMEx_OCN_Stop_IT
 1357              		.section	.text.HAL_TIMEx_PWMN_Start_DMA,"ax",%progbits
 1358              		.align	1
 1359              		.p2align 2,,3
 1360              		.global	HAL_TIMEx_PWMN_Start_DMA
 1361              		.syntax unified
 1362              		.thumb
 1363              		.thumb_func
 1365              	HAL_TIMEx_PWMN_Start_DMA:
 1366              		@ args = 0, pretend = 0, frame = 0
 1367              		@ frame_needed = 0, uses_anonymous_args = 0
 1368              		@ link register save eliminated.
 1369 0000 FFF7FEBF 		b	HAL_TIMEx_OCN_Start_DMA
 1371              		.section	.text.HAL_TIMEx_PWMN_Stop_DMA,"ax",%progbits
 1372              		.align	1
 1373              		.p2align 2,,3
 1374              		.global	HAL_TIMEx_PWMN_Stop_DMA
 1375              		.syntax unified
 1376              		.thumb
 1377              		.thumb_func
 1379              	HAL_TIMEx_PWMN_Stop_DMA:
 1380              		@ args = 0, pretend = 0, frame = 0
 1381              		@ frame_needed = 0, uses_anonymous_args = 0
 1382              		@ link register save eliminated.
 1383 0000 FFF7FEBF 		b	HAL_TIMEx_OCN_Stop_DMA
 1385              		.section	.text.HAL_TIMEx_OnePulseN_Start,"ax",%progbits
 1386              		.align	1
 1387              		.p2align 2,,3
 1388              		.global	HAL_TIMEx_OnePulseN_Start
 1389              		.syntax unified
 1390              		.thumb
 1391              		.thumb_func
 1393              	HAL_TIMEx_OnePulseN_Start:
 1394              		@ args = 0, pretend = 0, frame = 0
 1395              		@ frame_needed = 0, uses_anonymous_args = 0
 1396 0000 38B5     		push	{r3, r4, r5, lr}
 1397 0002 90F83E50 		ldrb	r5, [r0, #62]	@ zero_extendqisi2
 1398 0006 0446     		mov	r4, r0
 1399 0008 012D     		cmp	r5, #1
 1400 000a 90F83F30 		ldrb	r3, [r0, #63]	@ zero_extendqisi2
 1401 000e 90F842C0 		ldrb	ip, [r0, #66]	@ zero_extendqisi2
 1402 0012 90F843E0 		ldrb	lr, [r0, #67]	@ zero_extendqisi2
 1403 0016 04D1     		bne	.L302
 1404 0018 DBB2     		uxtb	r3, r3
 1405 001a 012B     		cmp	r3, #1
 1406 001c E8B2     		uxtb	r0, r5
 1407 001e 02D0     		beq	.L306
 1408              	.L301:
 1409 0020 38BD     		pop	{r3, r4, r5, pc}
 1410              	.L302:
 1411 0022 0120     		movs	r0, #1
 1412 0024 38BD     		pop	{r3, r4, r5, pc}
 1413              	.L306:
 1414 0026 5FFA8CFC 		uxtb	ip, ip
 1415 002a BCF1010F 		cmp	ip, #1
 1416 002e F7D1     		bne	.L301
 1417 0030 5FFA8EFE 		uxtb	lr, lr
ARM GAS  /var/folders/td/83895s255bq6rlxfmrv9fnww0000gn/T//cc0P7Xe6.s 			page 25


 1418 0034 BEF1010F 		cmp	lr, #1
 1419 0038 F2D1     		bne	.L301
 1420 003a 4FF0020C 		mov	ip, #2
 1421 003e 0246     		mov	r2, r0
 1422 0040 B1FA81F0 		clz	r0, r1
 1423 0044 0423     		movs	r3, #4
 1424 0046 2568     		ldr	r5, [r4]
 1425 0048 84F83EC0 		strb	ip, [r4, #62]
 1426 004c 01F01F01 		and	r1, r1, #31
 1427 0050 84F83FC0 		strb	ip, [r4, #63]
 1428 0054 4009     		lsrs	r0, r0, #5
 1429 0056 84F842C0 		strb	ip, [r4, #66]
 1430 005a 84F843C0 		strb	ip, [r4, #67]
 1431 005e 8B40     		lsls	r3, r3, r1
 1432 0060 00FA0CF1 		lsl	r1, r0, ip
 1433 0064 286A     		ldr	r0, [r5, #32]
 1434 0066 20EA0300 		bic	r0, r0, r3
 1435 006a 2862     		str	r0, [r5, #32]
 1436 006c 286A     		ldr	r0, [r5, #32]
 1437 006e 0343     		orrs	r3, r3, r0
 1438 0070 2B62     		str	r3, [r5, #32]
 1439 0072 2846     		mov	r0, r5
 1440 0074 FFF7FEFF 		bl	TIM_CCxChannelCmd
 1441 0078 2268     		ldr	r2, [r4]
 1442 007a 0020     		movs	r0, #0
 1443 007c 536C     		ldr	r3, [r2, #68]
 1444 007e 43F40043 		orr	r3, r3, #32768
 1445 0082 5364     		str	r3, [r2, #68]
 1446 0084 38BD     		pop	{r3, r4, r5, pc}
 1448 0086 00BF     		.section	.text.HAL_TIMEx_OnePulseN_Stop,"ax",%progbits
 1449              		.align	1
 1450              		.p2align 2,,3
 1451              		.global	HAL_TIMEx_OnePulseN_Stop
 1452              		.syntax unified
 1453              		.thumb
 1454              		.thumb_func
 1456              	HAL_TIMEx_OnePulseN_Stop:
 1457              		@ args = 0, pretend = 0, frame = 0
 1458              		@ frame_needed = 0, uses_anonymous_args = 0
 1459 0000 4FF0040C 		mov	ip, #4
 1460 0004 B1FA81F3 		clz	r3, r1
 1461 0008 10B5     		push	{r4, lr}
 1462 000a 0446     		mov	r4, r0
 1463 000c 0068     		ldr	r0, [r0]
 1464 000e 01F01F01 		and	r1, r1, #31
 1465 0012 0CFA01FC 		lsl	ip, ip, r1
 1466 0016 016A     		ldr	r1, [r0, #32]
 1467 0018 5B09     		lsrs	r3, r3, #5
 1468 001a 21EA0C01 		bic	r1, r1, ip
 1469 001e 0162     		str	r1, [r0, #32]
 1470 0020 016A     		ldr	r1, [r0, #32]
 1471 0022 0022     		movs	r2, #0
 1472 0024 0162     		str	r1, [r0, #32]
 1473 0026 9900     		lsls	r1, r3, #2
 1474 0028 FFF7FEFF 		bl	TIM_CCxChannelCmd
 1475 002c 41F21112 		movw	r2, #4369
 1476 0030 2368     		ldr	r3, [r4]
ARM GAS  /var/folders/td/83895s255bq6rlxfmrv9fnww0000gn/T//cc0P7Xe6.s 			page 26


 1477 0032 196A     		ldr	r1, [r3, #32]
 1478 0034 1142     		tst	r1, r2
 1479 0036 04D1     		bne	.L308
 1480 0038 40F24442 		movw	r2, #1092
 1481 003c 196A     		ldr	r1, [r3, #32]
 1482 003e 1142     		tst	r1, r2
 1483 0040 18D0     		beq	.L311
 1484              	.L308:
 1485 0042 41F21112 		movw	r2, #4369
 1486 0046 196A     		ldr	r1, [r3, #32]
 1487 0048 1142     		tst	r1, r2
 1488 004a 08D1     		bne	.L309
 1489 004c 40F24442 		movw	r2, #1092
 1490 0050 196A     		ldr	r1, [r3, #32]
 1491 0052 1142     		tst	r1, r2
 1492 0054 03D1     		bne	.L309
 1493 0056 1A68     		ldr	r2, [r3]
 1494 0058 22F00102 		bic	r2, r2, #1
 1495 005c 1A60     		str	r2, [r3]
 1496              	.L309:
 1497 005e 0123     		movs	r3, #1
 1498 0060 84F83E30 		strb	r3, [r4, #62]
 1499 0064 84F83F30 		strb	r3, [r4, #63]
 1500 0068 84F84230 		strb	r3, [r4, #66]
 1501 006c 84F84330 		strb	r3, [r4, #67]
 1502 0070 0020     		movs	r0, #0
 1503 0072 10BD     		pop	{r4, pc}
 1504              	.L311:
 1505 0074 5A6C     		ldr	r2, [r3, #68]
 1506 0076 22F40042 		bic	r2, r2, #32768
 1507 007a 5A64     		str	r2, [r3, #68]
 1508 007c E1E7     		b	.L308
 1510 007e 00BF     		.section	.text.HAL_TIMEx_OnePulseN_Start_IT,"ax",%progbits
 1511              		.align	1
 1512              		.p2align 2,,3
 1513              		.global	HAL_TIMEx_OnePulseN_Start_IT
 1514              		.syntax unified
 1515              		.thumb
 1516              		.thumb_func
 1518              	HAL_TIMEx_OnePulseN_Start_IT:
 1519              		@ args = 0, pretend = 0, frame = 0
 1520              		@ frame_needed = 0, uses_anonymous_args = 0
 1521 0000 38B5     		push	{r3, r4, r5, lr}
 1522 0002 90F83E50 		ldrb	r5, [r0, #62]	@ zero_extendqisi2
 1523 0006 0446     		mov	r4, r0
 1524 0008 012D     		cmp	r5, #1
 1525 000a 90F83F30 		ldrb	r3, [r0, #63]	@ zero_extendqisi2
 1526 000e 90F842C0 		ldrb	ip, [r0, #66]	@ zero_extendqisi2
 1527 0012 90F843E0 		ldrb	lr, [r0, #67]	@ zero_extendqisi2
 1528 0016 04D1     		bne	.L314
 1529 0018 DBB2     		uxtb	r3, r3
 1530 001a 012B     		cmp	r3, #1
 1531 001c E8B2     		uxtb	r0, r5
 1532 001e 02D0     		beq	.L318
 1533              	.L313:
 1534 0020 38BD     		pop	{r3, r4, r5, pc}
 1535              	.L314:
ARM GAS  /var/folders/td/83895s255bq6rlxfmrv9fnww0000gn/T//cc0P7Xe6.s 			page 27


 1536 0022 0120     		movs	r0, #1
 1537 0024 38BD     		pop	{r3, r4, r5, pc}
 1538              	.L318:
 1539 0026 5FFA8CFC 		uxtb	ip, ip
 1540 002a BCF1010F 		cmp	ip, #1
 1541 002e F7D1     		bne	.L313
 1542 0030 5FFA8EFE 		uxtb	lr, lr
 1543 0034 BEF1010F 		cmp	lr, #1
 1544 0038 F2D1     		bne	.L313
 1545 003a 0225     		movs	r5, #2
 1546 003c B1FA81FC 		clz	ip, r1
 1547 0040 0246     		mov	r2, r0
 1548 0042 0420     		movs	r0, #4
 1549 0044 2368     		ldr	r3, [r4]
 1550 0046 84F83E50 		strb	r5, [r4, #62]
 1551 004a 4FEA5C1C 		lsr	ip, ip, #5
 1552 004e 84F83F50 		strb	r5, [r4, #63]
 1553 0052 01F01F01 		and	r1, r1, #31
 1554 0056 84F84250 		strb	r5, [r4, #66]
 1555 005a 84F84350 		strb	r5, [r4, #67]
 1556 005e 8840     		lsls	r0, r0, r1
 1557 0060 0CFA05F1 		lsl	r1, ip, r5
 1558 0064 DD68     		ldr	r5, [r3, #12]
 1559 0066 45F00205 		orr	r5, r5, #2
 1560 006a DD60     		str	r5, [r3, #12]
 1561 006c DD68     		ldr	r5, [r3, #12]
 1562 006e 45F00405 		orr	r5, r5, #4
 1563 0072 DD60     		str	r5, [r3, #12]
 1564 0074 1D6A     		ldr	r5, [r3, #32]
 1565 0076 25EA0005 		bic	r5, r5, r0
 1566 007a 1D62     		str	r5, [r3, #32]
 1567 007c 1D6A     		ldr	r5, [r3, #32]
 1568 007e 2843     		orrs	r0, r0, r5
 1569 0080 1862     		str	r0, [r3, #32]
 1570 0082 1846     		mov	r0, r3
 1571 0084 FFF7FEFF 		bl	TIM_CCxChannelCmd
 1572 0088 2268     		ldr	r2, [r4]
 1573 008a 0020     		movs	r0, #0
 1574 008c 536C     		ldr	r3, [r2, #68]
 1575 008e 43F40043 		orr	r3, r3, #32768
 1576 0092 5364     		str	r3, [r2, #68]
 1577 0094 38BD     		pop	{r3, r4, r5, pc}
 1579 0096 00BF     		.section	.text.HAL_TIMEx_OnePulseN_Stop_IT,"ax",%progbits
 1580              		.align	1
 1581              		.p2align 2,,3
 1582              		.global	HAL_TIMEx_OnePulseN_Stop_IT
 1583              		.syntax unified
 1584              		.thumb
 1585              		.thumb_func
 1587              	HAL_TIMEx_OnePulseN_Stop_IT:
 1588              		@ args = 0, pretend = 0, frame = 0
 1589              		@ frame_needed = 0, uses_anonymous_args = 0
 1590 0000 4FF0040C 		mov	ip, #4
 1591 0004 B1FA81F3 		clz	r3, r1
 1592 0008 10B5     		push	{r4, lr}
 1593 000a 0446     		mov	r4, r0
 1594 000c 0068     		ldr	r0, [r0]
ARM GAS  /var/folders/td/83895s255bq6rlxfmrv9fnww0000gn/T//cc0P7Xe6.s 			page 28


 1595 000e 01F01F01 		and	r1, r1, #31
 1596 0012 0CFA01FC 		lsl	ip, ip, r1
 1597 0016 C168     		ldr	r1, [r0, #12]
 1598 0018 5B09     		lsrs	r3, r3, #5
 1599 001a 21F00201 		bic	r1, r1, #2
 1600 001e C160     		str	r1, [r0, #12]
 1601 0020 C168     		ldr	r1, [r0, #12]
 1602 0022 0022     		movs	r2, #0
 1603 0024 21F00401 		bic	r1, r1, #4
 1604 0028 C160     		str	r1, [r0, #12]
 1605 002a 016A     		ldr	r1, [r0, #32]
 1606 002c 21EA0C01 		bic	r1, r1, ip
 1607 0030 0162     		str	r1, [r0, #32]
 1608 0032 016A     		ldr	r1, [r0, #32]
 1609 0034 0162     		str	r1, [r0, #32]
 1610 0036 9900     		lsls	r1, r3, #2
 1611 0038 FFF7FEFF 		bl	TIM_CCxChannelCmd
 1612 003c 41F21112 		movw	r2, #4369
 1613 0040 2368     		ldr	r3, [r4]
 1614 0042 196A     		ldr	r1, [r3, #32]
 1615 0044 1142     		tst	r1, r2
 1616 0046 04D1     		bne	.L320
 1617 0048 40F24442 		movw	r2, #1092
 1618 004c 196A     		ldr	r1, [r3, #32]
 1619 004e 1142     		tst	r1, r2
 1620 0050 18D0     		beq	.L323
 1621              	.L320:
 1622 0052 41F21112 		movw	r2, #4369
 1623 0056 196A     		ldr	r1, [r3, #32]
 1624 0058 1142     		tst	r1, r2
 1625 005a 08D1     		bne	.L321
 1626 005c 40F24442 		movw	r2, #1092
 1627 0060 196A     		ldr	r1, [r3, #32]
 1628 0062 1142     		tst	r1, r2
 1629 0064 03D1     		bne	.L321
 1630 0066 1A68     		ldr	r2, [r3]
 1631 0068 22F00102 		bic	r2, r2, #1
 1632 006c 1A60     		str	r2, [r3]
 1633              	.L321:
 1634 006e 0123     		movs	r3, #1
 1635 0070 84F83E30 		strb	r3, [r4, #62]
 1636 0074 84F83F30 		strb	r3, [r4, #63]
 1637 0078 84F84230 		strb	r3, [r4, #66]
 1638 007c 84F84330 		strb	r3, [r4, #67]
 1639 0080 0020     		movs	r0, #0
 1640 0082 10BD     		pop	{r4, pc}
 1641              	.L323:
 1642 0084 5A6C     		ldr	r2, [r3, #68]
 1643 0086 22F40042 		bic	r2, r2, #32768
 1644 008a 5A64     		str	r2, [r3, #68]
 1645 008c E1E7     		b	.L320
 1647 008e 00BF     		.section	.text.HAL_TIMEx_ConfigCommutEvent,"ax",%progbits
 1648              		.align	1
 1649              		.p2align 2,,3
 1650              		.global	HAL_TIMEx_ConfigCommutEvent
 1651              		.syntax unified
 1652              		.thumb
ARM GAS  /var/folders/td/83895s255bq6rlxfmrv9fnww0000gn/T//cc0P7Xe6.s 			page 29


 1653              		.thumb_func
 1655              	HAL_TIMEx_ConfigCommutEvent:
 1656              		@ args = 0, pretend = 0, frame = 0
 1657              		@ frame_needed = 0, uses_anonymous_args = 0
 1658 0000 90F83C30 		ldrb	r3, [r0, #60]	@ zero_extendqisi2
 1659 0004 012B     		cmp	r3, #1
 1660 0006 30D0     		beq	.L329
 1661 0008 8446     		mov	ip, r0
 1662 000a 0120     		movs	r0, #1
 1663 000c 2029     		cmp	r1, #32
 1664 000e 00B5     		push	{lr}
 1665 0010 DCF80030 		ldr	r3, [ip]
 1666 0014 8CF83C00 		strb	r0, [ip, #60]
 1667 0018 1FD0     		beq	.L326
 1668 001a 1CD8     		bhi	.L327
 1669 001c 31F01000 		bics	r0, r1, #16
 1670 0020 1BD0     		beq	.L326
 1671              	.L328:
 1672 0022 4FF0000E 		mov	lr, #0
 1673 0026 5968     		ldr	r1, [r3, #4]
 1674 0028 7046     		mov	r0, lr
 1675 002a 41F00101 		orr	r1, r1, #1
 1676 002e 5960     		str	r1, [r3, #4]
 1677 0030 5968     		ldr	r1, [r3, #4]
 1678 0032 21F00401 		bic	r1, r1, #4
 1679 0036 5960     		str	r1, [r3, #4]
 1680 0038 5968     		ldr	r1, [r3, #4]
 1681 003a 0A43     		orrs	r2, r2, r1
 1682 003c 5A60     		str	r2, [r3, #4]
 1683 003e DA68     		ldr	r2, [r3, #12]
 1684 0040 22F02002 		bic	r2, r2, #32
 1685 0044 DA60     		str	r2, [r3, #12]
 1686 0046 DA68     		ldr	r2, [r3, #12]
 1687 0048 22F40052 		bic	r2, r2, #8192
 1688 004c DA60     		str	r2, [r3, #12]
 1689 004e 8CF83CE0 		strb	lr, [ip, #60]
 1690 0052 5DF804FB 		ldr	pc, [sp], #4
 1691              	.L327:
 1692 0056 3029     		cmp	r1, #48
 1693 0058 E3D1     		bne	.L328
 1694              	.L326:
 1695 005a 9868     		ldr	r0, [r3, #8]
 1696 005c 20F07000 		bic	r0, r0, #112
 1697 0060 9860     		str	r0, [r3, #8]
 1698 0062 9868     		ldr	r0, [r3, #8]
 1699 0064 0143     		orrs	r1, r1, r0
 1700 0066 9960     		str	r1, [r3, #8]
 1701 0068 DBE7     		b	.L328
 1702              	.L329:
 1703 006a 0220     		movs	r0, #2
 1704 006c 7047     		bx	lr
 1706 006e 00BF     		.section	.text.HAL_TIMEx_ConfigCommutEvent_IT,"ax",%progbits
 1707              		.align	1
 1708              		.p2align 2,,3
 1709              		.global	HAL_TIMEx_ConfigCommutEvent_IT
 1710              		.syntax unified
 1711              		.thumb
ARM GAS  /var/folders/td/83895s255bq6rlxfmrv9fnww0000gn/T//cc0P7Xe6.s 			page 30


 1712              		.thumb_func
 1714              	HAL_TIMEx_ConfigCommutEvent_IT:
 1715              		@ args = 0, pretend = 0, frame = 0
 1716              		@ frame_needed = 0, uses_anonymous_args = 0
 1717 0000 90F83C30 		ldrb	r3, [r0, #60]	@ zero_extendqisi2
 1718 0004 012B     		cmp	r3, #1
 1719 0006 30D0     		beq	.L345
 1720 0008 8446     		mov	ip, r0
 1721 000a 0120     		movs	r0, #1
 1722 000c 2029     		cmp	r1, #32
 1723 000e 00B5     		push	{lr}
 1724 0010 DCF80030 		ldr	r3, [ip]
 1725 0014 8CF83C00 		strb	r0, [ip, #60]
 1726 0018 1FD0     		beq	.L342
 1727 001a 1CD8     		bhi	.L343
 1728 001c 31F01000 		bics	r0, r1, #16
 1729 0020 1BD0     		beq	.L342
 1730              	.L344:
 1731 0022 4FF0000E 		mov	lr, #0
 1732 0026 5968     		ldr	r1, [r3, #4]
 1733 0028 7046     		mov	r0, lr
 1734 002a 41F00101 		orr	r1, r1, #1
 1735 002e 5960     		str	r1, [r3, #4]
 1736 0030 5968     		ldr	r1, [r3, #4]
 1737 0032 21F00401 		bic	r1, r1, #4
 1738 0036 5960     		str	r1, [r3, #4]
 1739 0038 5968     		ldr	r1, [r3, #4]
 1740 003a 0A43     		orrs	r2, r2, r1
 1741 003c 5A60     		str	r2, [r3, #4]
 1742 003e DA68     		ldr	r2, [r3, #12]
 1743 0040 22F40052 		bic	r2, r2, #8192
 1744 0044 DA60     		str	r2, [r3, #12]
 1745 0046 DA68     		ldr	r2, [r3, #12]
 1746 0048 42F02002 		orr	r2, r2, #32
 1747 004c DA60     		str	r2, [r3, #12]
 1748 004e 8CF83CE0 		strb	lr, [ip, #60]
 1749 0052 5DF804FB 		ldr	pc, [sp], #4
 1750              	.L343:
 1751 0056 3029     		cmp	r1, #48
 1752 0058 E3D1     		bne	.L344
 1753              	.L342:
 1754 005a 9868     		ldr	r0, [r3, #8]
 1755 005c 20F07000 		bic	r0, r0, #112
 1756 0060 9860     		str	r0, [r3, #8]
 1757 0062 9868     		ldr	r0, [r3, #8]
 1758 0064 0143     		orrs	r1, r1, r0
 1759 0066 9960     		str	r1, [r3, #8]
 1760 0068 DBE7     		b	.L344
 1761              	.L345:
 1762 006a 0220     		movs	r0, #2
 1763 006c 7047     		bx	lr
 1765 006e 00BF     		.section	.text.HAL_TIMEx_ConfigCommutEvent_DMA,"ax",%progbits
 1766              		.align	1
 1767              		.p2align 2,,3
 1768              		.global	HAL_TIMEx_ConfigCommutEvent_DMA
 1769              		.syntax unified
 1770              		.thumb
ARM GAS  /var/folders/td/83895s255bq6rlxfmrv9fnww0000gn/T//cc0P7Xe6.s 			page 31


 1771              		.thumb_func
 1773              	HAL_TIMEx_ConfigCommutEvent_DMA:
 1774              		@ args = 0, pretend = 0, frame = 0
 1775              		@ frame_needed = 0, uses_anonymous_args = 0
 1776 0000 90F83C30 		ldrb	r3, [r0, #60]	@ zero_extendqisi2
 1777 0004 012B     		cmp	r3, #1
 1778 0006 38D0     		beq	.L361
 1779 0008 8446     		mov	ip, r0
 1780 000a 0120     		movs	r0, #1
 1781 000c 2029     		cmp	r1, #32
 1782 000e 00B5     		push	{lr}
 1783 0010 DCF80030 		ldr	r3, [ip]
 1784 0014 8CF83C00 		strb	r0, [ip, #60]
 1785 0018 27D0     		beq	.L358
 1786 001a 24D8     		bhi	.L359
 1787 001c 31F01000 		bics	r0, r1, #16
 1788 0020 23D0     		beq	.L358
 1789              	.L360:
 1790 0022 4FF0000E 		mov	lr, #0
 1791 0026 5968     		ldr	r1, [r3, #4]
 1792 0028 7046     		mov	r0, lr
 1793 002a 41F00101 		orr	r1, r1, #1
 1794 002e 5960     		str	r1, [r3, #4]
 1795 0030 5968     		ldr	r1, [r3, #4]
 1796 0032 21F00401 		bic	r1, r1, #4
 1797 0036 5960     		str	r1, [r3, #4]
 1798 0038 5968     		ldr	r1, [r3, #4]
 1799 003a 0A43     		orrs	r2, r2, r1
 1800 003c 5A60     		str	r2, [r3, #4]
 1801 003e 1049     		ldr	r1, .L372
 1802 0040 DCF83420 		ldr	r2, [ip, #52]
 1803 0044 9162     		str	r1, [r2, #40]
 1804 0046 0F49     		ldr	r1, .L372+4
 1805 0048 D162     		str	r1, [r2, #44]
 1806 004a 0F49     		ldr	r1, .L372+8
 1807 004c 1163     		str	r1, [r2, #48]
 1808 004e DA68     		ldr	r2, [r3, #12]
 1809 0050 22F02002 		bic	r2, r2, #32
 1810 0054 DA60     		str	r2, [r3, #12]
 1811 0056 DA68     		ldr	r2, [r3, #12]
 1812 0058 42F40052 		orr	r2, r2, #8192
 1813 005c DA60     		str	r2, [r3, #12]
 1814 005e 8CF83CE0 		strb	lr, [ip, #60]
 1815 0062 5DF804FB 		ldr	pc, [sp], #4
 1816              	.L359:
 1817 0066 3029     		cmp	r1, #48
 1818 0068 DBD1     		bne	.L360
 1819              	.L358:
 1820 006a 9868     		ldr	r0, [r3, #8]
 1821 006c 20F07000 		bic	r0, r0, #112
 1822 0070 9860     		str	r0, [r3, #8]
 1823 0072 9868     		ldr	r0, [r3, #8]
 1824 0074 0143     		orrs	r1, r1, r0
 1825 0076 9960     		str	r1, [r3, #8]
 1826 0078 D3E7     		b	.L360
 1827              	.L361:
 1828 007a 0220     		movs	r0, #2
ARM GAS  /var/folders/td/83895s255bq6rlxfmrv9fnww0000gn/T//cc0P7Xe6.s 			page 32


 1829 007c 7047     		bx	lr
 1830              	.L373:
 1831 007e 00BF     		.align	2
 1832              	.L372:
 1833 0080 00000000 		.word	TIMEx_DMACommutationCplt
 1834 0084 00000000 		.word	TIMEx_DMACommutationHalfCplt
 1835 0088 00000000 		.word	TIM_DMAError
 1837              		.section	.text.HAL_TIMEx_MasterConfigSynchronization,"ax",%progbits
 1838              		.align	1
 1839              		.p2align 2,,3
 1840              		.global	HAL_TIMEx_MasterConfigSynchronization
 1841              		.syntax unified
 1842              		.thumb
 1843              		.thumb_func
 1845              	HAL_TIMEx_MasterConfigSynchronization:
 1846              		@ args = 0, pretend = 0, frame = 0
 1847              		@ frame_needed = 0, uses_anonymous_args = 0
 1848              		@ link register save eliminated.
 1849 0000 90F83C20 		ldrb	r2, [r0, #60]	@ zero_extendqisi2
 1850 0004 012A     		cmp	r2, #1
 1851 0006 27D0     		beq	.L378
 1852 0008 0346     		mov	r3, r0
 1853 000a 0220     		movs	r0, #2
 1854 000c 1A68     		ldr	r2, [r3]
 1855 000e 30B4     		push	{r4, r5}
 1856 0010 83F83D00 		strb	r0, [r3, #61]
 1857 0014 5068     		ldr	r0, [r2, #4]
 1858 0016 0C68     		ldr	r4, [r1]
 1859 0018 104D     		ldr	r5, .L386
 1860 001a 20F07000 		bic	r0, r0, #112
 1861 001e 2043     		orrs	r0, r0, r4
 1862 0020 AA42     		cmp	r2, r5
 1863 0022 9468     		ldr	r4, [r2, #8]
 1864 0024 5060     		str	r0, [r2, #4]
 1865 0026 09D0     		beq	.L376
 1866 0028 B2F1804F 		cmp	r2, #1073741824
 1867 002c 06D0     		beq	.L376
 1868 002e 0C48     		ldr	r0, .L386+4
 1869 0030 8242     		cmp	r2, r0
 1870 0032 03D0     		beq	.L376
 1871 0034 00F58060 		add	r0, r0, #1024
 1872 0038 8242     		cmp	r2, r0
 1873 003a 04D1     		bne	.L377
 1874              	.L376:
 1875 003c 4968     		ldr	r1, [r1, #4]
 1876 003e 24F08004 		bic	r4, r4, #128
 1877 0042 0C43     		orrs	r4, r4, r1
 1878 0044 9460     		str	r4, [r2, #8]
 1879              	.L377:
 1880 0046 0022     		movs	r2, #0
 1881 0048 0121     		movs	r1, #1
 1882 004a 83F83C20 		strb	r2, [r3, #60]
 1883 004e 83F83D10 		strb	r1, [r3, #61]
 1884 0052 1046     		mov	r0, r2
 1885 0054 30BC     		pop	{r4, r5}
 1886 0056 7047     		bx	lr
 1887              	.L378:
ARM GAS  /var/folders/td/83895s255bq6rlxfmrv9fnww0000gn/T//cc0P7Xe6.s 			page 33


 1888 0058 0220     		movs	r0, #2
 1889 005a 7047     		bx	lr
 1890              	.L387:
 1891              		.align	2
 1892              	.L386:
 1893 005c 002C0140 		.word	1073818624
 1894 0060 00040040 		.word	1073742848
 1896              		.section	.text.HAL_TIMEx_ConfigBreakDeadTime,"ax",%progbits
 1897              		.align	1
 1898              		.p2align 2,,3
 1899              		.global	HAL_TIMEx_ConfigBreakDeadTime
 1900              		.syntax unified
 1901              		.thumb
 1902              		.thumb_func
 1904              	HAL_TIMEx_ConfigBreakDeadTime:
 1905              		@ args = 0, pretend = 0, frame = 0
 1906              		@ frame_needed = 0, uses_anonymous_args = 0
 1907              		@ link register save eliminated.
 1908 0000 90F83C30 		ldrb	r3, [r0, #60]	@ zero_extendqisi2
 1909 0004 012B     		cmp	r3, #1
 1910 0006 23D0     		beq	.L390
 1911 0008 0246     		mov	r2, r0
 1912 000a D1E90203 		ldrd	r0, r3, [r1, #8]
 1913 000e 4FF0000C 		mov	ip, #0
 1914 0012 23F44073 		bic	r3, r3, #768
 1915 0016 0343     		orrs	r3, r3, r0
 1916 0018 4868     		ldr	r0, [r1, #4]
 1917 001a 23F48063 		bic	r3, r3, #1024
 1918 001e 0343     		orrs	r3, r3, r0
 1919 0020 0868     		ldr	r0, [r1]
 1920 0022 23F40063 		bic	r3, r3, #2048
 1921 0026 0343     		orrs	r3, r3, r0
 1922 0028 0869     		ldr	r0, [r1, #16]
 1923 002a 23F48053 		bic	r3, r3, #4096
 1924 002e 10B4     		push	{r4}
 1925 0030 0343     		orrs	r3, r3, r0
 1926 0032 4C69     		ldr	r4, [r1, #20]
 1927 0034 23F40053 		bic	r3, r3, #8192
 1928 0038 C869     		ldr	r0, [r1, #28]
 1929 003a 2343     		orrs	r3, r3, r4
 1930 003c 1168     		ldr	r1, [r2]
 1931 003e 23F48043 		bic	r3, r3, #16384
 1932 0042 0343     		orrs	r3, r3, r0
 1933 0044 4B64     		str	r3, [r1, #68]
 1934 0046 82F83CC0 		strb	ip, [r2, #60]
 1935 004a 6046     		mov	r0, ip
 1936 004c 10BC     		pop	{r4}
 1937 004e 7047     		bx	lr
 1938              	.L390:
 1939 0050 0220     		movs	r0, #2
 1940 0052 7047     		bx	lr
 1942              		.section	.text.HAL_TIMEx_RemapConfig,"ax",%progbits
 1943              		.align	1
 1944              		.p2align 2,,3
 1945              		.global	HAL_TIMEx_RemapConfig
 1946              		.syntax unified
 1947              		.thumb
ARM GAS  /var/folders/td/83895s255bq6rlxfmrv9fnww0000gn/T//cc0P7Xe6.s 			page 34


 1948              		.thumb_func
 1950              	HAL_TIMEx_RemapConfig:
 1951              		@ args = 0, pretend = 0, frame = 0
 1952              		@ frame_needed = 0, uses_anonymous_args = 0
 1953              		@ link register save eliminated.
 1954 0000 0020     		movs	r0, #0
 1955 0002 7047     		bx	lr
 1957              		.section	.text.HAL_TIMEx_CommutCallback,"ax",%progbits
 1958              		.align	1
 1959              		.p2align 2,,3
 1960              		.weak	HAL_TIMEx_CommutCallback
 1961              		.syntax unified
 1962              		.thumb
 1963              		.thumb_func
 1965              	HAL_TIMEx_CommutCallback:
 1966              		@ args = 0, pretend = 0, frame = 0
 1967              		@ frame_needed = 0, uses_anonymous_args = 0
 1968              		@ link register save eliminated.
 1969 0000 7047     		bx	lr
 1971 0002 00BF     		.section	.text.TIMEx_DMACommutationCplt,"ax",%progbits
 1972              		.align	1
 1973              		.p2align 2,,3
 1974              		.global	TIMEx_DMACommutationCplt
 1975              		.syntax unified
 1976              		.thumb
 1977              		.thumb_func
 1979              	TIMEx_DMACommutationCplt:
 1980              		@ args = 0, pretend = 0, frame = 0
 1981              		@ frame_needed = 0, uses_anonymous_args = 0
 1982 0000 08B5     		push	{r3, lr}
 1983 0002 0123     		movs	r3, #1
 1984 0004 406A     		ldr	r0, [r0, #36]
 1985 0006 80F83D30 		strb	r3, [r0, #61]
 1986 000a FFF7FEFF 		bl	HAL_TIMEx_CommutCallback
 1987 000e 08BD     		pop	{r3, pc}
 1989              		.section	.text.HAL_TIMEx_CommutHalfCpltCallback,"ax",%progbits
 1990              		.align	1
 1991              		.p2align 2,,3
 1992              		.weak	HAL_TIMEx_CommutHalfCpltCallback
 1993              		.syntax unified
 1994              		.thumb
 1995              		.thumb_func
 1997              	HAL_TIMEx_CommutHalfCpltCallback:
 1998              		@ args = 0, pretend = 0, frame = 0
 1999              		@ frame_needed = 0, uses_anonymous_args = 0
 2000              		@ link register save eliminated.
 2001 0000 7047     		bx	lr
 2003 0002 00BF     		.section	.text.TIMEx_DMACommutationHalfCplt,"ax",%progbits
 2004              		.align	1
 2005              		.p2align 2,,3
 2006              		.global	TIMEx_DMACommutationHalfCplt
 2007              		.syntax unified
 2008              		.thumb
 2009              		.thumb_func
 2011              	TIMEx_DMACommutationHalfCplt:
 2012              		@ args = 0, pretend = 0, frame = 0
 2013              		@ frame_needed = 0, uses_anonymous_args = 0
ARM GAS  /var/folders/td/83895s255bq6rlxfmrv9fnww0000gn/T//cc0P7Xe6.s 			page 35


 2014 0000 08B5     		push	{r3, lr}
 2015 0002 0123     		movs	r3, #1
 2016 0004 406A     		ldr	r0, [r0, #36]
 2017 0006 80F83D30 		strb	r3, [r0, #61]
 2018 000a FFF7FEFF 		bl	HAL_TIMEx_CommutHalfCpltCallback
 2019 000e 08BD     		pop	{r3, pc}
 2021              		.section	.text.HAL_TIMEx_BreakCallback,"ax",%progbits
 2022              		.align	1
 2023              		.p2align 2,,3
 2024              		.weak	HAL_TIMEx_BreakCallback
 2025              		.syntax unified
 2026              		.thumb
 2027              		.thumb_func
 2029              	HAL_TIMEx_BreakCallback:
 2030              		@ args = 0, pretend = 0, frame = 0
 2031              		@ frame_needed = 0, uses_anonymous_args = 0
 2032              		@ link register save eliminated.
 2033 0000 7047     		bx	lr
 2035 0002 00BF     		.section	.text.HAL_TIMEx_HallSensor_GetState,"ax",%progbits
 2036              		.align	1
 2037              		.p2align 2,,3
 2038              		.global	HAL_TIMEx_HallSensor_GetState
 2039              		.syntax unified
 2040              		.thumb
 2041              		.thumb_func
 2043              	HAL_TIMEx_HallSensor_GetState:
 2044              		@ args = 0, pretend = 0, frame = 0
 2045              		@ frame_needed = 0, uses_anonymous_args = 0
 2046              		@ link register save eliminated.
 2047 0000 90F83D00 		ldrb	r0, [r0, #61]	@ zero_extendqisi2
 2048 0004 7047     		bx	lr
 2050 0006 00BF     		.section	.text.HAL_TIMEx_GetChannelNState,"ax",%progbits
 2051              		.align	1
 2052              		.p2align 2,,3
 2053              		.global	HAL_TIMEx_GetChannelNState
 2054              		.syntax unified
 2055              		.thumb
 2056              		.thumb_func
 2058              	HAL_TIMEx_GetChannelNState:
 2059              		@ args = 0, pretend = 0, frame = 0
 2060              		@ frame_needed = 0, uses_anonymous_args = 0
 2061              		@ link register save eliminated.
 2062 0000 19B9     		cbnz	r1, .L405
 2063 0002 90F84200 		ldrb	r0, [r0, #66]	@ zero_extendqisi2
 2064 0006 C0B2     		uxtb	r0, r0
 2065 0008 7047     		bx	lr
 2066              	.L405:
 2067 000a 0429     		cmp	r1, #4
 2068 000c 07D0     		beq	.L409
 2069 000e 0829     		cmp	r1, #8
 2070 0010 0CBF     		ite	eq
 2071 0012 90F84400 		ldrbeq	r0, [r0, #68]	@ zero_extendqisi2
 2072 0016 90F84500 		ldrbne	r0, [r0, #69]	@ zero_extendqisi2
 2073 001a C0B2     		uxtb	r0, r0
 2074 001c 7047     		bx	lr
 2075              	.L409:
 2076 001e 90F84300 		ldrb	r0, [r0, #67]	@ zero_extendqisi2
ARM GAS  /var/folders/td/83895s255bq6rlxfmrv9fnww0000gn/T//cc0P7Xe6.s 			page 36


 2077 0022 C0B2     		uxtb	r0, r0
 2078 0024 7047     		bx	lr
 2080 0026 00BF     		.ident	"GCC: (Arm GNU Toolchain 13.2.rel1 (Build arm-13.7)) 13.2.1 20231009"
ARM GAS  /var/folders/td/83895s255bq6rlxfmrv9fnww0000gn/T//cc0P7Xe6.s 			page 37


DEFINED SYMBOLS
                            *ABS*:00000000 stm32f1xx_hal_tim_ex.c
/var/folders/td/83895s255bq6rlxfmrv9fnww0000gn/T//cc0P7Xe6.s:16     .text.TIM_DMAErrorCCxN:00000000 $t
/var/folders/td/83895s255bq6rlxfmrv9fnww0000gn/T//cc0P7Xe6.s:22     .text.TIM_DMAErrorCCxN:00000000 TIM_DMAErrorCCxN
/var/folders/td/83895s255bq6rlxfmrv9fnww0000gn/T//cc0P7Xe6.s:72     .text.TIM_DMADelayPulseNCplt:00000000 $t
/var/folders/td/83895s255bq6rlxfmrv9fnww0000gn/T//cc0P7Xe6.s:78     .text.TIM_DMADelayPulseNCplt:00000000 TIM_DMADelayPulseNCplt
/var/folders/td/83895s255bq6rlxfmrv9fnww0000gn/T//cc0P7Xe6.s:146    .text.HAL_TIMEx_HallSensor_MspInit:00000000 $t
/var/folders/td/83895s255bq6rlxfmrv9fnww0000gn/T//cc0P7Xe6.s:153    .text.HAL_TIMEx_HallSensor_MspInit:00000000 HAL_TIMEx_HallSensor_MspInit
/var/folders/td/83895s255bq6rlxfmrv9fnww0000gn/T//cc0P7Xe6.s:160    .text.HAL_TIMEx_HallSensor_Init:00000000 $t
/var/folders/td/83895s255bq6rlxfmrv9fnww0000gn/T//cc0P7Xe6.s:167    .text.HAL_TIMEx_HallSensor_Init:00000000 HAL_TIMEx_HallSensor_Init
/var/folders/td/83895s255bq6rlxfmrv9fnww0000gn/T//cc0P7Xe6.s:251    .text.HAL_TIMEx_HallSensor_MspDeInit:00000000 $t
/var/folders/td/83895s255bq6rlxfmrv9fnww0000gn/T//cc0P7Xe6.s:258    .text.HAL_TIMEx_HallSensor_MspDeInit:00000000 HAL_TIMEx_HallSensor_MspDeInit
/var/folders/td/83895s255bq6rlxfmrv9fnww0000gn/T//cc0P7Xe6.s:265    .text.HAL_TIMEx_HallSensor_DeInit:00000000 $t
/var/folders/td/83895s255bq6rlxfmrv9fnww0000gn/T//cc0P7Xe6.s:272    .text.HAL_TIMEx_HallSensor_DeInit:00000000 HAL_TIMEx_HallSensor_DeInit
/var/folders/td/83895s255bq6rlxfmrv9fnww0000gn/T//cc0P7Xe6.s:305    .text.HAL_TIMEx_HallSensor_Start:00000000 $t
/var/folders/td/83895s255bq6rlxfmrv9fnww0000gn/T//cc0P7Xe6.s:312    .text.HAL_TIMEx_HallSensor_Start:00000000 HAL_TIMEx_HallSensor_Start
/var/folders/td/83895s255bq6rlxfmrv9fnww0000gn/T//cc0P7Xe6.s:375    .text.HAL_TIMEx_HallSensor_Start:00000088 $d
/var/folders/td/83895s255bq6rlxfmrv9fnww0000gn/T//cc0P7Xe6.s:378    .text.HAL_TIMEx_HallSensor_Stop:00000000 $t
/var/folders/td/83895s255bq6rlxfmrv9fnww0000gn/T//cc0P7Xe6.s:385    .text.HAL_TIMEx_HallSensor_Stop:00000000 HAL_TIMEx_HallSensor_Stop
/var/folders/td/83895s255bq6rlxfmrv9fnww0000gn/T//cc0P7Xe6.s:416    .text.HAL_TIMEx_HallSensor_Start_IT:00000000 $t
/var/folders/td/83895s255bq6rlxfmrv9fnww0000gn/T//cc0P7Xe6.s:423    .text.HAL_TIMEx_HallSensor_Start_IT:00000000 HAL_TIMEx_HallSensor_Start_IT
/var/folders/td/83895s255bq6rlxfmrv9fnww0000gn/T//cc0P7Xe6.s:489    .text.HAL_TIMEx_HallSensor_Start_IT:00000090 $d
/var/folders/td/83895s255bq6rlxfmrv9fnww0000gn/T//cc0P7Xe6.s:492    .text.HAL_TIMEx_HallSensor_Stop_IT:00000000 $t
/var/folders/td/83895s255bq6rlxfmrv9fnww0000gn/T//cc0P7Xe6.s:499    .text.HAL_TIMEx_HallSensor_Stop_IT:00000000 HAL_TIMEx_HallSensor_Stop_IT
/var/folders/td/83895s255bq6rlxfmrv9fnww0000gn/T//cc0P7Xe6.s:533    .text.HAL_TIMEx_HallSensor_Start_DMA:00000000 $t
/var/folders/td/83895s255bq6rlxfmrv9fnww0000gn/T//cc0P7Xe6.s:540    .text.HAL_TIMEx_HallSensor_Start_DMA:00000000 HAL_TIMEx_HallSensor_Start_DMA
/var/folders/td/83895s255bq6rlxfmrv9fnww0000gn/T//cc0P7Xe6.s:616    .text.HAL_TIMEx_HallSensor_Start_DMA:000000a8 $d
/var/folders/td/83895s255bq6rlxfmrv9fnww0000gn/T//cc0P7Xe6.s:623    .text.HAL_TIMEx_HallSensor_Stop_DMA:00000000 $t
/var/folders/td/83895s255bq6rlxfmrv9fnww0000gn/T//cc0P7Xe6.s:630    .text.HAL_TIMEx_HallSensor_Stop_DMA:00000000 HAL_TIMEx_HallSensor_Stop_DMA
/var/folders/td/83895s255bq6rlxfmrv9fnww0000gn/T//cc0P7Xe6.s:665    .text.HAL_TIMEx_OCN_Start:00000000 $t
/var/folders/td/83895s255bq6rlxfmrv9fnww0000gn/T//cc0P7Xe6.s:672    .text.HAL_TIMEx_OCN_Start:00000000 HAL_TIMEx_OCN_Start
/var/folders/td/83895s255bq6rlxfmrv9fnww0000gn/T//cc0P7Xe6.s:755    .text.HAL_TIMEx_OCN_Start:000000a8 $d
/var/folders/td/83895s255bq6rlxfmrv9fnww0000gn/T//cc0P7Xe6.s:759    .text.HAL_TIMEx_OCN_Stop:00000000 $t
/var/folders/td/83895s255bq6rlxfmrv9fnww0000gn/T//cc0P7Xe6.s:766    .text.HAL_TIMEx_OCN_Stop:00000000 HAL_TIMEx_OCN_Stop
/var/folders/td/83895s255bq6rlxfmrv9fnww0000gn/T//cc0P7Xe6.s:831    .text.HAL_TIMEx_OCN_Start_IT:00000000 $t
/var/folders/td/83895s255bq6rlxfmrv9fnww0000gn/T//cc0P7Xe6.s:838    .text.HAL_TIMEx_OCN_Start_IT:00000000 HAL_TIMEx_OCN_Start_IT
/var/folders/td/83895s255bq6rlxfmrv9fnww0000gn/T//cc0P7Xe6.s:933    .text.HAL_TIMEx_OCN_Start_IT:000000c8 $d
/var/folders/td/83895s255bq6rlxfmrv9fnww0000gn/T//cc0P7Xe6.s:937    .text.HAL_TIMEx_OCN_Stop_IT:00000000 $t
/var/folders/td/83895s255bq6rlxfmrv9fnww0000gn/T//cc0P7Xe6.s:944    .text.HAL_TIMEx_OCN_Stop_IT:00000000 HAL_TIMEx_OCN_Stop_IT
/var/folders/td/83895s255bq6rlxfmrv9fnww0000gn/T//cc0P7Xe6.s:1034   .text.HAL_TIMEx_OCN_Start_DMA:00000000 $t
/var/folders/td/83895s255bq6rlxfmrv9fnww0000gn/T//cc0P7Xe6.s:1041   .text.HAL_TIMEx_OCN_Start_DMA:00000000 HAL_TIMEx_OCN_Start_DMA
/var/folders/td/83895s255bq6rlxfmrv9fnww0000gn/T//cc0P7Xe6.s:1200   .text.HAL_TIMEx_OCN_Start_DMA:00000164 $d
/var/folders/td/83895s255bq6rlxfmrv9fnww0000gn/T//cc0P7Xe6.s:1207   .text.HAL_TIMEx_OCN_Stop_DMA:00000000 $t
/var/folders/td/83895s255bq6rlxfmrv9fnww0000gn/T//cc0P7Xe6.s:1214   .text.HAL_TIMEx_OCN_Stop_DMA:00000000 HAL_TIMEx_OCN_Stop_DMA
/var/folders/td/83895s255bq6rlxfmrv9fnww0000gn/T//cc0P7Xe6.s:1302   .text.HAL_TIMEx_PWMN_Start:00000000 $t
/var/folders/td/83895s255bq6rlxfmrv9fnww0000gn/T//cc0P7Xe6.s:1309   .text.HAL_TIMEx_PWMN_Start:00000000 HAL_TIMEx_PWMN_Start
/var/folders/td/83895s255bq6rlxfmrv9fnww0000gn/T//cc0P7Xe6.s:1316   .text.HAL_TIMEx_PWMN_Stop:00000000 $t
/var/folders/td/83895s255bq6rlxfmrv9fnww0000gn/T//cc0P7Xe6.s:1323   .text.HAL_TIMEx_PWMN_Stop:00000000 HAL_TIMEx_PWMN_Stop
/var/folders/td/83895s255bq6rlxfmrv9fnww0000gn/T//cc0P7Xe6.s:1330   .text.HAL_TIMEx_PWMN_Start_IT:00000000 $t
/var/folders/td/83895s255bq6rlxfmrv9fnww0000gn/T//cc0P7Xe6.s:1337   .text.HAL_TIMEx_PWMN_Start_IT:00000000 HAL_TIMEx_PWMN_Start_IT
/var/folders/td/83895s255bq6rlxfmrv9fnww0000gn/T//cc0P7Xe6.s:1344   .text.HAL_TIMEx_PWMN_Stop_IT:00000000 $t
/var/folders/td/83895s255bq6rlxfmrv9fnww0000gn/T//cc0P7Xe6.s:1351   .text.HAL_TIMEx_PWMN_Stop_IT:00000000 HAL_TIMEx_PWMN_Stop_IT
/var/folders/td/83895s255bq6rlxfmrv9fnww0000gn/T//cc0P7Xe6.s:1358   .text.HAL_TIMEx_PWMN_Start_DMA:00000000 $t
/var/folders/td/83895s255bq6rlxfmrv9fnww0000gn/T//cc0P7Xe6.s:1365   .text.HAL_TIMEx_PWMN_Start_DMA:00000000 HAL_TIMEx_PWMN_Start_DMA
/var/folders/td/83895s255bq6rlxfmrv9fnww0000gn/T//cc0P7Xe6.s:1372   .text.HAL_TIMEx_PWMN_Stop_DMA:00000000 $t
/var/folders/td/83895s255bq6rlxfmrv9fnww0000gn/T//cc0P7Xe6.s:1379   .text.HAL_TIMEx_PWMN_Stop_DMA:00000000 HAL_TIMEx_PWMN_Stop_DMA
/var/folders/td/83895s255bq6rlxfmrv9fnww0000gn/T//cc0P7Xe6.s:1386   .text.HAL_TIMEx_OnePulseN_Start:00000000 $t
ARM GAS  /var/folders/td/83895s255bq6rlxfmrv9fnww0000gn/T//cc0P7Xe6.s 			page 38


/var/folders/td/83895s255bq6rlxfmrv9fnww0000gn/T//cc0P7Xe6.s:1393   .text.HAL_TIMEx_OnePulseN_Start:00000000 HAL_TIMEx_OnePulseN_Start
/var/folders/td/83895s255bq6rlxfmrv9fnww0000gn/T//cc0P7Xe6.s:1449   .text.HAL_TIMEx_OnePulseN_Stop:00000000 $t
/var/folders/td/83895s255bq6rlxfmrv9fnww0000gn/T//cc0P7Xe6.s:1456   .text.HAL_TIMEx_OnePulseN_Stop:00000000 HAL_TIMEx_OnePulseN_Stop
/var/folders/td/83895s255bq6rlxfmrv9fnww0000gn/T//cc0P7Xe6.s:1511   .text.HAL_TIMEx_OnePulseN_Start_IT:00000000 $t
/var/folders/td/83895s255bq6rlxfmrv9fnww0000gn/T//cc0P7Xe6.s:1518   .text.HAL_TIMEx_OnePulseN_Start_IT:00000000 HAL_TIMEx_OnePulseN_Start_IT
/var/folders/td/83895s255bq6rlxfmrv9fnww0000gn/T//cc0P7Xe6.s:1580   .text.HAL_TIMEx_OnePulseN_Stop_IT:00000000 $t
/var/folders/td/83895s255bq6rlxfmrv9fnww0000gn/T//cc0P7Xe6.s:1587   .text.HAL_TIMEx_OnePulseN_Stop_IT:00000000 HAL_TIMEx_OnePulseN_Stop_IT
/var/folders/td/83895s255bq6rlxfmrv9fnww0000gn/T//cc0P7Xe6.s:1648   .text.HAL_TIMEx_ConfigCommutEvent:00000000 $t
/var/folders/td/83895s255bq6rlxfmrv9fnww0000gn/T//cc0P7Xe6.s:1655   .text.HAL_TIMEx_ConfigCommutEvent:00000000 HAL_TIMEx_ConfigCommutEvent
/var/folders/td/83895s255bq6rlxfmrv9fnww0000gn/T//cc0P7Xe6.s:1707   .text.HAL_TIMEx_ConfigCommutEvent_IT:00000000 $t
/var/folders/td/83895s255bq6rlxfmrv9fnww0000gn/T//cc0P7Xe6.s:1714   .text.HAL_TIMEx_ConfigCommutEvent_IT:00000000 HAL_TIMEx_ConfigCommutEvent_IT
/var/folders/td/83895s255bq6rlxfmrv9fnww0000gn/T//cc0P7Xe6.s:1766   .text.HAL_TIMEx_ConfigCommutEvent_DMA:00000000 $t
/var/folders/td/83895s255bq6rlxfmrv9fnww0000gn/T//cc0P7Xe6.s:1773   .text.HAL_TIMEx_ConfigCommutEvent_DMA:00000000 HAL_TIMEx_ConfigCommutEvent_DMA
/var/folders/td/83895s255bq6rlxfmrv9fnww0000gn/T//cc0P7Xe6.s:1833   .text.HAL_TIMEx_ConfigCommutEvent_DMA:00000080 $d
/var/folders/td/83895s255bq6rlxfmrv9fnww0000gn/T//cc0P7Xe6.s:1979   .text.TIMEx_DMACommutationCplt:00000000 TIMEx_DMACommutationCplt
/var/folders/td/83895s255bq6rlxfmrv9fnww0000gn/T//cc0P7Xe6.s:2011   .text.TIMEx_DMACommutationHalfCplt:00000000 TIMEx_DMACommutationHalfCplt
/var/folders/td/83895s255bq6rlxfmrv9fnww0000gn/T//cc0P7Xe6.s:1838   .text.HAL_TIMEx_MasterConfigSynchronization:00000000 $t
/var/folders/td/83895s255bq6rlxfmrv9fnww0000gn/T//cc0P7Xe6.s:1845   .text.HAL_TIMEx_MasterConfigSynchronization:00000000 HAL_TIMEx_MasterConfigSynchronization
/var/folders/td/83895s255bq6rlxfmrv9fnww0000gn/T//cc0P7Xe6.s:1893   .text.HAL_TIMEx_MasterConfigSynchronization:0000005c $d
/var/folders/td/83895s255bq6rlxfmrv9fnww0000gn/T//cc0P7Xe6.s:1897   .text.HAL_TIMEx_ConfigBreakDeadTime:00000000 $t
/var/folders/td/83895s255bq6rlxfmrv9fnww0000gn/T//cc0P7Xe6.s:1904   .text.HAL_TIMEx_ConfigBreakDeadTime:00000000 HAL_TIMEx_ConfigBreakDeadTime
/var/folders/td/83895s255bq6rlxfmrv9fnww0000gn/T//cc0P7Xe6.s:1943   .text.HAL_TIMEx_RemapConfig:00000000 $t
/var/folders/td/83895s255bq6rlxfmrv9fnww0000gn/T//cc0P7Xe6.s:1950   .text.HAL_TIMEx_RemapConfig:00000000 HAL_TIMEx_RemapConfig
/var/folders/td/83895s255bq6rlxfmrv9fnww0000gn/T//cc0P7Xe6.s:1958   .text.HAL_TIMEx_CommutCallback:00000000 $t
/var/folders/td/83895s255bq6rlxfmrv9fnww0000gn/T//cc0P7Xe6.s:1965   .text.HAL_TIMEx_CommutCallback:00000000 HAL_TIMEx_CommutCallback
/var/folders/td/83895s255bq6rlxfmrv9fnww0000gn/T//cc0P7Xe6.s:1972   .text.TIMEx_DMACommutationCplt:00000000 $t
/var/folders/td/83895s255bq6rlxfmrv9fnww0000gn/T//cc0P7Xe6.s:1990   .text.HAL_TIMEx_CommutHalfCpltCallback:00000000 $t
/var/folders/td/83895s255bq6rlxfmrv9fnww0000gn/T//cc0P7Xe6.s:1997   .text.HAL_TIMEx_CommutHalfCpltCallback:00000000 HAL_TIMEx_CommutHalfCpltCallback
/var/folders/td/83895s255bq6rlxfmrv9fnww0000gn/T//cc0P7Xe6.s:2004   .text.TIMEx_DMACommutationHalfCplt:00000000 $t
/var/folders/td/83895s255bq6rlxfmrv9fnww0000gn/T//cc0P7Xe6.s:2022   .text.HAL_TIMEx_BreakCallback:00000000 $t
/var/folders/td/83895s255bq6rlxfmrv9fnww0000gn/T//cc0P7Xe6.s:2029   .text.HAL_TIMEx_BreakCallback:00000000 HAL_TIMEx_BreakCallback
/var/folders/td/83895s255bq6rlxfmrv9fnww0000gn/T//cc0P7Xe6.s:2036   .text.HAL_TIMEx_HallSensor_GetState:00000000 $t
/var/folders/td/83895s255bq6rlxfmrv9fnww0000gn/T//cc0P7Xe6.s:2043   .text.HAL_TIMEx_HallSensor_GetState:00000000 HAL_TIMEx_HallSensor_GetState
/var/folders/td/83895s255bq6rlxfmrv9fnww0000gn/T//cc0P7Xe6.s:2051   .text.HAL_TIMEx_GetChannelNState:00000000 $t
/var/folders/td/83895s255bq6rlxfmrv9fnww0000gn/T//cc0P7Xe6.s:2058   .text.HAL_TIMEx_GetChannelNState:00000000 HAL_TIMEx_GetChannelNState

UNDEFINED SYMBOLS
HAL_TIM_ErrorCallback
HAL_TIM_PWM_PulseFinishedCallback
TIM_Base_SetConfig
TIM_TI1_SetConfig
TIM_OC2_SetConfig
TIM_CCxChannelCmd
HAL_DMA_Start_IT
TIM_DMAError
TIM_DMACaptureCplt
TIM_DMACaptureHalfCplt
HAL_DMA_Abort_IT
TIM_DMADelayPulseHalfCplt
