ARM GAS  /var/folders/td/83895s255bq6rlxfmrv9fnww0000gn/T//ccV2Ps0c.s 			page 1


   1              		.cpu cortex-m3
   2              		.arch armv7-m
   3              		.fpu softvfp
   4              		.eabi_attribute 20, 1
   5              		.eabi_attribute 21, 1
   6              		.eabi_attribute 23, 3
   7              		.eabi_attribute 24, 1
   8              		.eabi_attribute 25, 1
   9              		.eabi_attribute 26, 1
  10              		.eabi_attribute 30, 2
  11              		.eabi_attribute 34, 1
  12              		.eabi_attribute 18, 4
  13              		.file	"stm32f1xx_hal_exti.c"
  14              		.text
  15              		.section	.text.HAL_EXTI_SetConfigLine,"ax",%progbits
  16              		.align	1
  17              		.p2align 2,,3
  18              		.global	HAL_EXTI_SetConfigLine
  19              		.syntax unified
  20              		.thumb
  21              		.thumb_func
  23              	HAL_EXTI_SetConfigLine:
  24              		@ args = 0, pretend = 0, frame = 0
  25              		@ frame_needed = 0, uses_anonymous_args = 0
  26              		@ link register save eliminated.
  27 0000 0028     		cmp	r0, #0
  28 0002 35D0     		beq	.L15
  29 0004 0029     		cmp	r1, #0
  30 0006 33D0     		beq	.L15
  31 0008 4FF0010C 		mov	ip, #1
  32 000c 0B68     		ldr	r3, [r1]
  33 000e 70B4     		push	{r4, r5, r6}
  34 0010 03F01F02 		and	r2, r3, #31
  35 0014 9C01     		lsls	r4, r3, #6
  36 0016 0360     		str	r3, [r0]
  37 0018 0CFA02F0 		lsl	r0, ip, r2
  38 001c 15D5     		bpl	.L4
  39 001e 1F4E     		ldr	r6, .L22
  40 0020 8C68     		ldr	r4, [r1, #8]
  41 0022 B568     		ldr	r5, [r6, #8]
  42 0024 14F0010F 		tst	r4, #1
  43 0028 14BF     		ite	ne
  44 002a 0543     		orrne	r5, r5, r0
  45 002c 8543     		biceq	r5, r5, r0
  46 002e B560     		str	r5, [r6, #8]
  47 0030 1A4D     		ldr	r5, .L22
  48 0032 14F0020F 		tst	r4, #2
  49 0036 EC68     		ldr	r4, [r5, #12]
  50 0038 14BF     		ite	ne
  51 003a 0443     		orrne	r4, r4, r0
  52 003c 8443     		biceq	r4, r4, r0
  53 003e EC60     		str	r4, [r5, #12]
  54 0040 03F0C064 		and	r4, r3, #100663296
  55 0044 B4F1C06F 		cmp	r4, #100663296
  56 0048 14D0     		beq	.L21
  57              	.L4:
  58 004a 4B68     		ldr	r3, [r1, #4]
ARM GAS  /var/folders/td/83895s255bq6rlxfmrv9fnww0000gn/T//ccV2Ps0c.s 			page 2


  59 004c 1349     		ldr	r1, .L22
  60 004e DC07     		lsls	r4, r3, #31
  61 0050 0A68     		ldr	r2, [r1]
  62 0052 70BC     		pop	{r4, r5, r6}
  63 0054 4CBF     		ite	mi
  64 0056 0243     		orrmi	r2, r2, r0
  65 0058 8243     		bicpl	r2, r2, r0
  66 005a 0A60     		str	r2, [r1]
  67 005c 0F4A     		ldr	r2, .L22
  68 005e 13F0020F 		tst	r3, #2
  69 0062 5368     		ldr	r3, [r2, #4]
  70 0064 14BF     		ite	ne
  71 0066 0343     		orrne	r3, r3, r0
  72 0068 8343     		biceq	r3, r3, r0
  73 006a 5360     		str	r3, [r2, #4]
  74 006c 0020     		movs	r0, #0
  75 006e 7047     		bx	lr
  76              	.L15:
  77 0070 0120     		movs	r0, #1
  78 0072 7047     		bx	lr
  79              	.L21:
  80 0074 0F26     		movs	r6, #15
  81 0076 02F01C02 		and	r2, r2, #28
  82 007a 02F18042 		add	r2, r2, #1073741824
  83 007e CC68     		ldr	r4, [r1, #12]
  84 0080 02F58032 		add	r2, r2, #65536
  85 0084 03F00303 		and	r3, r3, #3
  86 0088 9568     		ldr	r5, [r2, #8]
  87 008a 9B00     		lsls	r3, r3, #2
  88 008c 9C40     		lsls	r4, r4, r3
  89 008e 06FA03F3 		lsl	r3, r6, r3
  90 0092 25EA0303 		bic	r3, r5, r3
  91 0096 1C43     		orrs	r4, r4, r3
  92 0098 9460     		str	r4, [r2, #8]
  93 009a D6E7     		b	.L4
  94              	.L23:
  95              		.align	2
  96              	.L22:
  97 009c 00040140 		.word	1073808384
  99              		.section	.text.HAL_EXTI_GetConfigLine,"ax",%progbits
 100              		.align	1
 101              		.p2align 2,,3
 102              		.global	HAL_EXTI_GetConfigLine
 103              		.syntax unified
 104              		.thumb
 105              		.thumb_func
 107              	HAL_EXTI_GetConfigLine:
 108              		@ args = 0, pretend = 0, frame = 0
 109              		@ frame_needed = 0, uses_anonymous_args = 0
 110              		@ link register save eliminated.
 111 0000 0028     		cmp	r0, #0
 112 0002 3FD0     		beq	.L32
 113 0004 0029     		cmp	r1, #0
 114 0006 3DD0     		beq	.L32
 115 0008 0123     		movs	r3, #1
 116 000a 0268     		ldr	r2, [r0]
 117 000c 10B4     		push	{r4}
ARM GAS  /var/folders/td/83895s255bq6rlxfmrv9fnww0000gn/T//ccV2Ps0c.s 			page 3


 118 000e 1E4C     		ldr	r4, .L43
 119 0010 0A60     		str	r2, [r1]
 120 0012 2068     		ldr	r0, [r4]
 121 0014 02F01F0C 		and	ip, r2, #31
 122 0018 03FA0CF3 		lsl	r3, r3, ip
 123 001c 1842     		tst	r0, r3
 124 001e 14BF     		ite	ne
 125 0020 0120     		movne	r0, #1
 126 0022 0020     		moveq	r0, #0
 127 0024 4860     		str	r0, [r1, #4]
 128 0026 6468     		ldr	r4, [r4, #4]
 129 0028 1C42     		tst	r4, r3
 130 002a 1CBF     		itt	ne
 131 002c 40F00200 		orrne	r0, r0, #2
 132 0030 4860     		strne	r0, [r1, #4]
 133 0032 0020     		movs	r0, #0
 134 0034 C1E90200 		strd	r0, r0, [r1, #8]
 135 0038 9001     		lsls	r0, r2, #6
 136 003a 20D5     		bpl	.L28
 137 003c 124C     		ldr	r4, .L43
 138 003e A068     		ldr	r0, [r4, #8]
 139 0040 1842     		tst	r0, r3
 140 0042 14BF     		ite	ne
 141 0044 0120     		movne	r0, #1
 142 0046 0020     		moveq	r0, #0
 143 0048 8860     		str	r0, [r1, #8]
 144 004a E468     		ldr	r4, [r4, #12]
 145 004c 1C42     		tst	r4, r3
 146 004e 18BF     		it	ne
 147 0050 40F00200 		orrne	r0, r0, #2
 148 0054 02F0C063 		and	r3, r2, #100663296
 149 0058 18BF     		it	ne
 150 005a 8860     		strne	r0, [r1, #8]
 151 005c B3F1C06F 		cmp	r3, #100663296
 152 0060 0DD1     		bne	.L28
 153 0062 0A4B     		ldr	r3, .L43+4
 154 0064 4FEA9C0C 		lsr	ip, ip, #2
 155 0068 0CF1020C 		add	ip, ip, #2
 156 006c 53F82C30 		ldr	r3, [r3, ip, lsl #2]
 157 0070 02F00302 		and	r2, r2, #3
 158 0074 9200     		lsls	r2, r2, #2
 159 0076 D340     		lsrs	r3, r3, r2
 160 0078 03F00F03 		and	r3, r3, #15
 161 007c CB60     		str	r3, [r1, #12]
 162              	.L28:
 163 007e 0020     		movs	r0, #0
 164 0080 10BC     		pop	{r4}
 165 0082 7047     		bx	lr
 166              	.L32:
 167 0084 0120     		movs	r0, #1
 168 0086 7047     		bx	lr
 169              	.L44:
 170              		.align	2
 171              	.L43:
 172 0088 00040140 		.word	1073808384
 173 008c 00000140 		.word	1073807360
 175              		.section	.text.HAL_EXTI_ClearConfigLine,"ax",%progbits
ARM GAS  /var/folders/td/83895s255bq6rlxfmrv9fnww0000gn/T//ccV2Ps0c.s 			page 4


 176              		.align	1
 177              		.p2align 2,,3
 178              		.global	HAL_EXTI_ClearConfigLine
 179              		.syntax unified
 180              		.thumb
 181              		.thumb_func
 183              	HAL_EXTI_ClearConfigLine:
 184              		@ args = 0, pretend = 0, frame = 0
 185              		@ frame_needed = 0, uses_anonymous_args = 0
 186              		@ link register save eliminated.
 187 0000 90B3     		cbz	r0, .L50
 188 0002 0123     		movs	r3, #1
 189 0004 0168     		ldr	r1, [r0]
 190 0006 194A     		ldr	r2, .L52
 191 0008 01F01F0C 		and	ip, r1, #31
 192 000c 1068     		ldr	r0, [r2]
 193 000e 03FA0CF3 		lsl	r3, r3, ip
 194 0012 20EA0300 		bic	r0, r0, r3
 195 0016 1060     		str	r0, [r2]
 196 0018 5068     		ldr	r0, [r2, #4]
 197 001a 20EA0300 		bic	r0, r0, r3
 198 001e 5060     		str	r0, [r2, #4]
 199 0020 8801     		lsls	r0, r1, #6
 200 0022 6FEA0303 		mvn	r3, r3
 201 0026 0AD5     		bpl	.L49
 202 0028 9068     		ldr	r0, [r2, #8]
 203 002a 1840     		ands	r0, r0, r3
 204 002c 9060     		str	r0, [r2, #8]
 205 002e D068     		ldr	r0, [r2, #12]
 206 0030 0340     		ands	r3, r3, r0
 207 0032 01F0C060 		and	r0, r1, #100663296
 208 0036 B0F1C06F 		cmp	r0, #100663296
 209 003a D360     		str	r3, [r2, #12]
 210 003c 01D0     		beq	.L51
 211              	.L49:
 212 003e 0020     		movs	r0, #0
 213 0040 7047     		bx	lr
 214              	.L51:
 215 0042 0F22     		movs	r2, #15
 216 0044 0CF01C0C 		and	ip, ip, #28
 217 0048 0CF1804C 		add	ip, ip, #1073741824
 218 004c 0CF5803C 		add	ip, ip, #65536
 219 0050 01F00301 		and	r1, r1, #3
 220 0054 DCF80830 		ldr	r3, [ip, #8]
 221 0058 8900     		lsls	r1, r1, #2
 222 005a 8A40     		lsls	r2, r2, r1
 223 005c 23EA0203 		bic	r3, r3, r2
 224 0060 0020     		movs	r0, #0
 225 0062 CCF80830 		str	r3, [ip, #8]
 226 0066 7047     		bx	lr
 227              	.L50:
 228 0068 0120     		movs	r0, #1
 229 006a 7047     		bx	lr
 230              	.L53:
 231              		.align	2
 232              	.L52:
 233 006c 00040140 		.word	1073808384
ARM GAS  /var/folders/td/83895s255bq6rlxfmrv9fnww0000gn/T//ccV2Ps0c.s 			page 5


 235              		.section	.text.HAL_EXTI_RegisterCallback,"ax",%progbits
 236              		.align	1
 237              		.p2align 2,,3
 238              		.global	HAL_EXTI_RegisterCallback
 239              		.syntax unified
 240              		.thumb
 241              		.thumb_func
 243              	HAL_EXTI_RegisterCallback:
 244              		@ args = 0, pretend = 0, frame = 0
 245              		@ frame_needed = 0, uses_anonymous_args = 0
 246              		@ link register save eliminated.
 247 0000 0346     		mov	r3, r0
 248 0002 11B9     		cbnz	r1, .L56
 249 0004 0846     		mov	r0, r1
 250 0006 5A60     		str	r2, [r3, #4]
 251 0008 7047     		bx	lr
 252              	.L56:
 253 000a 0120     		movs	r0, #1
 254 000c 7047     		bx	lr
 256 000e 00BF     		.section	.text.HAL_EXTI_GetHandle,"ax",%progbits
 257              		.align	1
 258              		.p2align 2,,3
 259              		.global	HAL_EXTI_GetHandle
 260              		.syntax unified
 261              		.thumb
 262              		.thumb_func
 264              	HAL_EXTI_GetHandle:
 265              		@ args = 0, pretend = 0, frame = 0
 266              		@ frame_needed = 0, uses_anonymous_args = 0
 267              		@ link register save eliminated.
 268 0000 0346     		mov	r3, r0
 269 0002 10B1     		cbz	r0, .L59
 270 0004 0020     		movs	r0, #0
 271 0006 1960     		str	r1, [r3]
 272 0008 7047     		bx	lr
 273              	.L59:
 274 000a 0120     		movs	r0, #1
 275 000c 7047     		bx	lr
 277 000e 00BF     		.section	.text.HAL_EXTI_IRQHandler,"ax",%progbits
 278              		.align	1
 279              		.p2align 2,,3
 280              		.global	HAL_EXTI_IRQHandler
 281              		.syntax unified
 282              		.thumb
 283              		.thumb_func
 285              	HAL_EXTI_IRQHandler:
 286              		@ args = 0, pretend = 0, frame = 0
 287              		@ frame_needed = 0, uses_anonymous_args = 0
 288              		@ link register save eliminated.
 289 0000 0123     		movs	r3, #1
 290 0002 0849     		ldr	r1, .L68
 291 0004 0268     		ldr	r2, [r0]
 292 0006 10B4     		push	{r4}
 293 0008 02F01F02 		and	r2, r2, #31
 294 000c 4C69     		ldr	r4, [r1, #20]
 295 000e 9340     		lsls	r3, r3, r2
 296 0010 1C42     		tst	r4, r3
ARM GAS  /var/folders/td/83895s255bq6rlxfmrv9fnww0000gn/T//ccV2Ps0c.s 			page 6


 297 0012 04D0     		beq	.L60
 298 0014 4268     		ldr	r2, [r0, #4]
 299 0016 4B61     		str	r3, [r1, #20]
 300 0018 0AB1     		cbz	r2, .L60
 301 001a 10BC     		pop	{r4}
 302 001c 1047     		bx	r2	@ indirect register sibling call
 303              	.L60:
 304 001e 10BC     		pop	{r4}
 305 0020 7047     		bx	lr
 306              	.L69:
 307 0022 00BF     		.align	2
 308              	.L68:
 309 0024 00040140 		.word	1073808384
 311              		.section	.text.HAL_EXTI_GetPending,"ax",%progbits
 312              		.align	1
 313              		.p2align 2,,3
 314              		.global	HAL_EXTI_GetPending
 315              		.syntax unified
 316              		.thumb
 317              		.thumb_func
 319              	HAL_EXTI_GetPending:
 320              		@ args = 0, pretend = 0, frame = 0
 321              		@ frame_needed = 0, uses_anonymous_args = 0
 322              		@ link register save eliminated.
 323 0000 0123     		movs	r3, #1
 324 0002 0068     		ldr	r0, [r0]
 325 0004 044A     		ldr	r2, .L71
 326 0006 00F01F00 		and	r0, r0, #31
 327 000a 5269     		ldr	r2, [r2, #20]
 328 000c 8340     		lsls	r3, r3, r0
 329 000e 1340     		ands	r3, r3, r2
 330 0010 23FA00F0 		lsr	r0, r3, r0
 331 0014 7047     		bx	lr
 332              	.L72:
 333 0016 00BF     		.align	2
 334              	.L71:
 335 0018 00040140 		.word	1073808384
 337              		.section	.text.HAL_EXTI_ClearPending,"ax",%progbits
 338              		.align	1
 339              		.p2align 2,,3
 340              		.global	HAL_EXTI_ClearPending
 341              		.syntax unified
 342              		.thumb
 343              		.thumb_func
 345              	HAL_EXTI_ClearPending:
 346              		@ args = 0, pretend = 0, frame = 0
 347              		@ frame_needed = 0, uses_anonymous_args = 0
 348              		@ link register save eliminated.
 349 0000 0123     		movs	r3, #1
 350 0002 0268     		ldr	r2, [r0]
 351 0004 0249     		ldr	r1, .L74
 352 0006 02F01F02 		and	r2, r2, #31
 353 000a 9340     		lsls	r3, r3, r2
 354 000c 4B61     		str	r3, [r1, #20]
 355 000e 7047     		bx	lr
 356              	.L75:
 357              		.align	2
ARM GAS  /var/folders/td/83895s255bq6rlxfmrv9fnww0000gn/T//ccV2Ps0c.s 			page 7


 358              	.L74:
 359 0010 00040140 		.word	1073808384
 361              		.section	.text.HAL_EXTI_GenerateSWI,"ax",%progbits
 362              		.align	1
 363              		.p2align 2,,3
 364              		.global	HAL_EXTI_GenerateSWI
 365              		.syntax unified
 366              		.thumb
 367              		.thumb_func
 369              	HAL_EXTI_GenerateSWI:
 370              		@ args = 0, pretend = 0, frame = 0
 371              		@ frame_needed = 0, uses_anonymous_args = 0
 372              		@ link register save eliminated.
 373 0000 0123     		movs	r3, #1
 374 0002 0268     		ldr	r2, [r0]
 375 0004 0249     		ldr	r1, .L77
 376 0006 02F01F02 		and	r2, r2, #31
 377 000a 9340     		lsls	r3, r3, r2
 378 000c 0B61     		str	r3, [r1, #16]
 379 000e 7047     		bx	lr
 380              	.L78:
 381              		.align	2
 382              	.L77:
 383 0010 00040140 		.word	1073808384
 385              		.ident	"GCC: (Arm GNU Toolchain 13.2.rel1 (Build arm-13.7)) 13.2.1 20231009"
ARM GAS  /var/folders/td/83895s255bq6rlxfmrv9fnww0000gn/T//ccV2Ps0c.s 			page 8

