ARM GAS  /var/folders/td/83895s255bq6rlxfmrv9fnww0000gn/T//ccfcYPhQ.s 			page 1


   1              		.cpu cortex-m3
   2              		.arch armv7-m
   3              		.fpu softvfp
   4              		.eabi_attribute 20, 1
   5              		.eabi_attribute 21, 1
   6              		.eabi_attribute 23, 3
   7              		.eabi_attribute 24, 1
   8              		.eabi_attribute 25, 1
   9              		.eabi_attribute 26, 1
  10              		.eabi_attribute 30, 2
  11              		.eabi_attribute 34, 1
  12              		.eabi_attribute 18, 4
  13              		.file	"stm32f1xx_hal_dma.c"
  14              		.text
  15              		.section	.text.HAL_DMA_Init,"ax",%progbits
  16              		.align	1
  17              		.p2align 2,,3
  18              		.global	HAL_DMA_Init
  19              		.syntax unified
  20              		.thumb
  21              		.thumb_func
  23              	HAL_DMA_Init:
  24              		@ args = 0, pretend = 0, frame = 0
  25              		@ frame_needed = 0, uses_anonymous_args = 0
  26 0000 70B3     		cbz	r0, .L3
  27 0002 0346     		mov	r3, r0
  28 0004 0222     		movs	r2, #2
  29 0006 30B5     		push	{r4, r5, lr}
  30 0008 4FF0010C 		mov	ip, #1
  31 000c 0024     		movs	r4, #0
  32 000e 0068     		ldr	r0, [r0]
  33 0010 83F82120 		strb	r2, [r3, #33]
  34 0014 0268     		ldr	r2, [r0]
  35 0016 DD68     		ldr	r5, [r3, #12]
  36 0018 22F47F5E 		bic	lr, r2, #16320
  37 001c D3E90121 		ldrd	r2, r1, [r3, #4]
  38 0020 0A43     		orrs	r2, r2, r1
  39 0022 1049     		ldr	r1, .L9
  40 0024 2A43     		orrs	r2, r2, r5
  41 0026 104D     		ldr	r5, .L9+4
  42 0028 0144     		add	r1, r1, r0
  43 002a A5FB0151 		umull	r5, r1, r5, r1
  44 002e 0909     		lsrs	r1, r1, #4
  45 0030 8900     		lsls	r1, r1, #2
  46 0032 1964     		str	r1, [r3, #64]
  47 0034 1969     		ldr	r1, [r3, #16]
  48 0036 2EF0300E 		bic	lr, lr, #48
  49 003a 0A43     		orrs	r2, r2, r1
  50 003c 5969     		ldr	r1, [r3, #20]
  51 003e 0A43     		orrs	r2, r2, r1
  52 0040 9969     		ldr	r1, [r3, #24]
  53 0042 0A43     		orrs	r2, r2, r1
  54 0044 D969     		ldr	r1, [r3, #28]
  55 0046 0A43     		orrs	r2, r2, r1
  56 0048 0849     		ldr	r1, .L9+8
  57 004a 42EA0E02 		orr	r2, r2, lr
  58 004e D963     		str	r1, [r3, #60]
ARM GAS  /var/folders/td/83895s255bq6rlxfmrv9fnww0000gn/T//ccfcYPhQ.s 			page 2


  59 0050 0260     		str	r2, [r0]
  60 0052 9C63     		str	r4, [r3, #56]
  61 0054 83F82040 		strb	r4, [r3, #32]
  62 0058 83F821C0 		strb	ip, [r3, #33]
  63 005c 2046     		mov	r0, r4
  64 005e 30BD     		pop	{r4, r5, pc}
  65              	.L3:
  66 0060 0120     		movs	r0, #1
  67 0062 7047     		bx	lr
  68              	.L10:
  69              		.align	2
  70              	.L9:
  71 0064 F8FFFDBF 		.word	-1073872904
  72 0068 CDCCCCCC 		.word	-858993459
  73 006c 00000240 		.word	1073872896
  75              		.section	.text.HAL_DMA_DeInit,"ax",%progbits
  76              		.align	1
  77              		.p2align 2,,3
  78              		.global	HAL_DMA_DeInit
  79              		.syntax unified
  80              		.thumb
  81              		.thumb_func
  83              	HAL_DMA_DeInit:
  84              		@ args = 0, pretend = 0, frame = 0
  85              		@ frame_needed = 0, uses_anonymous_args = 0
  86              		@ link register save eliminated.
  87 0000 20B3     		cbz	r0, .L13
  88 0002 0346     		mov	r3, r0
  89 0004 30B4     		push	{r4, r5}
  90 0006 0120     		movs	r0, #1
  91 0008 0025     		movs	r5, #0
  92 000a 1968     		ldr	r1, [r3]
  93 000c 104C     		ldr	r4, .L18
  94 000e 0A68     		ldr	r2, [r1]
  95 0010 22F00102 		bic	r2, r2, #1
  96 0014 0A60     		str	r2, [r1]
  97 0016 0F4A     		ldr	r2, .L18+4
  98 0018 0D60     		str	r5, [r1]
  99 001a 0A44     		add	r2, r2, r1
 100 001c A4FB0242 		umull	r4, r2, r4, r2
 101 0020 1209     		lsrs	r2, r2, #4
 102 0022 9200     		lsls	r2, r2, #2
 103 0024 4D60     		str	r5, [r1, #4]
 104 0026 9040     		lsls	r0, r0, r2
 105 0028 8D60     		str	r5, [r1, #8]
 106 002a CD60     		str	r5, [r1, #12]
 107 002c 1A64     		str	r2, [r3, #64]
 108 002e 0A4A     		ldr	r2, .L18+8
 109 0030 DA63     		str	r2, [r3, #60]
 110 0032 5060     		str	r0, [r2, #4]
 111 0034 9D63     		str	r5, [r3, #56]
 112 0036 83F82050 		strb	r5, [r3, #32]
 113 003a 83F82150 		strb	r5, [r3, #33]
 114 003e 2846     		mov	r0, r5
 115 0040 C3E90A55 		strd	r5, r5, [r3, #40]
 116 0044 C3E90C55 		strd	r5, r5, [r3, #48]
 117 0048 30BC     		pop	{r4, r5}
ARM GAS  /var/folders/td/83895s255bq6rlxfmrv9fnww0000gn/T//ccfcYPhQ.s 			page 3


 118 004a 7047     		bx	lr
 119              	.L13:
 120 004c 0120     		movs	r0, #1
 121 004e 7047     		bx	lr
 122              	.L19:
 123              		.align	2
 124              	.L18:
 125 0050 CDCCCCCC 		.word	-858993459
 126 0054 F8FFFDBF 		.word	-1073872904
 127 0058 00000240 		.word	1073872896
 129              		.section	.text.HAL_DMA_Start,"ax",%progbits
 130              		.align	1
 131              		.p2align 2,,3
 132              		.global	HAL_DMA_Start
 133              		.syntax unified
 134              		.thumb
 135              		.thumb_func
 137              	HAL_DMA_Start:
 138              		@ args = 0, pretend = 0, frame = 0
 139              		@ frame_needed = 0, uses_anonymous_args = 0
 140              		@ link register save eliminated.
 141 0000 70B4     		push	{r4, r5, r6}
 142 0002 90F82040 		ldrb	r4, [r0, #32]	@ zero_extendqisi2
 143 0006 012C     		cmp	r4, #1
 144 0008 0BD0     		beq	.L21
 145 000a 0125     		movs	r5, #1
 146 000c 90F82140 		ldrb	r4, [r0, #33]	@ zero_extendqisi2
 147 0010 80F82050 		strb	r5, [r0, #32]
 148 0014 AC42     		cmp	r4, r5
 149 0016 5FFA84FC 		uxtb	ip, r4
 150 001a 05D0     		beq	.L30
 151 001c 0023     		movs	r3, #0
 152 001e 80F82030 		strb	r3, [r0, #32]
 153              	.L21:
 154 0022 0220     		movs	r0, #2
 155 0024 70BC     		pop	{r4, r5, r6}
 156 0026 7047     		bx	lr
 157              	.L30:
 158 0028 0224     		movs	r4, #2
 159 002a 80F82140 		strb	r4, [r0, #33]
 160 002e 0024     		movs	r4, #0
 161 0030 8463     		str	r4, [r0, #56]
 162 0032 0468     		ldr	r4, [r0]
 163 0034 056C     		ldr	r5, [r0, #64]
 164 0036 2668     		ldr	r6, [r4]
 165 0038 0CFA05F5 		lsl	r5, ip, r5
 166 003c 26F00106 		bic	r6, r6, #1
 167 0040 2660     		str	r6, [r4]
 168 0042 C66B     		ldr	r6, [r0, #60]
 169 0044 4068     		ldr	r0, [r0, #4]
 170 0046 7560     		str	r5, [r6, #4]
 171 0048 1028     		cmp	r0, #16
 172 004a 6360     		str	r3, [r4, #4]
 173 004c 0BBF     		itete	eq
 174 004e A260     		streq	r2, [r4, #8]
 175 0050 A160     		strne	r1, [r4, #8]
 176 0052 E160     		streq	r1, [r4, #12]
ARM GAS  /var/folders/td/83895s255bq6rlxfmrv9fnww0000gn/T//ccfcYPhQ.s 			page 4


 177 0054 E260     		strne	r2, [r4, #12]
 178 0056 2368     		ldr	r3, [r4]
 179 0058 0020     		movs	r0, #0
 180 005a 43F00103 		orr	r3, r3, #1
 181 005e 2360     		str	r3, [r4]
 182 0060 70BC     		pop	{r4, r5, r6}
 183 0062 7047     		bx	lr
 185              		.section	.text.HAL_DMA_Start_IT,"ax",%progbits
 186              		.align	1
 187              		.p2align 2,,3
 188              		.global	HAL_DMA_Start_IT
 189              		.syntax unified
 190              		.thumb
 191              		.thumb_func
 193              	HAL_DMA_Start_IT:
 194              		@ args = 0, pretend = 0, frame = 0
 195              		@ frame_needed = 0, uses_anonymous_args = 0
 196              		@ link register save eliminated.
 197 0000 70B4     		push	{r4, r5, r6}
 198 0002 90F82040 		ldrb	r4, [r0, #32]	@ zero_extendqisi2
 199 0006 012C     		cmp	r4, #1
 200 0008 0BD0     		beq	.L32
 201 000a 0125     		movs	r5, #1
 202 000c 90F82140 		ldrb	r4, [r0, #33]	@ zero_extendqisi2
 203 0010 80F82050 		strb	r5, [r0, #32]
 204 0014 AC42     		cmp	r4, r5
 205 0016 5FFA84FC 		uxtb	ip, r4
 206 001a 05D0     		beq	.L43
 207 001c 0023     		movs	r3, #0
 208 001e 80F82030 		strb	r3, [r0, #32]
 209              	.L32:
 210 0022 0220     		movs	r0, #2
 211 0024 70BC     		pop	{r4, r5, r6}
 212 0026 7047     		bx	lr
 213              	.L43:
 214 0028 0224     		movs	r4, #2
 215 002a 80F82140 		strb	r4, [r0, #33]
 216 002e 0024     		movs	r4, #0
 217 0030 8463     		str	r4, [r0, #56]
 218 0032 0468     		ldr	r4, [r0]
 219 0034 056C     		ldr	r5, [r0, #64]
 220 0036 2668     		ldr	r6, [r4]
 221 0038 0CFA05F5 		lsl	r5, ip, r5
 222 003c 26F00106 		bic	r6, r6, #1
 223 0040 2660     		str	r6, [r4]
 224 0042 C66B     		ldr	r6, [r0, #60]
 225 0044 7560     		str	r5, [r6, #4]
 226 0046 6360     		str	r3, [r4, #4]
 227 0048 4368     		ldr	r3, [r0, #4]
 228 004a 102B     		cmp	r3, #16
 229 004c C36A     		ldr	r3, [r0, #44]
 230 004e 0BBF     		itete	eq
 231 0050 A260     		streq	r2, [r4, #8]
 232 0052 A160     		strne	r1, [r4, #8]
 233 0054 E160     		streq	r1, [r4, #12]
 234 0056 E260     		strne	r2, [r4, #12]
 235 0058 53B1     		cbz	r3, .L36
ARM GAS  /var/folders/td/83895s255bq6rlxfmrv9fnww0000gn/T//ccfcYPhQ.s 			page 5


 236 005a 2368     		ldr	r3, [r4]
 237 005c 43F00E03 		orr	r3, r3, #14
 238 0060 2360     		str	r3, [r4]
 239              	.L37:
 240 0062 2368     		ldr	r3, [r4]
 241 0064 0020     		movs	r0, #0
 242 0066 43F00103 		orr	r3, r3, #1
 243 006a 2360     		str	r3, [r4]
 244 006c 70BC     		pop	{r4, r5, r6}
 245 006e 7047     		bx	lr
 246              	.L36:
 247 0070 2368     		ldr	r3, [r4]
 248 0072 23F00403 		bic	r3, r3, #4
 249 0076 2360     		str	r3, [r4]
 250 0078 2368     		ldr	r3, [r4]
 251 007a 43F00A03 		orr	r3, r3, #10
 252 007e 2360     		str	r3, [r4]
 253 0080 EFE7     		b	.L37
 255 0082 00BF     		.section	.text.HAL_DMA_Abort,"ax",%progbits
 256              		.align	1
 257              		.p2align 2,,3
 258              		.global	HAL_DMA_Abort
 259              		.syntax unified
 260              		.thumb
 261              		.thumb_func
 263              	HAL_DMA_Abort:
 264              		@ args = 0, pretend = 0, frame = 0
 265              		@ frame_needed = 0, uses_anonymous_args = 0
 266              		@ link register save eliminated.
 267 0000 90F82120 		ldrb	r2, [r0, #33]	@ zero_extendqisi2
 268 0004 0346     		mov	r3, r0
 269 0006 022A     		cmp	r2, #2
 270 0008 06D0     		beq	.L45
 271 000a 0422     		movs	r2, #4
 272 000c 9A63     		str	r2, [r3, #56]
 273 000e 0022     		movs	r2, #0
 274 0010 0120     		movs	r0, #1
 275 0012 83F82020 		strb	r2, [r3, #32]
 276 0016 7047     		bx	lr
 277              	.L45:
 278 0018 4FF0010C 		mov	ip, #1
 279 001c 1A68     		ldr	r2, [r3]
 280 001e 0020     		movs	r0, #0
 281 0020 1168     		ldr	r1, [r2]
 282 0022 21F00E01 		bic	r1, r1, #14
 283 0026 1160     		str	r1, [r2]
 284 0028 1168     		ldr	r1, [r2]
 285 002a 21F00101 		bic	r1, r1, #1
 286 002e 1160     		str	r1, [r2]
 287 0030 D3E90F12 		ldrd	r1, r2, [r3, #60]
 288 0034 0CFA02F2 		lsl	r2, ip, r2
 289 0038 4A60     		str	r2, [r1, #4]
 290 003a 0022     		movs	r2, #0
 291 003c 83F821C0 		strb	ip, [r3, #33]
 292 0040 83F82020 		strb	r2, [r3, #32]
 293 0044 7047     		bx	lr
 295 0046 00BF     		.section	.text.HAL_DMA_Abort_IT,"ax",%progbits
ARM GAS  /var/folders/td/83895s255bq6rlxfmrv9fnww0000gn/T//ccfcYPhQ.s 			page 6


 296              		.align	1
 297              		.p2align 2,,3
 298              		.global	HAL_DMA_Abort_IT
 299              		.syntax unified
 300              		.thumb
 301              		.thumb_func
 303              	HAL_DMA_Abort_IT:
 304              		@ args = 0, pretend = 0, frame = 0
 305              		@ frame_needed = 0, uses_anonymous_args = 0
 306 0000 90F82120 		ldrb	r2, [r0, #33]	@ zero_extendqisi2
 307 0004 0346     		mov	r3, r0
 308 0006 022A     		cmp	r2, #2
 309 0008 03D0     		beq	.L48
 310 000a 0422     		movs	r2, #4
 311 000c 0120     		movs	r0, #1
 312 000e 9A63     		str	r2, [r3, #56]
 313 0010 7047     		bx	lr
 314              	.L48:
 315 0012 0268     		ldr	r2, [r0]
 316 0014 10B5     		push	{r4, lr}
 317 0016 1168     		ldr	r1, [r2]
 318 0018 1B48     		ldr	r0, .L64
 319 001a 21F00E01 		bic	r1, r1, #14
 320 001e 1160     		str	r1, [r2]
 321 0020 1168     		ldr	r1, [r2]
 322 0022 8242     		cmp	r2, r0
 323 0024 21F00101 		bic	r1, r1, #1
 324 0028 1160     		str	r1, [r2]
 325 002a 22D0     		beq	.L52
 326 002c 1749     		ldr	r1, .L64+4
 327 002e 8A42     		cmp	r2, r1
 328 0030 1DD0     		beq	.L53
 329 0032 1431     		adds	r1, r1, #20
 330 0034 8A42     		cmp	r2, r1
 331 0036 1ED0     		beq	.L54
 332 0038 1431     		adds	r1, r1, #20
 333 003a 8A42     		cmp	r2, r1
 334 003c 1ED0     		beq	.L55
 335 003e 1431     		adds	r1, r1, #20
 336 0040 8A42     		cmp	r2, r1
 337 0042 1ED0     		beq	.L56
 338 0044 1431     		adds	r1, r1, #20
 339 0046 8A42     		cmp	r2, r1
 340 0048 14BF     		ite	ne
 341 004a 4FF08072 		movne	r2, #16777216
 342 004e 4FF48012 		moveq	r2, #1048576
 343              	.L50:
 344 0052 0120     		movs	r0, #1
 345 0054 0021     		movs	r1, #0
 346 0056 0E4C     		ldr	r4, .L64+8
 347 0058 6260     		str	r2, [r4, #4]
 348 005a 5A6B     		ldr	r2, [r3, #52]
 349 005c 83F82100 		strb	r0, [r3, #33]
 350 0060 83F82010 		strb	r1, [r3, #32]
 351 0064 0AB1     		cbz	r2, .L51
 352 0066 1846     		mov	r0, r3
 353 0068 9047     		blx	r2
ARM GAS  /var/folders/td/83895s255bq6rlxfmrv9fnww0000gn/T//ccfcYPhQ.s 			page 7


 354              	.L51:
 355 006a 0020     		movs	r0, #0
 356 006c 10BD     		pop	{r4, pc}
 357              	.L53:
 358 006e 1022     		movs	r2, #16
 359 0070 EFE7     		b	.L50
 360              	.L52:
 361 0072 0122     		movs	r2, #1
 362 0074 EDE7     		b	.L50
 363              	.L54:
 364 0076 4FF48072 		mov	r2, #256
 365 007a EAE7     		b	.L50
 366              	.L55:
 367 007c 4FF48052 		mov	r2, #4096
 368 0080 E7E7     		b	.L50
 369              	.L56:
 370 0082 4FF48032 		mov	r2, #65536
 371 0086 E4E7     		b	.L50
 372              	.L65:
 373              		.align	2
 374              	.L64:
 375 0088 08000240 		.word	1073872904
 376 008c 1C000240 		.word	1073872924
 377 0090 00000240 		.word	1073872896
 379              		.section	.text.HAL_DMA_PollForTransfer,"ax",%progbits
 380              		.align	1
 381              		.p2align 2,,3
 382              		.global	HAL_DMA_PollForTransfer
 383              		.syntax unified
 384              		.thumb
 385              		.thumb_func
 387              	HAL_DMA_PollForTransfer:
 388              		@ args = 0, pretend = 0, frame = 8
 389              		@ frame_needed = 0, uses_anonymous_args = 0
 390 0000 2DE9F04F 		push	{r4, r5, r6, r7, r8, r9, r10, fp, lr}
 391 0004 90F82130 		ldrb	r3, [r0, #33]	@ zero_extendqisi2
 392 0008 0746     		mov	r7, r0
 393 000a 022B     		cmp	r3, #2
 394 000c 83B0     		sub	sp, sp, #12
 395 000e 08D0     		beq	.L67
 396 0010 0422     		movs	r2, #4
 397 0012 0023     		movs	r3, #0
 398 0014 8263     		str	r2, [r0, #56]
 399 0016 80F82030 		strb	r3, [r0, #32]
 400              	.L68:
 401 001a 0120     		movs	r0, #1
 402 001c 03B0     		add	sp, sp, #12
 403              		@ sp needed
 404 001e BDE8F08F 		pop	{r4, r5, r6, r7, r8, r9, r10, fp, pc}
 405              	.L67:
 406 0022 5FFA83F8 		uxtb	r8, r3
 407 0026 0368     		ldr	r3, [r0]
 408 0028 1646     		mov	r6, r2
 409 002a 1A68     		ldr	r2, [r3]
 410 002c 9406     		lsls	r4, r2, #26
 411 002e 58D4     		bmi	.L117
 412 0030 0D46     		mov	r5, r1
ARM GAS  /var/folders/td/83895s255bq6rlxfmrv9fnww0000gn/T//ccfcYPhQ.s 			page 8


 413 0032 804A     		ldr	r2, .L122
 414 0034 0029     		cmp	r1, #0
 415 0036 58D1     		bne	.L71
 416 0038 9342     		cmp	r3, r2
 417 003a 16D0     		beq	.L72
 418 003c 1432     		adds	r2, r2, #20
 419 003e 9342     		cmp	r3, r2
 420 0040 00F0D380 		beq	.L85
 421 0044 1432     		adds	r2, r2, #20
 422 0046 9342     		cmp	r3, r2
 423 0048 00F0D980 		beq	.L86
 424 004c 1432     		adds	r2, r2, #20
 425 004e 9342     		cmp	r3, r2
 426 0050 00F0BD80 		beq	.L87
 427 0054 1432     		adds	r2, r2, #20
 428 0056 9342     		cmp	r3, r2
 429 0058 00F0DA80 		beq	.L88
 430 005c 1432     		adds	r2, r2, #20
 431 005e 9342     		cmp	r3, r2
 432 0060 14BF     		ite	ne
 433 0062 4FF00078 		movne	r8, #33554432
 434 0066 4FF40018 		moveq	r8, #2097152
 435              	.L72:
 436 006a FFF7FEFF 		bl	HAL_GetTick
 437 006e DFF8C491 		ldr	r9, .L122
 438 0072 DFF8C4A1 		ldr	r10, .L122+4
 439 0076 DFF8C4B1 		ldr	fp, .L122+8
 440 007a 714A     		ldr	r2, .L122+12
 441 007c 0190     		str	r0, [sp, #4]
 442              	.L73:
 443 007e 3B68     		ldr	r3, [r7]
 444 0080 7049     		ldr	r1, .L122+16
 445 0082 DFF8C4C1 		ldr	ip, .L122+20
 446 0086 DFF8C4E1 		ldr	lr, .L122+24
 447 008a 11E0     		b	.L76
 448              	.L121:
 449 008c 5345     		cmp	r3, r10
 450 008e 43D0     		beq	.L97
 451 0090 5B45     		cmp	r3, fp
 452 0092 43D0     		beq	.L98
 453 0094 9342     		cmp	r3, r2
 454 0096 44D0     		beq	.L99
 455 0098 6345     		cmp	r3, ip
 456 009a 45D0     		beq	.L100
 457 009c 7345     		cmp	r3, lr
 458 009e 14BF     		ite	ne
 459 00a0 4FF00064 		movne	r4, #134217728
 460 00a4 4FF40004 		moveq	r4, #8388608
 461              	.L74:
 462 00a8 2042     		tst	r0, r4
 463 00aa 0BD1     		bne	.L118
 464              	.L75:
 465 00ac 701C     		adds	r0, r6, #1
 466 00ae 5BD1     		bne	.L119
 467              	.L76:
 468 00b0 0868     		ldr	r0, [r1]
 469 00b2 10EA080F 		tst	r0, r8
ARM GAS  /var/folders/td/83895s255bq6rlxfmrv9fnww0000gn/T//ccfcYPhQ.s 			page 9


 470 00b6 3AD1     		bne	.L120
 471 00b8 4B45     		cmp	r3, r9
 472 00ba 0868     		ldr	r0, [r1]
 473 00bc E6D1     		bne	.L121
 474 00be 0824     		movs	r4, #8
 475 00c0 2042     		tst	r0, r4
 476 00c2 F3D0     		beq	.L75
 477              	.L118:
 478 00c4 0122     		movs	r2, #1
 479 00c6 D7E90F03 		ldrd	r0, r3, [r7, #60]
 480 00ca 0021     		movs	r1, #0
 481 00cc 02FA03F3 		lsl	r3, r2, r3
 482 00d0 4360     		str	r3, [r0, #4]
 483 00d2 BB6B     		ldr	r3, [r7, #56]
 484 00d4 87F82010 		strb	r1, [r7, #32]
 485 00d8 1343     		orrs	r3, r3, r2
 486 00da BB63     		str	r3, [r7, #56]
 487 00dc 87F82120 		strb	r2, [r7, #33]
 488 00e0 9BE7     		b	.L68
 489              	.L117:
 490 00e2 4FF48073 		mov	r3, #256
 491 00e6 8363     		str	r3, [r0, #56]
 492 00e8 97E7     		b	.L68
 493              	.L71:
 494 00ea 9342     		cmp	r3, r2
 495 00ec 77D0     		beq	.L90
 496 00ee 1432     		adds	r2, r2, #20
 497 00f0 9342     		cmp	r3, r2
 498 00f2 77D0     		beq	.L91
 499 00f4 1432     		adds	r2, r2, #20
 500 00f6 9342     		cmp	r3, r2
 501 00f8 7ED0     		beq	.L92
 502 00fa 1432     		adds	r2, r2, #20
 503 00fc 9342     		cmp	r3, r2
 504 00fe 6BD0     		beq	.L93
 505 0100 1432     		adds	r2, r2, #20
 506 0102 9342     		cmp	r3, r2
 507 0104 00F08180 		beq	.L94
 508 0108 1432     		adds	r2, r2, #20
 509 010a 9342     		cmp	r3, r2
 510 010c 14BF     		ite	ne
 511 010e 4FF08068 		movne	r8, #67108864
 512 0112 4FF48008 		moveq	r8, #4194304
 513 0116 A8E7     		b	.L72
 514              	.L97:
 515 0118 8024     		movs	r4, #128
 516 011a C5E7     		b	.L74
 517              	.L98:
 518 011c 4FF40064 		mov	r4, #2048
 519 0120 C2E7     		b	.L74
 520              	.L99:
 521 0122 4FF40044 		mov	r4, #32768
 522 0126 BFE7     		b	.L74
 523              	.L100:
 524 0128 4FF40024 		mov	r4, #524288
 525 012c BCE7     		b	.L74
 526              	.L120:
ARM GAS  /var/folders/td/83895s255bq6rlxfmrv9fnww0000gn/T//ccfcYPhQ.s 			page 10


 527 012e 414A     		ldr	r2, .L122
 528 0130 6DBB     		cbnz	r5, .L80
 529 0132 9342     		cmp	r3, r2
 530 0134 5ED0     		beq	.L102
 531 0136 1432     		adds	r2, r2, #20
 532 0138 9342     		cmp	r3, r2
 533 013a 46D0     		beq	.L103
 534 013c 1432     		adds	r2, r2, #20
 535 013e 9342     		cmp	r3, r2
 536 0140 60D0     		beq	.L104
 537 0142 1432     		adds	r2, r2, #20
 538 0144 9342     		cmp	r3, r2
 539 0146 69D0     		beq	.L105
 540 0148 1432     		adds	r2, r2, #20
 541 014a 9342     		cmp	r3, r2
 542 014c 6CD0     		beq	.L106
 543 014e 1432     		adds	r2, r2, #20
 544 0150 9342     		cmp	r3, r2
 545 0152 14BF     		ite	ne
 546 0154 4FF00073 		movne	r3, #33554432
 547 0158 4FF40013 		moveq	r3, #2097152
 548              	.L81:
 549 015c 0122     		movs	r2, #1
 550 015e 3949     		ldr	r1, .L122+16
 551 0160 4B60     		str	r3, [r1, #4]
 552 0162 87F82120 		strb	r2, [r7, #33]
 553 0166 29E0     		b	.L82
 554              	.L119:
 555 0168 36B1     		cbz	r6, .L78
 556 016a FFF7FEFF 		bl	HAL_GetTick
 557 016e 019B     		ldr	r3, [sp, #4]
 558 0170 334A     		ldr	r2, .L122+12
 559 0172 C01A     		subs	r0, r0, r3
 560 0174 B042     		cmp	r0, r6
 561 0176 82D9     		bls	.L73
 562              	.L78:
 563 0178 0121     		movs	r1, #1
 564 017a 0022     		movs	r2, #0
 565 017c BB6B     		ldr	r3, [r7, #56]
 566 017e 87F82020 		strb	r2, [r7, #32]
 567 0182 43F02003 		orr	r3, r3, #32
 568 0186 BB63     		str	r3, [r7, #56]
 569 0188 87F82110 		strb	r1, [r7, #33]
 570 018c 45E7     		b	.L68
 571              	.L80:
 572 018e 9342     		cmp	r3, r2
 573 0190 2ED0     		beq	.L108
 574 0192 1432     		adds	r2, r2, #20
 575 0194 9342     		cmp	r3, r2
 576 0196 1DD0     		beq	.L109
 577 0198 1432     		adds	r2, r2, #20
 578 019a 9342     		cmp	r3, r2
 579 019c 3BD0     		beq	.L110
 580 019e 1432     		adds	r2, r2, #20
 581 01a0 9342     		cmp	r3, r2
 582 01a2 3ED0     		beq	.L111
 583 01a4 1432     		adds	r2, r2, #20
ARM GAS  /var/folders/td/83895s255bq6rlxfmrv9fnww0000gn/T//ccfcYPhQ.s 			page 11


 584 01a6 9342     		cmp	r3, r2
 585 01a8 41D0     		beq	.L112
 586 01aa 1432     		adds	r2, r2, #20
 587 01ac 9342     		cmp	r3, r2
 588 01ae 14BF     		ite	ne
 589 01b0 4FF08063 		movne	r3, #67108864
 590 01b4 4FF48003 		moveq	r3, #4194304
 591              	.L83:
 592 01b8 224A     		ldr	r2, .L122+16
 593 01ba 5360     		str	r3, [r2, #4]
 594              	.L82:
 595 01bc 0023     		movs	r3, #0
 596 01be 1846     		mov	r0, r3
 597 01c0 87F82030 		strb	r3, [r7, #32]
 598 01c4 03B0     		add	sp, sp, #12
 599              		@ sp needed
 600 01c6 BDE8F08F 		pop	{r4, r5, r6, r7, r8, r9, r10, fp, pc}
 601              	.L103:
 602 01ca 2023     		movs	r3, #32
 603 01cc C6E7     		b	.L81
 604              	.L87:
 605 01ce 4FF40058 		mov	r8, #8192
 606 01d2 4AE7     		b	.L72
 607              	.L109:
 608 01d4 4023     		movs	r3, #64
 609 01d6 EFE7     		b	.L83
 610              	.L93:
 611 01d8 4FF48048 		mov	r8, #16384
 612 01dc 45E7     		b	.L72
 613              	.L90:
 614 01de 4FF00408 		mov	r8, #4
 615 01e2 42E7     		b	.L72
 616              	.L91:
 617 01e4 4FF04008 		mov	r8, #64
 618 01e8 3FE7     		b	.L72
 619              	.L85:
 620 01ea 4FF02008 		mov	r8, #32
 621 01ee 3CE7     		b	.L72
 622              	.L108:
 623 01f0 0423     		movs	r3, #4
 624 01f2 E1E7     		b	.L83
 625              	.L102:
 626 01f4 0223     		movs	r3, #2
 627 01f6 B1E7     		b	.L81
 628              	.L92:
 629 01f8 4FF48068 		mov	r8, #1024
 630 01fc 35E7     		b	.L72
 631              	.L86:
 632 01fe 4FF40078 		mov	r8, #512
 633 0202 32E7     		b	.L72
 634              	.L104:
 635 0204 4FF40073 		mov	r3, #512
 636 0208 A8E7     		b	.L81
 637              	.L94:
 638 020a 4FF48028 		mov	r8, #262144
 639 020e 2CE7     		b	.L72
 640              	.L88:
ARM GAS  /var/folders/td/83895s255bq6rlxfmrv9fnww0000gn/T//ccfcYPhQ.s 			page 12


 641 0210 4FF40038 		mov	r8, #131072
 642 0214 29E7     		b	.L72
 643              	.L110:
 644 0216 4FF48063 		mov	r3, #1024
 645 021a CDE7     		b	.L83
 646              	.L105:
 647 021c 4FF40053 		mov	r3, #8192
 648 0220 9CE7     		b	.L81
 649              	.L111:
 650 0222 4FF48043 		mov	r3, #16384
 651 0226 C7E7     		b	.L83
 652              	.L106:
 653 0228 4FF40033 		mov	r3, #131072
 654 022c 96E7     		b	.L81
 655              	.L112:
 656 022e 4FF48023 		mov	r3, #262144
 657 0232 C1E7     		b	.L83
 658              	.L123:
 659              		.align	2
 660              	.L122:
 661 0234 08000240 		.word	1073872904
 662 0238 1C000240 		.word	1073872924
 663 023c 30000240 		.word	1073872944
 664 0240 44000240 		.word	1073872964
 665 0244 00000240 		.word	1073872896
 666 0248 58000240 		.word	1073872984
 667 024c 6C000240 		.word	1073873004
 669              		.section	.text.HAL_DMA_IRQHandler,"ax",%progbits
 670              		.align	1
 671              		.p2align 2,,3
 672              		.global	HAL_DMA_IRQHandler
 673              		.syntax unified
 674              		.thumb
 675              		.thumb_func
 677              	HAL_DMA_IRQHandler:
 678              		@ args = 0, pretend = 0, frame = 0
 679              		@ frame_needed = 0, uses_anonymous_args = 0
 680              		@ link register save eliminated.
 681 0000 0422     		movs	r2, #4
 682 0002 70B4     		push	{r4, r5, r6}
 683 0004 C66B     		ldr	r6, [r0, #60]
 684 0006 016C     		ldr	r1, [r0, #64]
 685 0008 3468     		ldr	r4, [r6]
 686 000a 0368     		ldr	r3, [r0]
 687 000c 8A40     		lsls	r2, r2, r1
 688 000e 2242     		tst	r2, r4
 689 0010 1D68     		ldr	r5, [r3]
 690 0012 1FD0     		beq	.L125
 691 0014 6A07     		lsls	r2, r5, #29
 692 0016 1DD5     		bpl	.L125
 693 0018 1A68     		ldr	r2, [r3]
 694 001a 9106     		lsls	r1, r2, #26
 695 001c 03D4     		bmi	.L126
 696 001e 1A68     		ldr	r2, [r3]
 697 0020 22F00402 		bic	r2, r2, #4
 698 0024 1A60     		str	r2, [r3]
 699              	.L126:
ARM GAS  /var/folders/td/83895s255bq6rlxfmrv9fnww0000gn/T//ccfcYPhQ.s 			page 13


 700 0026 3F4A     		ldr	r2, .L172
 701 0028 9342     		cmp	r3, r2
 702 002a 5CD0     		beq	.L134
 703 002c 1432     		adds	r2, r2, #20
 704 002e 9342     		cmp	r3, r2
 705 0030 61D0     		beq	.L135
 706 0032 1432     		adds	r2, r2, #20
 707 0034 9342     		cmp	r3, r2
 708 0036 68D0     		beq	.L136
 709 0038 1432     		adds	r2, r2, #20
 710 003a 9342     		cmp	r3, r2
 711 003c 6BD0     		beq	.L137
 712 003e 1432     		adds	r2, r2, #20
 713 0040 9342     		cmp	r3, r2
 714 0042 5DD0     		beq	.L138
 715 0044 1432     		adds	r2, r2, #20
 716 0046 9342     		cmp	r3, r2
 717 0048 14BF     		ite	ne
 718 004a 4FF08062 		movne	r2, #67108864
 719 004e 4FF48002 		moveq	r2, #4194304
 720 0052 49E0     		b	.L127
 721              	.L125:
 722 0054 0222     		movs	r2, #2
 723 0056 8A40     		lsls	r2, r2, r1
 724 0058 2242     		tst	r2, r4
 725 005a 22D0     		beq	.L130
 726 005c AA07     		lsls	r2, r5, #30
 727 005e 20D5     		bpl	.L130
 728 0060 1A68     		ldr	r2, [r3]
 729 0062 9106     		lsls	r1, r2, #26
 730 0064 06D4     		bmi	.L131
 731 0066 0121     		movs	r1, #1
 732 0068 1A68     		ldr	r2, [r3]
 733 006a 22F00A02 		bic	r2, r2, #10
 734 006e 1A60     		str	r2, [r3]
 735 0070 80F82110 		strb	r1, [r0, #33]
 736              	.L131:
 737 0074 2B4A     		ldr	r2, .L172
 738 0076 9342     		cmp	r3, r2
 739 0078 2BD0     		beq	.L140
 740 007a 1432     		adds	r2, r2, #20
 741 007c 9342     		cmp	r3, r2
 742 007e 42D0     		beq	.L141
 743 0080 1432     		adds	r2, r2, #20
 744 0082 9342     		cmp	r3, r2
 745 0084 44D0     		beq	.L142
 746 0086 1432     		adds	r2, r2, #20
 747 0088 9342     		cmp	r3, r2
 748 008a 36D0     		beq	.L143
 749 008c 1432     		adds	r2, r2, #20
 750 008e 9342     		cmp	r3, r2
 751 0090 44D0     		beq	.L144
 752 0092 1432     		adds	r2, r2, #20
 753 0094 9342     		cmp	r3, r2
 754 0096 14BF     		ite	ne
 755 0098 4FF00072 		movne	r2, #33554432
 756 009c 4FF40012 		moveq	r2, #2097152
ARM GAS  /var/folders/td/83895s255bq6rlxfmrv9fnww0000gn/T//ccfcYPhQ.s 			page 14


 757 00a0 18E0     		b	.L132
 758              	.L130:
 759 00a2 0822     		movs	r2, #8
 760 00a4 8A40     		lsls	r2, r2, r1
 761 00a6 2242     		tst	r2, r4
 762 00a8 1BD0     		beq	.L124
 763 00aa 2A07     		lsls	r2, r5, #28
 764 00ac 19D5     		bpl	.L124
 765 00ae 1A68     		ldr	r2, [r3]
 766 00b0 0024     		movs	r4, #0
 767 00b2 22F00E02 		bic	r2, r2, #14
 768 00b6 1A60     		str	r2, [r3]
 769 00b8 0123     		movs	r3, #1
 770 00ba 026B     		ldr	r2, [r0, #48]
 771 00bc 03FA01F1 		lsl	r1, r3, r1
 772 00c0 7160     		str	r1, [r6, #4]
 773 00c2 8363     		str	r3, [r0, #56]
 774 00c4 80F82040 		strb	r4, [r0, #32]
 775 00c8 80F82130 		strb	r3, [r0, #33]
 776 00cc 4AB1     		cbz	r2, .L124
 777 00ce 70BC     		pop	{r4, r5, r6}
 778 00d0 1047     		bx	r2	@ indirect register sibling call
 779              	.L140:
 780 00d2 0222     		movs	r2, #2
 781              	.L132:
 782 00d4 0021     		movs	r1, #0
 783 00d6 144C     		ldr	r4, .L172+4
 784 00d8 836A     		ldr	r3, [r0, #40]
 785 00da 6260     		str	r2, [r4, #4]
 786 00dc 80F82010 		strb	r1, [r0, #32]
 787 00e0 3BB9     		cbnz	r3, .L171
 788              	.L124:
 789 00e2 70BC     		pop	{r4, r5, r6}
 790 00e4 7047     		bx	lr
 791              	.L134:
 792 00e6 0422     		movs	r2, #4
 793              	.L127:
 794 00e8 0F49     		ldr	r1, .L172+4
 795 00ea C36A     		ldr	r3, [r0, #44]
 796 00ec 4A60     		str	r2, [r1, #4]
 797 00ee 002B     		cmp	r3, #0
 798 00f0 F7D0     		beq	.L124
 799              	.L171:
 800 00f2 70BC     		pop	{r4, r5, r6}
 801 00f4 1847     		bx	r3	@ indirect register sibling call
 802              	.L135:
 803 00f6 4022     		movs	r2, #64
 804 00f8 F6E7     		b	.L127
 805              	.L143:
 806 00fa 4FF40052 		mov	r2, #8192
 807 00fe E9E7     		b	.L132
 808              	.L138:
 809 0100 4FF48022 		mov	r2, #262144
 810 0104 F0E7     		b	.L127
 811              	.L141:
 812 0106 2022     		movs	r2, #32
 813 0108 E4E7     		b	.L132
ARM GAS  /var/folders/td/83895s255bq6rlxfmrv9fnww0000gn/T//ccfcYPhQ.s 			page 15


 814              	.L136:
 815 010a 4FF48062 		mov	r2, #1024
 816 010e EBE7     		b	.L127
 817              	.L142:
 818 0110 4FF40072 		mov	r2, #512
 819 0114 DEE7     		b	.L132
 820              	.L137:
 821 0116 4FF48042 		mov	r2, #16384
 822 011a E5E7     		b	.L127
 823              	.L144:
 824 011c 4FF40032 		mov	r2, #131072
 825 0120 D8E7     		b	.L132
 826              	.L173:
 827 0122 00BF     		.align	2
 828              	.L172:
 829 0124 08000240 		.word	1073872904
 830 0128 00000240 		.word	1073872896
 832              		.section	.text.HAL_DMA_RegisterCallback,"ax",%progbits
 833              		.align	1
 834              		.p2align 2,,3
 835              		.global	HAL_DMA_RegisterCallback
 836              		.syntax unified
 837              		.thumb
 838              		.thumb_func
 840              	HAL_DMA_RegisterCallback:
 841              		@ args = 0, pretend = 0, frame = 0
 842              		@ frame_needed = 0, uses_anonymous_args = 0
 843              		@ link register save eliminated.
 844 0000 0346     		mov	r3, r0
 845 0002 90F82000 		ldrb	r0, [r0, #32]	@ zero_extendqisi2
 846 0006 0128     		cmp	r0, #1
 847 0008 1AD0     		beq	.L183
 848 000a 93F821C0 		ldrb	ip, [r3, #33]	@ zero_extendqisi2
 849 000e BCF1010F 		cmp	ip, #1
 850 0012 5FFA8CF0 		uxtb	r0, ip
 851 0016 04D0     		beq	.L186
 852 0018 0120     		movs	r0, #1
 853              	.L176:
 854 001a 0022     		movs	r2, #0
 855 001c 83F82020 		strb	r2, [r3, #32]
 856 0020 7047     		bx	lr
 857              	.L186:
 858 0022 0329     		cmp	r1, #3
 859 0024 F9D8     		bhi	.L176
 860 0026 DFE801F0 		tbb	[pc, r1]
 861              	.L178:
 862 002a 09       		.byte	(.L181-.L178)/2
 863 002b 07       		.byte	(.L180-.L178)/2
 864 002c 05       		.byte	(.L179-.L178)/2
 865 002d 02       		.byte	(.L177-.L178)/2
 866              		.p2align 1
 867              	.L177:
 868 002e 5A63     		str	r2, [r3, #52]
 869              	.L182:
 870 0030 0020     		movs	r0, #0
 871 0032 F2E7     		b	.L176
 872              	.L179:
ARM GAS  /var/folders/td/83895s255bq6rlxfmrv9fnww0000gn/T//ccfcYPhQ.s 			page 16


 873 0034 1A63     		str	r2, [r3, #48]
 874 0036 FBE7     		b	.L182
 875              	.L180:
 876 0038 DA62     		str	r2, [r3, #44]
 877 003a F9E7     		b	.L182
 878              	.L181:
 879 003c 9A62     		str	r2, [r3, #40]
 880 003e F7E7     		b	.L182
 881              	.L183:
 882 0040 0220     		movs	r0, #2
 883 0042 7047     		bx	lr
 885              		.section	.text.HAL_DMA_UnRegisterCallback,"ax",%progbits
 886              		.align	1
 887              		.p2align 2,,3
 888              		.global	HAL_DMA_UnRegisterCallback
 889              		.syntax unified
 890              		.thumb
 891              		.thumb_func
 893              	HAL_DMA_UnRegisterCallback:
 894              		@ args = 0, pretend = 0, frame = 0
 895              		@ frame_needed = 0, uses_anonymous_args = 0
 896              		@ link register save eliminated.
 897 0000 90F82020 		ldrb	r2, [r0, #32]	@ zero_extendqisi2
 898 0004 0346     		mov	r3, r0
 899 0006 012A     		cmp	r2, #1
 900 0008 14D0     		beq	.L197
 901 000a 4FF0010C 		mov	ip, #1
 902 000e 90F82120 		ldrb	r2, [r0, #33]	@ zero_extendqisi2
 903 0012 83F820C0 		strb	ip, [r3, #32]
 904 0016 6245     		cmp	r2, ip
 905 0018 D0B2     		uxtb	r0, r2
 906 001a 04D0     		beq	.L200
 907 001c 6046     		mov	r0, ip
 908              	.L189:
 909 001e 0022     		movs	r2, #0
 910 0020 83F82020 		strb	r2, [r3, #32]
 911 0024 7047     		bx	lr
 912              	.L200:
 913 0026 0429     		cmp	r1, #4
 914 0028 F9D8     		bhi	.L189
 915 002a DFE801F0 		tbb	[pc, r1]
 916              	.L191:
 917 002e 0C       		.byte	(.L195-.L191)/2
 918 002f 0F       		.byte	(.L194-.L191)/2
 919 0030 12       		.byte	(.L193-.L191)/2
 920 0031 15       		.byte	(.L192-.L191)/2
 921 0032 05       		.byte	(.L190-.L191)/2
 922 0033 00       		.p2align 1
 923              	.L197:
 924 0034 0220     		movs	r0, #2
 925 0036 7047     		bx	lr
 926              	.L190:
 927 0038 0022     		movs	r2, #0
 928 003a C3E90A22 		strd	r2, r2, [r3, #40]
 929 003e C3E90C22 		strd	r2, r2, [r3, #48]
 930              	.L196:
 931 0042 0020     		movs	r0, #0
ARM GAS  /var/folders/td/83895s255bq6rlxfmrv9fnww0000gn/T//ccfcYPhQ.s 			page 17


 932 0044 EBE7     		b	.L189
 933              	.L195:
 934 0046 0022     		movs	r2, #0
 935 0048 9A62     		str	r2, [r3, #40]
 936 004a FAE7     		b	.L196
 937              	.L194:
 938 004c 0022     		movs	r2, #0
 939 004e DA62     		str	r2, [r3, #44]
 940 0050 F7E7     		b	.L196
 941              	.L193:
 942 0052 0022     		movs	r2, #0
 943 0054 1A63     		str	r2, [r3, #48]
 944 0056 F4E7     		b	.L196
 945              	.L192:
 946 0058 0022     		movs	r2, #0
 947 005a 5A63     		str	r2, [r3, #52]
 948 005c F1E7     		b	.L196
 950 005e 00BF     		.section	.text.HAL_DMA_GetState,"ax",%progbits
 951              		.align	1
 952              		.p2align 2,,3
 953              		.global	HAL_DMA_GetState
 954              		.syntax unified
 955              		.thumb
 956              		.thumb_func
 958              	HAL_DMA_GetState:
 959              		@ args = 0, pretend = 0, frame = 0
 960              		@ frame_needed = 0, uses_anonymous_args = 0
 961              		@ link register save eliminated.
 962 0000 90F82100 		ldrb	r0, [r0, #33]	@ zero_extendqisi2
 963 0004 7047     		bx	lr
 965 0006 00BF     		.section	.text.HAL_DMA_GetError,"ax",%progbits
 966              		.align	1
 967              		.p2align 2,,3
 968              		.global	HAL_DMA_GetError
 969              		.syntax unified
 970              		.thumb
 971              		.thumb_func
 973              	HAL_DMA_GetError:
 974              		@ args = 0, pretend = 0, frame = 0
 975              		@ frame_needed = 0, uses_anonymous_args = 0
 976              		@ link register save eliminated.
 977 0000 806B     		ldr	r0, [r0, #56]
 978 0002 7047     		bx	lr
 980              		.ident	"GCC: (Arm GNU Toolchain 13.2.rel1 (Build arm-13.7)) 13.2.1 20231009"
ARM GAS  /var/folders/td/83895s255bq6rlxfmrv9fnww0000gn/T//ccfcYPhQ.s 			page 18

