ARM GAS  /var/folders/td/83895s255bq6rlxfmrv9fnww0000gn/T//cc0o8xXQ.s 			page 1


   1              		.cpu cortex-m3
   2              		.arch armv7-m
   3              		.fpu softvfp
   4              		.eabi_attribute 20, 1
   5              		.eabi_attribute 21, 1
   6              		.eabi_attribute 23, 3
   7              		.eabi_attribute 24, 1
   8              		.eabi_attribute 25, 1
   9              		.eabi_attribute 26, 1
  10              		.eabi_attribute 30, 2
  11              		.eabi_attribute 34, 1
  12              		.eabi_attribute 18, 4
  13              		.file	"stm32f1xx_hal_pcd.c"
  14              		.text
  15              		.section	.text.HAL_PCD_MspInit,"ax",%progbits
  16              		.align	1
  17              		.p2align 2,,3
  18              		.weak	HAL_PCD_MspInit
  19              		.syntax unified
  20              		.thumb
  21              		.thumb_func
  23              	HAL_PCD_MspInit:
  24              		@ args = 0, pretend = 0, frame = 0
  25              		@ frame_needed = 0, uses_anonymous_args = 0
  26              		@ link register save eliminated.
  27 0000 7047     		bx	lr
  29 0002 00BF     		.section	.text.HAL_PCD_Init,"ax",%progbits
  30              		.align	1
  31              		.p2align 2,,3
  32              		.global	HAL_PCD_Init
  33              		.syntax unified
  34              		.thumb
  35              		.thumb_func
  37              	HAL_PCD_Init:
  38              		@ args = 0, pretend = 0, frame = 0
  39              		@ frame_needed = 0, uses_anonymous_args = 0
  40 0000 F0B5     		push	{r4, r5, r6, r7, lr}
  41 0002 87B0     		sub	sp, sp, #28
  42 0004 10B3     		cbz	r0, .L4
  43 0006 90F8A932 		ldrb	r3, [r0, #681]	@ zero_extendqisi2
  44 000a 0546     		mov	r5, r0
  45 000c 03F0FF02 		and	r2, r3, #255
  46 0010 002B     		cmp	r3, #0
  47 0012 67D0     		beq	.L24
  48              	.L5:
  49 0014 0323     		movs	r3, #3
  50 0016 2E46     		mov	r6, r5
  51 0018 85F8A932 		strb	r3, [r5, #681]
  52 001c 2868     		ldr	r0, [r5]
  53 001e FFF7FEFF 		bl	USB_DisableGlobalInt
  54 0022 56F810EB 		ldr	lr, [r6], #16
  55 0026 6C46     		mov	r4, sp
  56 0028 B446     		mov	ip, r6
  57 002a BCE80F00 		ldmia	ip!, {r0, r1, r2, r3}
  58 002e 0FC4     		stmia	r4!, {r0, r1, r2, r3}
  59 0030 DCF80030 		ldr	r3, [ip]
  60 0034 2F1D     		adds	r7, r5, #4
ARM GAS  /var/folders/td/83895s255bq6rlxfmrv9fnww0000gn/T//cc0o8xXQ.s 			page 2


  61 0036 2360     		str	r3, [r4]
  62 0038 7046     		mov	r0, lr
  63 003a 97E80E00 		ldm	r7, {r1, r2, r3}
  64 003e FFF7FEFF 		bl	USB_CoreInit
  65 0042 0446     		mov	r4, r0
  66 0044 30B1     		cbz	r0, .L6
  67              	.L23:
  68 0046 0223     		movs	r3, #2
  69 0048 85F8A932 		strb	r3, [r5, #681]
  70              	.L4:
  71 004c 0124     		movs	r4, #1
  72 004e 2046     		mov	r0, r4
  73 0050 07B0     		add	sp, sp, #28
  74              		@ sp needed
  75 0052 F0BD     		pop	{r4, r5, r6, r7, pc}
  76              	.L6:
  77 0054 0146     		mov	r1, r0
  78 0056 2868     		ldr	r0, [r5]
  79 0058 FFF7FEFF 		bl	USB_SetCurrentMode
  80 005c 6868     		ldr	r0, [r5, #4]
  81 005e 48B3     		cbz	r0, .L8
  82 0060 2246     		mov	r2, r4
  83 0062 4FF0010E 		mov	lr, #1
  84 0066 2146     		mov	r1, r4
  85              	.L9:
  86 0068 02EB8203 		add	r3, r2, r2, lsl #2
  87 006c 05EBC303 		add	r3, r5, r3, lsl #3
  88 0070 02F1010C 		add	ip, r2, #1
  89 0074 83F82820 		strb	r2, [r3, #40]
  90 0078 5FFA8CF2 		uxtb	r2, ip
  91 007c 8242     		cmp	r2, r0
  92 007e C3E90E11 		strd	r1, r1, [r3, #56]
  93 0082 83F829E0 		strb	lr, [r3, #41]
  94 0086 83F82B10 		strb	r1, [r3, #43]
  95 008a 1964     		str	r1, [r3, #64]
  96 008c ECD3     		bcc	.L9
  97 008e 0022     		movs	r2, #0
  98              	.L10:
  99 0090 04EB8403 		add	r3, r4, r4, lsl #2
 100 0094 05EBC303 		add	r3, r5, r3, lsl #3
 101 0098 611C     		adds	r1, r4, #1
 102 009a 83F86841 		strb	r4, [r3, #360]
 103 009e CCB2     		uxtb	r4, r1
 104 00a0 8442     		cmp	r4, r0
 105 00a2 C3E95E22 		strd	r2, r2, [r3, #376]
 106 00a6 83F86921 		strb	r2, [r3, #361]
 107 00aa 83F86B21 		strb	r2, [r3, #363]
 108 00ae C3F88021 		str	r2, [r3, #384]
 109 00b2 EDD3     		bcc	.L10
 110              	.L8:
 111 00b4 0FCE     		ldmia	r6!, {r0, r1, r2, r3}
 112 00b6 6C46     		mov	r4, sp
 113 00b8 0FC4     		stmia	r4!, {r0, r1, r2, r3}
 114 00ba 3368     		ldr	r3, [r6]
 115 00bc 2868     		ldr	r0, [r5]
 116 00be 2360     		str	r3, [r4]
 117 00c0 97E80E00 		ldm	r7, {r1, r2, r3}
ARM GAS  /var/folders/td/83895s255bq6rlxfmrv9fnww0000gn/T//cc0o8xXQ.s 			page 3


 118 00c4 FFF7FEFF 		bl	USB_DevInit
 119 00c8 0446     		mov	r4, r0
 120 00ca 0028     		cmp	r0, #0
 121 00cc BBD1     		bne	.L23
 122 00ce 0123     		movs	r3, #1
 123 00d0 85F82400 		strb	r0, [r5, #36]
 124 00d4 2868     		ldr	r0, [r5]
 125 00d6 85F8A932 		strb	r3, [r5, #681]
 126 00da FFF7FEFF 		bl	USB_DevDisconnect
 127 00de 2046     		mov	r0, r4
 128 00e0 07B0     		add	sp, sp, #28
 129              		@ sp needed
 130 00e2 F0BD     		pop	{r4, r5, r6, r7, pc}
 131              	.L24:
 132 00e4 80F8A822 		strb	r2, [r0, #680]
 133 00e8 FFF7FEFF 		bl	HAL_PCD_MspInit
 134 00ec 92E7     		b	.L5
 136 00ee 00BF     		.section	.text.HAL_PCD_MspDeInit,"ax",%progbits
 137              		.align	1
 138              		.p2align 2,,3
 139              		.weak	HAL_PCD_MspDeInit
 140              		.syntax unified
 141              		.thumb
 142              		.thumb_func
 144              	HAL_PCD_MspDeInit:
 145              		@ args = 0, pretend = 0, frame = 0
 146              		@ frame_needed = 0, uses_anonymous_args = 0
 147              		@ link register save eliminated.
 148 0000 7047     		bx	lr
 150 0002 00BF     		.section	.text.HAL_PCD_DeInit,"ax",%progbits
 151              		.align	1
 152              		.p2align 2,,3
 153              		.global	HAL_PCD_DeInit
 154              		.syntax unified
 155              		.thumb
 156              		.thumb_func
 158              	HAL_PCD_DeInit:
 159              		@ args = 0, pretend = 0, frame = 0
 160              		@ frame_needed = 0, uses_anonymous_args = 0
 161 0000 38B5     		push	{r3, r4, r5, lr}
 162 0002 40B1     		cbz	r0, .L29
 163 0004 0446     		mov	r4, r0
 164 0006 0323     		movs	r3, #3
 165 0008 0068     		ldr	r0, [r0]
 166 000a 84F8A932 		strb	r3, [r4, #681]
 167 000e FFF7FEFF 		bl	USB_StopDevice
 168 0012 0546     		mov	r5, r0
 169 0014 10B1     		cbz	r0, .L31
 170              	.L29:
 171 0016 0125     		movs	r5, #1
 172 0018 2846     		mov	r0, r5
 173 001a 38BD     		pop	{r3, r4, r5, pc}
 174              	.L31:
 175 001c 2046     		mov	r0, r4
 176 001e FFF7FEFF 		bl	HAL_PCD_MspDeInit
 177 0022 84F8A952 		strb	r5, [r4, #681]
 178 0026 2846     		mov	r0, r5
ARM GAS  /var/folders/td/83895s255bq6rlxfmrv9fnww0000gn/T//cc0o8xXQ.s 			page 4


 179 0028 38BD     		pop	{r3, r4, r5, pc}
 181 002a 00BF     		.section	.text.HAL_PCD_Start,"ax",%progbits
 182              		.align	1
 183              		.p2align 2,,3
 184              		.global	HAL_PCD_Start
 185              		.syntax unified
 186              		.thumb
 187              		.thumb_func
 189              	HAL_PCD_Start:
 190              		@ args = 0, pretend = 0, frame = 0
 191              		@ frame_needed = 0, uses_anonymous_args = 0
 192 0000 38B5     		push	{r3, r4, r5, lr}
 193 0002 90F8A832 		ldrb	r3, [r0, #680]	@ zero_extendqisi2
 194 0006 012B     		cmp	r3, #1
 195 0008 12D0     		beq	.L34
 196 000a 0446     		mov	r4, r0
 197 000c 0125     		movs	r5, #1
 198 000e 0068     		ldr	r0, [r0]
 199 0010 84F8A852 		strb	r5, [r4, #680]
 200 0014 FFF7FEFF 		bl	USB_EnableGlobalInt
 201 0018 2946     		mov	r1, r5
 202 001a 2046     		mov	r0, r4
 203 001c FFF7FEFF 		bl	HAL_PCDEx_SetConnectionState
 204 0020 2068     		ldr	r0, [r4]
 205 0022 FFF7FEFF 		bl	USB_DevConnect
 206 0026 0023     		movs	r3, #0
 207 0028 84F8A832 		strb	r3, [r4, #680]
 208 002c 1846     		mov	r0, r3
 209 002e 38BD     		pop	{r3, r4, r5, pc}
 210              	.L34:
 211 0030 0220     		movs	r0, #2
 212 0032 38BD     		pop	{r3, r4, r5, pc}
 214              		.section	.text.HAL_PCD_Stop,"ax",%progbits
 215              		.align	1
 216              		.p2align 2,,3
 217              		.global	HAL_PCD_Stop
 218              		.syntax unified
 219              		.thumb
 220              		.thumb_func
 222              	HAL_PCD_Stop:
 223              		@ args = 0, pretend = 0, frame = 0
 224              		@ frame_needed = 0, uses_anonymous_args = 0
 225 0000 90F8A832 		ldrb	r3, [r0, #680]	@ zero_extendqisi2
 226 0004 012B     		cmp	r3, #1
 227 0006 13D0     		beq	.L38
 228 0008 10B5     		push	{r4, lr}
 229 000a 0123     		movs	r3, #1
 230 000c 0446     		mov	r4, r0
 231 000e 0068     		ldr	r0, [r0]
 232 0010 84F8A832 		strb	r3, [r4, #680]
 233 0014 FFF7FEFF 		bl	USB_DisableGlobalInt
 234 0018 0021     		movs	r1, #0
 235 001a 2046     		mov	r0, r4
 236 001c FFF7FEFF 		bl	HAL_PCDEx_SetConnectionState
 237 0020 2068     		ldr	r0, [r4]
 238 0022 FFF7FEFF 		bl	USB_DevDisconnect
 239 0026 0023     		movs	r3, #0
ARM GAS  /var/folders/td/83895s255bq6rlxfmrv9fnww0000gn/T//cc0o8xXQ.s 			page 5


 240 0028 84F8A832 		strb	r3, [r4, #680]
 241 002c 1846     		mov	r0, r3
 242 002e 10BD     		pop	{r4, pc}
 243              	.L38:
 244 0030 0220     		movs	r0, #2
 245 0032 7047     		bx	lr
 247              		.section	.text.HAL_PCD_WKUP_IRQHandler,"ax",%progbits
 248              		.align	1
 249              		.p2align 2,,3
 250              		.global	HAL_PCD_WKUP_IRQHandler
 251              		.syntax unified
 252              		.thumb
 253              		.thumb_func
 255              	HAL_PCD_WKUP_IRQHandler:
 256              		@ args = 0, pretend = 0, frame = 0
 257              		@ frame_needed = 0, uses_anonymous_args = 0
 258              		@ link register save eliminated.
 259 0000 4FF48022 		mov	r2, #262144
 260 0004 014B     		ldr	r3, .L44
 261 0006 5A61     		str	r2, [r3, #20]
 262 0008 7047     		bx	lr
 263              	.L45:
 264 000a 00BF     		.align	2
 265              	.L44:
 266 000c 00040140 		.word	1073808384
 268              		.section	.text.HAL_PCD_DataOutStageCallback,"ax",%progbits
 269              		.align	1
 270              		.p2align 2,,3
 271              		.weak	HAL_PCD_DataOutStageCallback
 272              		.syntax unified
 273              		.thumb
 274              		.thumb_func
 276              	HAL_PCD_DataOutStageCallback:
 277              		@ args = 0, pretend = 0, frame = 0
 278              		@ frame_needed = 0, uses_anonymous_args = 0
 279              		@ link register save eliminated.
 280 0000 7047     		bx	lr
 282 0002 00BF     		.section	.text.HAL_PCD_DataInStageCallback,"ax",%progbits
 283              		.align	1
 284              		.p2align 2,,3
 285              		.weak	HAL_PCD_DataInStageCallback
 286              		.syntax unified
 287              		.thumb
 288              		.thumb_func
 290              	HAL_PCD_DataInStageCallback:
 291              		@ args = 0, pretend = 0, frame = 0
 292              		@ frame_needed = 0, uses_anonymous_args = 0
 293              		@ link register save eliminated.
 294 0000 7047     		bx	lr
 296 0002 00BF     		.section	.text.HAL_PCD_SetupStageCallback,"ax",%progbits
 297              		.align	1
 298              		.p2align 2,,3
 299              		.weak	HAL_PCD_SetupStageCallback
 300              		.syntax unified
 301              		.thumb
 302              		.thumb_func
 304              	HAL_PCD_SetupStageCallback:
ARM GAS  /var/folders/td/83895s255bq6rlxfmrv9fnww0000gn/T//cc0o8xXQ.s 			page 6


 305              		@ args = 0, pretend = 0, frame = 0
 306              		@ frame_needed = 0, uses_anonymous_args = 0
 307              		@ link register save eliminated.
 308 0000 7047     		bx	lr
 310 0002 00BF     		.section	.text.HAL_PCD_SOFCallback,"ax",%progbits
 311              		.align	1
 312              		.p2align 2,,3
 313              		.weak	HAL_PCD_SOFCallback
 314              		.syntax unified
 315              		.thumb
 316              		.thumb_func
 318              	HAL_PCD_SOFCallback:
 319              		@ args = 0, pretend = 0, frame = 0
 320              		@ frame_needed = 0, uses_anonymous_args = 0
 321              		@ link register save eliminated.
 322 0000 7047     		bx	lr
 324 0002 00BF     		.section	.text.HAL_PCD_ResetCallback,"ax",%progbits
 325              		.align	1
 326              		.p2align 2,,3
 327              		.weak	HAL_PCD_ResetCallback
 328              		.syntax unified
 329              		.thumb
 330              		.thumb_func
 332              	HAL_PCD_ResetCallback:
 333              		@ args = 0, pretend = 0, frame = 0
 334              		@ frame_needed = 0, uses_anonymous_args = 0
 335              		@ link register save eliminated.
 336 0000 7047     		bx	lr
 338 0002 00BF     		.section	.text.HAL_PCD_SuspendCallback,"ax",%progbits
 339              		.align	1
 340              		.p2align 2,,3
 341              		.weak	HAL_PCD_SuspendCallback
 342              		.syntax unified
 343              		.thumb
 344              		.thumb_func
 346              	HAL_PCD_SuspendCallback:
 347              		@ args = 0, pretend = 0, frame = 0
 348              		@ frame_needed = 0, uses_anonymous_args = 0
 349              		@ link register save eliminated.
 350 0000 7047     		bx	lr
 352 0002 00BF     		.section	.text.HAL_PCD_ResumeCallback,"ax",%progbits
 353              		.align	1
 354              		.p2align 2,,3
 355              		.weak	HAL_PCD_ResumeCallback
 356              		.syntax unified
 357              		.thumb
 358              		.thumb_func
 360              	HAL_PCD_ResumeCallback:
 361              		@ args = 0, pretend = 0, frame = 0
 362              		@ frame_needed = 0, uses_anonymous_args = 0
 363              		@ link register save eliminated.
 364 0000 7047     		bx	lr
 366 0002 00BF     		.section	.text.HAL_PCD_IRQHandler,"ax",%progbits
 367              		.align	1
 368              		.p2align 2,,3
 369              		.global	HAL_PCD_IRQHandler
 370              		.syntax unified
ARM GAS  /var/folders/td/83895s255bq6rlxfmrv9fnww0000gn/T//cc0o8xXQ.s 			page 7


 371              		.thumb
 372              		.thumb_func
 374              	HAL_PCD_IRQHandler:
 375              		@ args = 0, pretend = 0, frame = 16
 376              		@ frame_needed = 0, uses_anonymous_args = 0
 377 0000 2DE9F04F 		push	{r4, r5, r6, r7, r8, r9, r10, fp, lr}
 378 0004 0546     		mov	r5, r0
 379 0006 85B0     		sub	sp, sp, #20
 380 0008 0068     		ldr	r0, [r0]
 381 000a FFF7FEFF 		bl	USB_ReadInterrupts
 382 000e 10F40044 		ands	r4, r0, #32768
 383 0012 28D1     		bne	.L207
 384 0014 4605     		lsls	r6, r0, #21
 385 0016 00F19F81 		bmi	.L208
 386 001a 4104     		lsls	r1, r0, #17
 387 001c 17D4     		bmi	.L209
 388 001e 8204     		lsls	r2, r0, #18
 389 0020 00F11D82 		bmi	.L210
 390 0024 C304     		lsls	r3, r0, #19
 391 0026 00F1EA82 		bmi	.L211
 392 002a 0705     		lsls	r7, r0, #20
 393 002c 00F18880 		bmi	.L212
 394 0030 8205     		lsls	r2, r0, #22
 395 0032 00F19883 		bmi	.L213
 396 0036 C305     		lsls	r3, r0, #23
 397 0038 12D5     		bpl	.L53
 398 003a 2A68     		ldr	r2, [r5]
 399 003c B2F84430 		ldrh	r3, [r2, #68]
 400 0040 23F48073 		bic	r3, r3, #256
 401 0044 1B04     		lsls	r3, r3, #16
 402 0046 1B0C     		lsrs	r3, r3, #16
 403 0048 A2F84430 		strh	r3, [r2, #68]	@ movhi
 404 004c 08E0     		b	.L53
 405              	.L209:
 406 004e 2A68     		ldr	r2, [r5]
 407 0050 B2F84430 		ldrh	r3, [r2, #68]
 408 0054 23F48043 		bic	r3, r3, #16384
 409 0058 1B04     		lsls	r3, r3, #16
 410 005a 1B0C     		lsrs	r3, r3, #16
 411 005c A2F84430 		strh	r3, [r2, #68]	@ movhi
 412              	.L53:
 413 0060 05B0     		add	sp, sp, #20
 414              		@ sp needed
 415 0062 BDE8F08F 		pop	{r4, r5, r6, r7, r8, r9, r10, fp, pc}
 416              	.L207:
 417 0066 2868     		ldr	r0, [r5]
 418 0068 B0F84430 		ldrh	r3, [r0, #68]
 419 006c 1A04     		lsls	r2, r3, #16
 420 006e F7D5     		bpl	.L53
 421 0070 40F68F77 		movw	r7, #3983
 422 0074 C84E     		ldr	r6, .L225
 423 0076 10E0     		b	.L133
 424              	.L217:
 425 0078 11F01001 		ands	r1, r1, #16
 426 007c 00F0EE80 		beq	.L214
 427 0080 0188     		ldrh	r1, [r0]
 428 0082 11F40064 		ands	r4, r1, #2048
ARM GAS  /var/folders/td/83895s255bq6rlxfmrv9fnww0000gn/T//cc0o8xXQ.s 			page 8


 429 0086 8BB2     		uxth	r3, r1
 430 0088 40F01381 		bne	.L215
 431 008c 1B04     		lsls	r3, r3, #16
 432 008e 00F18581 		bmi	.L216
 433              	.L59:
 434 0092 B0F84430 		ldrh	r3, [r0, #68]
 435 0096 1B04     		lsls	r3, r3, #16
 436 0098 E2D5     		bpl	.L53
 437              	.L133:
 438 009a B0F84430 		ldrh	r3, [r0, #68]
 439 009e 13F00F04 		ands	r4, r3, #15
 440 00a2 99B2     		uxth	r1, r3
 441 00a4 E8D0     		beq	.L217
 442 00a6 30F82430 		ldrh	r3, [r0, r4, lsl #2]
 443 00aa 4FEA840A 		lsl	r10, r4, #2
 444 00ae 1904     		lsls	r1, r3, #16
 445 00b0 1FFA83F9 		uxth	r9, r3
 446 00b4 00F18D80 		bmi	.L218
 447              	.L72:
 448 00b8 19F0800F 		tst	r9, #128
 449 00bc E9D0     		beq	.L59
 450 00be 30F82430 		ldrh	r3, [r0, r4, lsl #2]
 451 00c2 0AEB0408 		add	r8, r10, r4
 452 00c6 9BB2     		uxth	r3, r3
 453 00c8 3340     		ands	r3, r3, r6
 454 00ca 43F40043 		orr	r3, r3, #32768
 455 00ce 20F82430 		strh	r3, [r0, r4, lsl #2]	@ movhi
 456 00d2 05EBC808 		add	r8, r5, r8, lsl #3
 457 00d6 98F82B30 		ldrb	r3, [r8, #43]	@ zero_extendqisi2
 458 00da 012B     		cmp	r3, #1
 459 00dc 00F0CB81 		beq	.L219
 460 00e0 98F82810 		ldrb	r1, [r8, #40]	@ zero_extendqisi2
 461 00e4 19F4807E 		ands	lr, r9, #256
 462 00e8 D8F84020 		ldr	r2, [r8, #64]
 463 00ec 00F5806C 		add	ip, r0, #1024
 464 00f0 4FEAC103 		lsl	r3, r1, #3
 465 00f4 40F0EE81 		bne	.L98
 466 00f8 B0F85090 		ldrh	r9, [r0, #80]
 467 00fc 1FFA89F9 		uxth	r9, r9
 468 0100 4B44     		add	r3, r3, r9
 469 0102 0233     		adds	r3, r3, #2
 470 0104 3CF813C0 		ldrh	ip, [ip, r3, lsl #1]
 471 0108 CCF3090C 		ubfx	ip, ip, #0, #10
 472 010c 9445     		cmp	ip, r2
 473 010e 80F0DA81 		bcs	.L99
 474 0112 631C     		adds	r3, r4, #1
 475 0114 03EB8303 		add	r3, r3, r3, lsl #2
 476 0118 05EBC301 		add	r1, r5, r3, lsl #3
 477 011c D8F83C30 		ldr	r3, [r8, #60]
 478 0120 A2EB0C02 		sub	r2, r2, ip
 479 0124 6344     		add	r3, r3, ip
 480 0126 C8F83C30 		str	r3, [r8, #60]
 481 012a D8F84430 		ldr	r3, [r8, #68]
 482 012e C8F84020 		str	r2, [r8, #64]
 483 0132 6344     		add	r3, r3, ip
 484 0134 C8F84430 		str	r3, [r8, #68]
 485 0138 FFF7FEFF 		bl	USB_EPStartXfer
ARM GAS  /var/folders/td/83895s255bq6rlxfmrv9fnww0000gn/T//cc0o8xXQ.s 			page 9


 486 013c 2868     		ldr	r0, [r5]
 487 013e A8E7     		b	.L59
 488              	.L212:
 489 0140 2968     		ldr	r1, [r5]
 490 0142 ADF10203 		sub	r3, sp, #2
 491 0146 0C46     		mov	r4, r1
 492 0148 1A46     		mov	r2, r3
 493 014a 0E46     		mov	r6, r1
 494 014c 0DF10E00 		add	r0, sp, #14
 495              	.L140:
 496 0150 36F8047B 		ldrh	r7, [r6], #4
 497 0154 22F8027F 		strh	r7, [r2, #2]!	@ movhi
 498 0158 9042     		cmp	r0, r2
 499 015a F9D1     		bne	.L140
 500 015c B1F84020 		ldrh	r2, [r1, #64]
 501 0160 92B2     		uxth	r2, r2
 502 0162 42F00102 		orr	r2, r2, #1
 503 0166 A1F84020 		strh	r2, [r1, #64]	@ movhi
 504 016a B1F84020 		ldrh	r2, [r1, #64]
 505 016e 22F00102 		bic	r2, r2, #1
 506 0172 1204     		lsls	r2, r2, #16
 507 0174 120C     		lsrs	r2, r2, #16
 508 0176 A1F84020 		strh	r2, [r1, #64]	@ movhi
 509              	.L141:
 510 017a B1F84420 		ldrh	r2, [r1, #68]
 511 017e 5605     		lsls	r6, r2, #21
 512 0180 FBD5     		bpl	.L141
 513 0182 B1F84420 		ldrh	r2, [r1, #68]
 514 0186 22F48062 		bic	r2, r2, #1024
 515 018a 1204     		lsls	r2, r2, #16
 516 018c 120C     		lsrs	r2, r2, #16
 517 018e A1F84420 		strh	r2, [r1, #68]	@ movhi
 518              	.L142:
 519 0192 33F8022F 		ldrh	r2, [r3, #2]!
 520 0196 9842     		cmp	r0, r3
 521 0198 24F8042B 		strh	r2, [r4], #4	@ movhi
 522 019c F9D1     		bne	.L142
 523 019e B1F84030 		ldrh	r3, [r1, #64]
 524 01a2 2846     		mov	r0, r5
 525 01a4 9BB2     		uxth	r3, r3
 526 01a6 43F00803 		orr	r3, r3, #8
 527 01aa A1F84030 		strh	r3, [r1, #64]	@ movhi
 528 01ae B1F84430 		ldrh	r3, [r1, #68]
 529 01b2 23F40063 		bic	r3, r3, #2048
 530 01b6 1B04     		lsls	r3, r3, #16
 531 01b8 1B0C     		lsrs	r3, r3, #16
 532 01ba A1F84430 		strh	r3, [r1, #68]	@ movhi
 533 01be B1F84030 		ldrh	r3, [r1, #64]
 534 01c2 9BB2     		uxth	r3, r3
 535 01c4 43F00403 		orr	r3, r3, #4
 536 01c8 A1F84030 		strh	r3, [r1, #64]	@ movhi
 537 01cc FFF7FEFF 		bl	HAL_PCD_SuspendCallback
 538 01d0 46E7     		b	.L53
 539              	.L218:
 540 01d2 30F82430 		ldrh	r3, [r0, r4, lsl #2]
 541 01d6 0AEB0401 		add	r1, r10, r4
 542 01da 3B40     		ands	r3, r3, r7
ARM GAS  /var/folders/td/83895s255bq6rlxfmrv9fnww0000gn/T//cc0o8xXQ.s 			page 10


 543 01dc 43F08003 		orr	r3, r3, #128
 544 01e0 20F82430 		strh	r3, [r0, r4, lsl #2]	@ movhi
 545 01e4 05EBC101 		add	r1, r5, r1, lsl #3
 546 01e8 91F87431 		ldrb	r3, [r1, #372]	@ zero_extendqisi2
 547 01ec 00F58062 		add	r2, r0, #1024
 548 01f0 002B     		cmp	r3, #0
 549 01f2 7ED1     		bne	.L73
 550 01f4 B0F85030 		ldrh	r3, [r0, #80]
 551 01f8 91F868C1 		ldrb	ip, [r1, #360]	@ zero_extendqisi2
 552 01fc 9BB2     		uxth	r3, r3
 553 01fe 0633     		adds	r3, r3, #6
 554 0200 03EBCC03 		add	r3, r3, ip, lsl #3
 555 0204 32F81380 		ldrh	r8, [r2, r3, lsl #1]
 556 0208 C8F30908 		ubfx	r8, r8, #0, #10
 557 020c B8F1000F 		cmp	r8, #0
 558 0210 40F01382 		bne	.L220
 559              	.L74:
 560 0214 4FF00008 		mov	r8, #0
 561              	.L75:
 562 0218 0AEB0402 		add	r2, r10, r4
 563 021c 05EBC203 		add	r3, r5, r2, lsl #3
 564 0220 D100     		lsls	r1, r2, #3
 565 0222 D3F88421 		ldr	r2, [r3, #388]
 566 0226 4244     		add	r2, r2, r8
 567 0228 C3F88421 		str	r2, [r3, #388]
 568 022c D3F87C21 		ldr	r2, [r3, #380]
 569 0230 4244     		add	r2, r2, r8
 570 0232 C3F87C21 		str	r2, [r3, #380]
 571 0236 D3F88021 		ldr	r2, [r3, #384]
 572 023a 22B1     		cbz	r2, .L91
 573 023c D3F87831 		ldr	r3, [r3, #376]
 574 0240 4345     		cmp	r3, r8
 575 0242 40F2C181 		bls	.L92
 576              	.L91:
 577 0246 0AEB0403 		add	r3, r10, r4
 578 024a 05EBC303 		add	r3, r5, r3, lsl #3
 579 024e 2846     		mov	r0, r5
 580 0250 93F86811 		ldrb	r1, [r3, #360]	@ zero_extendqisi2
 581 0254 FFF7FEFF 		bl	HAL_PCD_DataOutStageCallback
 582 0258 2868     		ldr	r0, [r5]
 583 025a 2DE7     		b	.L72
 584              	.L214:
 585 025c 0388     		ldrh	r3, [r0]
 586 025e 9BB2     		uxth	r3, r3
 587 0260 3340     		ands	r3, r3, r6
 588 0262 43F40043 		orr	r3, r3, #32768
 589 0266 0380     		strh	r3, [r0]	@ movhi
 590 0268 B0F85030 		ldrh	r3, [r0, #80]
 591 026c 95F82820 		ldrb	r2, [r5, #40]	@ zero_extendqisi2
 592 0270 9BB2     		uxth	r3, r3
 593 0272 03EBC203 		add	r3, r3, r2, lsl #3
 594 0276 00EB4303 		add	r3, r0, r3, lsl #1
 595 027a B3F80434 		ldrh	r3, [r3, #1028]
 596 027e EA6B     		ldr	r2, [r5, #60]
 597 0280 C3F30903 		ubfx	r3, r3, #0, #10
 598 0284 1A44     		add	r2, r2, r3
 599 0286 6B64     		str	r3, [r5, #68]
ARM GAS  /var/folders/td/83895s255bq6rlxfmrv9fnww0000gn/T//cc0o8xXQ.s 			page 11


 600 0288 2846     		mov	r0, r5
 601 028a EA63     		str	r2, [r5, #60]
 602 028c FFF7FEFF 		bl	HAL_PCD_DataInStageCallback
 603 0290 95F82430 		ldrb	r3, [r5, #36]	@ zero_extendqisi2
 604 0294 5BB3     		cbz	r3, .L206
 605 0296 2B6C     		ldr	r3, [r5, #64]
 606 0298 2868     		ldr	r0, [r5]
 607 029a 002B     		cmp	r3, #0
 608 029c 7FF4F9AE 		bne	.L59
 609 02a0 95F82420 		ldrb	r2, [r5, #36]	@ zero_extendqisi2
 610 02a4 42F08002 		orr	r2, r2, #128
 611 02a8 A0F84C20 		strh	r2, [r0, #76]	@ movhi
 612 02ac 85F82430 		strb	r3, [r5, #36]
 613 02b0 EFE6     		b	.L59
 614              	.L215:
 615 02b2 B0F85030 		ldrh	r3, [r0, #80]
 616 02b6 95F86821 		ldrb	r2, [r5, #360]	@ zero_extendqisi2
 617 02ba 9BB2     		uxth	r3, r3
 618 02bc 03EBC203 		add	r3, r3, r2, lsl #3
 619 02c0 00EB4303 		add	r3, r0, r3, lsl #1
 620 02c4 B3F80C34 		ldrh	r3, [r3, #1036]
 621 02c8 B5F86E21 		ldrh	r2, [r5, #366]
 622 02cc C3F30903 		ubfx	r3, r3, #0, #10
 623 02d0 C5F88431 		str	r3, [r5, #388]
 624 02d4 05F52C71 		add	r1, r5, #688
 625 02d8 FFF7FEFF 		bl	USB_ReadPMA
 626 02dc 2A68     		ldr	r2, [r5]
 627 02de 2846     		mov	r0, r5
 628 02e0 1388     		ldrh	r3, [r2]
 629 02e2 3B40     		ands	r3, r3, r7
 630 02e4 43F08003 		orr	r3, r3, #128
 631 02e8 1380     		strh	r3, [r2]	@ movhi
 632 02ea FFF7FEFF 		bl	HAL_PCD_SetupStageCallback
 633              	.L206:
 634 02ee 2868     		ldr	r0, [r5]
 635 02f0 CFE6     		b	.L59
 636              	.L73:
 637 02f2 91F86B31 		ldrb	r3, [r1, #363]	@ zero_extendqisi2
 638 02f6 91F868C1 		ldrb	ip, [r1, #360]	@ zero_extendqisi2
 639 02fa 022B     		cmp	r3, #2
 640 02fc 00F0EA81 		beq	.L221
 641 0300 30F82C30 		ldrh	r3, [r0, ip, lsl #2]
 642 0304 23F4E043 		bic	r3, r3, #28672
 643 0308 23F07003 		bic	r3, r3, #112
 644 030c 1B04     		lsls	r3, r3, #16
 645 030e 1B0C     		lsrs	r3, r3, #16
 646 0310 43F40043 		orr	r3, r3, #32768
 647 0314 43F0C003 		orr	r3, r3, #192
 648 0318 20F82C30 		strh	r3, [r0, ip, lsl #2]	@ movhi
 649 031c 91F868C1 		ldrb	ip, [r1, #360]	@ zero_extendqisi2
 650 0320 30F82C30 		ldrh	r3, [r0, ip, lsl #2]
 651 0324 13F4804F 		tst	r3, #16384
 652 0328 B0F85030 		ldrh	r3, [r0, #80]
 653 032c 9BB2     		uxth	r3, r3
 654 032e 00F05381 		beq	.L89
 655 0332 0233     		adds	r3, r3, #2
 656 0334 03EBCC03 		add	r3, r3, ip, lsl #3
ARM GAS  /var/folders/td/83895s255bq6rlxfmrv9fnww0000gn/T//cc0o8xXQ.s 			page 12


 657 0338 32F81380 		ldrh	r8, [r2, r3, lsl #1]
 658 033c C8F30908 		ubfx	r8, r8, #0, #10
 659 0340 B8F1000F 		cmp	r8, #0
 660 0344 3FF466AF 		beq	.L74
 661 0348 B1F87021 		ldrh	r2, [r1, #368]
 662 034c 4346     		mov	r3, r8
 663 034e D1F87C11 		ldr	r1, [r1, #380]
 664 0352 FFF7FEFF 		bl	USB_ReadPMA
 665 0356 5FE7     		b	.L75
 666              	.L208:
 667 0358 2A68     		ldr	r2, [r5]
 668 035a 2846     		mov	r0, r5
 669 035c B2F84430 		ldrh	r3, [r2, #68]
 670 0360 23F48063 		bic	r3, r3, #1024
 671 0364 1B04     		lsls	r3, r3, #16
 672 0366 1B0C     		lsrs	r3, r3, #16
 673 0368 A2F84430 		strh	r3, [r2, #68]	@ movhi
 674 036c FFF7FEFF 		bl	HAL_PCD_ResetCallback
 675 0370 95F8A832 		ldrb	r3, [r5, #680]	@ zero_extendqisi2
 676 0374 012B     		cmp	r3, #1
 677 0376 3FF473AE 		beq	.L53
 678 037a 0123     		movs	r3, #1
 679 037c 2146     		mov	r1, r4
 680 037e 2868     		ldr	r0, [r5]
 681 0380 85F82440 		strb	r4, [r5, #36]
 682 0384 85F8A832 		strb	r3, [r5, #680]
 683 0388 FFF7FEFF 		bl	USB_SetDevAddress
 684 038c 85F8A842 		strb	r4, [r5, #680]
 685 0390 05B0     		add	sp, sp, #20
 686              		@ sp needed
 687 0392 BDE8F08F 		pop	{r4, r5, r6, r7, r8, r9, r10, fp, pc}
 688              	.L226:
 689 0396 00BF     		.align	2
 690              	.L225:
 691 0398 0F8FFFFF 		.word	-28913
 692              	.L216:
 693 039c 40F68F73 		movw	r3, #3983
 694 03a0 0288     		ldrh	r2, [r0]
 695 03a2 1340     		ands	r3, r3, r2
 696 03a4 43F08003 		orr	r3, r3, #128
 697 03a8 0380     		strh	r3, [r0]	@ movhi
 698 03aa B0F85030 		ldrh	r3, [r0, #80]
 699 03ae 95F86821 		ldrb	r2, [r5, #360]	@ zero_extendqisi2
 700 03b2 9BB2     		uxth	r3, r3
 701 03b4 03EBC203 		add	r3, r3, r2, lsl #3
 702 03b8 00EB4303 		add	r3, r0, r3, lsl #1
 703 03bc B3F80C34 		ldrh	r3, [r3, #1036]
 704 03c0 C3F30903 		ubfx	r3, r3, #0, #10
 705 03c4 C5F88431 		str	r3, [r5, #388]
 706 03c8 93B1     		cbz	r3, .L64
 707 03ca D5F87C11 		ldr	r1, [r5, #380]
 708 03ce 79B1     		cbz	r1, .L64
 709 03d0 B5F86E21 		ldrh	r2, [r5, #366]
 710 03d4 FFF7FEFF 		bl	USB_ReadPMA
 711 03d8 D5F87C31 		ldr	r3, [r5, #380]
 712 03dc D5F88421 		ldr	r2, [r5, #388]
 713 03e0 2846     		mov	r0, r5
ARM GAS  /var/folders/td/83895s255bq6rlxfmrv9fnww0000gn/T//cc0o8xXQ.s 			page 13


 714 03e2 1344     		add	r3, r3, r2
 715 03e4 2146     		mov	r1, r4
 716 03e6 C5F87C31 		str	r3, [r5, #380]
 717 03ea FFF7FEFF 		bl	HAL_PCD_DataOutStageCallback
 718 03ee 2868     		ldr	r0, [r5]
 719              	.L64:
 720 03f0 0388     		ldrh	r3, [r0]
 721 03f2 1905     		lsls	r1, r3, #20
 722 03f4 9AB2     		uxth	r2, r3
 723 03f6 3FF54CAE 		bmi	.L59
 724 03fa 02F44052 		and	r2, r2, #12288
 725 03fe B2F5405F 		cmp	r2, #12288
 726 0402 3FF446AE 		beq	.L59
 727 0406 B0F85030 		ldrh	r3, [r0, #80]
 728 040a 00F20C41 		addw	r1, r0, #1036
 729 040e 9BB2     		uxth	r3, r3
 730 0410 CA5A     		ldrh	r2, [r1, r3]
 731 0412 C2F30902 		ubfx	r2, r2, #0, #10
 732 0416 CA52     		strh	r2, [r1, r3]	@ movhi
 733 0418 D5F87821 		ldr	r2, [r5, #376]
 734 041c 3E2A     		cmp	r2, #62
 735 041e 40F2AF81 		bls	.L67
 736 0422 5409     		lsrs	r4, r2, #5
 737 0424 D206     		lsls	r2, r2, #27
 738 0426 CA5A     		ldrh	r2, [r1, r3]
 739 0428 08BF     		it	eq
 740 042a 04F1FF34 		addeq	r4, r4, #-1
 741 042e 92B2     		uxth	r2, r2
 742 0430 42EA8422 		orr	r2, r2, r4, lsl #10
 743 0434 6FEA4242 		mvn	r2, r2, lsl #17
 744 0438 6FEA5242 		mvn	r2, r2, lsr #17
 745 043c 92B2     		uxth	r2, r2
 746 043e CA52     		strh	r2, [r1, r3]	@ movhi
 747              	.L69:
 748 0440 0388     		ldrh	r3, [r0]
 749 0442 23F48043 		bic	r3, r3, #16384
 750 0446 23F07003 		bic	r3, r3, #112
 751 044a 1B04     		lsls	r3, r3, #16
 752 044c 1B0C     		lsrs	r3, r3, #16
 753 044e 83F44053 		eor	r3, r3, #12288
 754 0452 43F40043 		orr	r3, r3, #32768
 755 0456 43F08003 		orr	r3, r3, #128
 756 045a 0380     		strh	r3, [r0]	@ movhi
 757 045c 19E6     		b	.L59
 758              	.L210:
 759 045e 2A68     		ldr	r2, [r5]
 760 0460 B2F84430 		ldrh	r3, [r2, #68]
 761 0464 23F40053 		bic	r3, r3, #8192
 762 0468 1B04     		lsls	r3, r3, #16
 763 046a 1B0C     		lsrs	r3, r3, #16
 764 046c A2F84430 		strh	r3, [r2, #68]	@ movhi
 765 0470 05B0     		add	sp, sp, #20
 766              		@ sp needed
 767 0472 BDE8F08F 		pop	{r4, r5, r6, r7, r8, r9, r10, fp, pc}
 768              	.L219:
 769 0476 0023     		movs	r3, #0
 770 0478 98F83420 		ldrb	r2, [r8, #52]	@ zero_extendqisi2
ARM GAS  /var/folders/td/83895s255bq6rlxfmrv9fnww0000gn/T//cc0o8xXQ.s 			page 14


 771 047c C8F84030 		str	r3, [r8, #64]
 772 0480 D2B1     		cbz	r2, .L94
 773 0482 19F04009 		ands	r9, r9, #64
 774 0486 40F01B81 		bne	.L222
 775 048a 98F82930 		ldrb	r3, [r8, #41]	@ zero_extendqisi2
 776 048e 002B     		cmp	r3, #0
 777 0490 40F0F781 		bne	.L97
 778 0494 B0F85020 		ldrh	r2, [r0, #80]
 779 0498 00F20C43 		addw	r3, r0, #1036
 780              	.L205:
 781 049c 92B2     		uxth	r2, r2
 782 049e 1344     		add	r3, r3, r2
 783 04a0 98F82820 		ldrb	r2, [r8, #40]	@ zero_extendqisi2
 784 04a4 1201     		lsls	r2, r2, #4
 785 04a6 D15A     		ldrh	r1, [r2, r3]
 786 04a8 C1F30901 		ubfx	r1, r1, #0, #10
 787 04ac D152     		strh	r1, [r2, r3]	@ movhi
 788 04ae D15A     		ldrh	r1, [r2, r3]
 789 04b0 89B2     		uxth	r1, r1
 790 04b2 41F40041 		orr	r1, r1, #32768
 791 04b6 D152     		strh	r1, [r2, r3]	@ movhi
 792              	.L94:
 793 04b8 2846     		mov	r0, r5
 794 04ba 98F82810 		ldrb	r1, [r8, #40]	@ zero_extendqisi2
 795 04be FFF7FEFF 		bl	HAL_PCD_DataInStageCallback
 796 04c2 2868     		ldr	r0, [r5]
 797 04c4 E5E5     		b	.L59
 798              	.L99:
 799 04c6 2846     		mov	r0, r5
 800 04c8 C8F840E0 		str	lr, [r8, #64]
 801 04cc FFF7FEFF 		bl	HAL_PCD_DataInStageCallback
 802 04d0 2868     		ldr	r0, [r5]
 803 04d2 DEE5     		b	.L59
 804              	.L98:
 805 04d4 B0F850E0 		ldrh	lr, [r0, #80]
 806 04d8 09F4804B 		and	fp, r9, #16384
 807 04dc 1FFA8EFE 		uxth	lr, lr
 808 04e0 19F04009 		ands	r9, r9, #64
 809 04e4 7344     		add	r3, r3, lr
 810 04e6 00F0B080 		beq	.L100
 811 04ea 0233     		adds	r3, r3, #2
 812 04ec 3CF81330 		ldrh	r3, [ip, r3, lsl #1]
 813 04f0 C3F30903 		ubfx	r3, r3, #0, #10
 814 04f4 9342     		cmp	r3, r2
 815 04f6 80F09581 		bcs	.L101
 816 04fa D21A     		subs	r2, r2, r3
 817 04fc C8F84020 		str	r2, [r8, #64]
 818 0500 BBF1000F 		cmp	fp, #0
 819 0504 0DD0     		beq	.L103
 820 0506 30F82120 		ldrh	r2, [r0, r1, lsl #2]
 821 050a 22F4E042 		bic	r2, r2, #28672
 822 050e 22F07002 		bic	r2, r2, #112
 823 0512 1204     		lsls	r2, r2, #16
 824 0514 120C     		lsrs	r2, r2, #16
 825 0516 42F44042 		orr	r2, r2, #49152
 826 051a 42F08002 		orr	r2, r2, #128
 827 051e 20F82120 		strh	r2, [r0, r1, lsl #2]	@ movhi
ARM GAS  /var/folders/td/83895s255bq6rlxfmrv9fnww0000gn/T//cc0o8xXQ.s 			page 15


 828              	.L103:
 829 0522 0AEB040C 		add	ip, r10, r4
 830 0526 05EBCC0C 		add	ip, r5, ip, lsl #3
 831 052a 9CF84C20 		ldrb	r2, [ip, #76]	@ zero_extendqisi2
 832 052e 012A     		cmp	r2, #1
 833 0530 40F0B380 		bne	.L106
 834 0534 DCF83C20 		ldr	r2, [ip, #60]
 835 0538 DCF84890 		ldr	r9, [ip, #72]
 836 053c 02EB030E 		add	lr, r2, r3
 837 0540 DCF84420 		ldr	r2, [ip, #68]
 838 0544 CCF83CE0 		str	lr, [ip, #60]
 839 0548 1A44     		add	r2, r2, r3
 840 054a CCF84420 		str	r2, [ip, #68]
 841 054e DCF83820 		ldr	r2, [ip, #56]
 842 0552 9145     		cmp	r9, r2
 843 0554 C0F08282 		bcc	.L108
 844 0558 A9EB0203 		sub	r3, r9, r2
 845 055c CCF84830 		str	r3, [ip, #72]
 846 0560 93B2     		uxth	r3, r2
 847              	.L109:
 848 0562 98F829C0 		ldrb	ip, [r8, #41]	@ zero_extendqisi2
 849 0566 BCF1000F 		cmp	ip, #0
 850 056a 40F06982 		bne	.L111
 851 056e B0F85090 		ldrh	r9, [r0, #80]
 852 0572 00F2044C 		addw	ip, r0, #1028
 853 0576 1FFA89F9 		uxth	r9, r9
 854 057a 0901     		lsls	r1, r1, #4
 855 057c CC44     		add	ip, ip, r9
 856 057e 3CF80190 		ldrh	r9, [ip, r1]
 857 0582 3E2A     		cmp	r2, #62
 858 0584 C9F30909 		ubfx	r9, r9, #0, #10
 859 0588 2CF80190 		strh	r9, [ip, r1]	@ movhi
 860 058c 40F29582 		bls	.L112
 861 0590 4FEA5219 		lsr	r9, r2, #5
 862 0594 D206     		lsls	r2, r2, #27
 863 0596 3CF80120 		ldrh	r2, [ip, r1]
 864 059a 08BF     		it	eq
 865 059c 09F1FF39 		addeq	r9, r9, #-1
 866 05a0 92B2     		uxth	r2, r2
 867 05a2 42EA8922 		orr	r2, r2, r9, lsl #10
 868 05a6 6FEA4242 		mvn	r2, r2, lsl #17
 869 05aa 6FEA5242 		mvn	r2, r2, lsr #17
 870 05ae 92B2     		uxth	r2, r2
 871 05b0 2CF80120 		strh	r2, [ip, r1]	@ movhi
 872              	.L114:
 873 05b4 0AEB0402 		add	r2, r10, r4
 874 05b8 05EBC202 		add	r2, r5, r2, lsl #3
 875 05bc 7146     		mov	r1, lr
 876 05be 128E     		ldrh	r2, [r2, #48]
 877 05c0 FFF7FEFF 		bl	USB_WritePMA
 878 05c4 2868     		ldr	r0, [r5]
 879 05c6 68E0     		b	.L106
 880              	.L92:
 881 05c8 01F5B471 		add	r1, r1, #360
 882 05cc 2868     		ldr	r0, [r5]
 883 05ce 2944     		add	r1, r1, r5
 884 05d0 FFF7FEFF 		bl	USB_EPStartXfer
ARM GAS  /var/folders/td/83895s255bq6rlxfmrv9fnww0000gn/T//cc0o8xXQ.s 			page 16


 885 05d4 2868     		ldr	r0, [r5]
 886 05d6 6FE5     		b	.L72
 887              	.L89:
 888 05d8 0633     		adds	r3, r3, #6
 889 05da 03EBCC03 		add	r3, r3, ip, lsl #3
 890 05de 32F81380 		ldrh	r8, [r2, r3, lsl #1]
 891 05e2 C8F30908 		ubfx	r8, r8, #0, #10
 892 05e6 B8F1000F 		cmp	r8, #0
 893 05ea 3FF413AE 		beq	.L74
 894 05ee B1F87221 		ldrh	r2, [r1, #370]
 895 05f2 4346     		mov	r3, r8
 896 05f4 D1F87C11 		ldr	r1, [r1, #380]
 897 05f8 FFF7FEFF 		bl	USB_ReadPMA
 898 05fc 0CE6     		b	.L75
 899              	.L211:
 900 05fe 2A68     		ldr	r2, [r5]
 901 0600 2846     		mov	r0, r5
 902 0602 B2F84030 		ldrh	r3, [r2, #64]
 903 0606 23F00403 		bic	r3, r3, #4
 904 060a 1B04     		lsls	r3, r3, #16
 905 060c 1B0C     		lsrs	r3, r3, #16
 906 060e A2F84030 		strh	r3, [r2, #64]	@ movhi
 907 0612 B2F84030 		ldrh	r3, [r2, #64]
 908 0616 23F00803 		bic	r3, r3, #8
 909 061a 1B04     		lsls	r3, r3, #16
 910 061c 1B0C     		lsrs	r3, r3, #16
 911 061e A2F84030 		strh	r3, [r2, #64]	@ movhi
 912 0622 FFF7FEFF 		bl	HAL_PCD_ResumeCallback
 913 0626 2A68     		ldr	r2, [r5]
 914 0628 B2F84430 		ldrh	r3, [r2, #68]
 915 062c 23F48053 		bic	r3, r3, #4096
 916 0630 1B04     		lsls	r3, r3, #16
 917 0632 1B0C     		lsrs	r3, r3, #16
 918 0634 A2F84430 		strh	r3, [r2, #68]	@ movhi
 919 0638 12E5     		b	.L53
 920              	.L220:
 921 063a B1F86E21 		ldrh	r2, [r1, #366]
 922 063e 4346     		mov	r3, r8
 923 0640 D1F87C11 		ldr	r1, [r1, #380]
 924 0644 FFF7FEFF 		bl	USB_ReadPMA
 925 0648 E6E5     		b	.L75
 926              	.L100:
 927 064a 0633     		adds	r3, r3, #6
 928 064c 3CF81330 		ldrh	r3, [ip, r3, lsl #1]
 929 0650 C3F30903 		ubfx	r3, r3, #0, #10
 930 0654 9342     		cmp	r3, r2
 931 0656 00F29E80 		bhi	.L117
 932 065a D21A     		subs	r2, r2, r3
 933 065c C8F84020 		str	r2, [r8, #64]
 934 0660 002A     		cmp	r2, #0
 935 0662 00F09A80 		beq	.L146
 936 0666 BBF1000F 		cmp	fp, #0
 937 066a 0DD1     		bne	.L122
 938 066c 30F82120 		ldrh	r2, [r0, r1, lsl #2]
 939 0670 22F4E042 		bic	r2, r2, #28672
 940 0674 22F07002 		bic	r2, r2, #112
 941 0678 1204     		lsls	r2, r2, #16
ARM GAS  /var/folders/td/83895s255bq6rlxfmrv9fnww0000gn/T//cc0o8xXQ.s 			page 17


 942 067a 120C     		lsrs	r2, r2, #16
 943 067c 42F44042 		orr	r2, r2, #49152
 944 0680 42F08002 		orr	r2, r2, #128
 945 0684 20F82120 		strh	r2, [r0, r1, lsl #2]	@ movhi
 946              	.L122:
 947 0688 0AEB040E 		add	lr, r10, r4
 948 068c 05EBCE0E 		add	lr, r5, lr, lsl #3
 949 0690 9EF84C20 		ldrb	r2, [lr, #76]	@ zero_extendqisi2
 950 0694 012A     		cmp	r2, #1
 951 0696 00F08C81 		beq	.L223
 952              	.L106:
 953 069a 98F82820 		ldrb	r2, [r8, #40]	@ zero_extendqisi2
 954 069e 30F82230 		ldrh	r3, [r0, r2, lsl #2]
 955 06a2 23F4E043 		bic	r3, r3, #28672
 956 06a6 23F04003 		bic	r3, r3, #64
 957 06aa 1B04     		lsls	r3, r3, #16
 958 06ac 1B0C     		lsrs	r3, r3, #16
 959 06ae 83F03003 		eor	r3, r3, #48
 960 06b2 43F40043 		orr	r3, r3, #32768
 961 06b6 43F08003 		orr	r3, r3, #128
 962 06ba 20F82230 		strh	r3, [r0, r2, lsl #2]	@ movhi
 963 06be E8E4     		b	.L59
 964              	.L222:
 965 06c0 98F82920 		ldrb	r2, [r8, #41]	@ zero_extendqisi2
 966 06c4 002A     		cmp	r2, #0
 967 06c6 40F0EB80 		bne	.L96
 968 06ca B0F85020 		ldrh	r2, [r0, #80]
 969 06ce 00F20443 		addw	r3, r0, #1028
 970 06d2 E3E6     		b	.L205
 971              	.L221:
 972 06d4 B0F85030 		ldrh	r3, [r0, #80]
 973 06d8 4FEACC08 		lsl	r8, ip, #3
 974 06dc 9BB2     		uxth	r3, r3
 975 06de 19F4804B 		ands	fp, r9, #16384
 976 06e2 D1F880E1 		ldr	lr, [r1, #384]
 977 06e6 4344     		add	r3, r3, r8
 978 06e8 00F0E880 		beq	.L77
 979 06ec 0233     		adds	r3, r3, #2
 980 06ee 32F81330 		ldrh	r3, [r2, r3, lsl #1]
 981 06f2 C3F30903 		ubfx	r3, r3, #0, #10
 982 06f6 7345     		cmp	r3, lr
 983 06f8 9846     		mov	r8, r3
 984 06fa 00F25681 		bhi	.L78
 985 06fe AEEB0302 		sub	r2, lr, r3
 986 0702 C1F88021 		str	r2, [r1, #384]
 987 0706 7AB9     		cbnz	r2, .L80
 988              	.L79:
 989 0708 30F82C20 		ldrh	r2, [r0, ip, lsl #2]
 990 070c 22F48042 		bic	r2, r2, #16384
 991 0710 22F07002 		bic	r2, r2, #112
 992 0714 1204     		lsls	r2, r2, #16
 993 0716 120C     		lsrs	r2, r2, #16
 994 0718 82F40052 		eor	r2, r2, #8192
 995 071c 42F40042 		orr	r2, r2, #32768
 996 0720 42F08002 		orr	r2, r2, #128
 997 0724 20F82C20 		strh	r2, [r0, ip, lsl #2]	@ movhi
 998              	.L80:
ARM GAS  /var/folders/td/83895s255bq6rlxfmrv9fnww0000gn/T//cc0o8xXQ.s 			page 18


 999 0728 19F0400F 		tst	r9, #64
 1000 072c 0DD0     		beq	.L81
 1001 072e 30F82C20 		ldrh	r2, [r0, ip, lsl #2]
 1002 0732 22F4E042 		bic	r2, r2, #28672
 1003 0736 22F07002 		bic	r2, r2, #112
 1004 073a 1204     		lsls	r2, r2, #16
 1005 073c 120C     		lsrs	r2, r2, #16
 1006 073e 42F40042 		orr	r2, r2, #32768
 1007 0742 42F0C002 		orr	r2, r2, #192
 1008 0746 20F82C20 		strh	r2, [r0, ip, lsl #2]	@ movhi
 1009              	.L81:
 1010 074a 002B     		cmp	r3, #0
 1011 074c 3FF464AD 		beq	.L75
 1012 0750 0AEB0401 		add	r1, r10, r4
 1013 0754 05EBC101 		add	r1, r5, r1, lsl #3
 1014 0758 B1F87021 		ldrh	r2, [r1, #368]
 1015 075c D1F87C11 		ldr	r1, [r1, #380]
 1016 0760 FFF7FEFF 		bl	USB_ReadPMA
 1017 0764 58E5     		b	.L75
 1018              	.L213:
 1019 0766 2A68     		ldr	r2, [r5]
 1020 0768 2846     		mov	r0, r5
 1021 076a B2F84430 		ldrh	r3, [r2, #68]
 1022 076e 23F40073 		bic	r3, r3, #512
 1023 0772 1B04     		lsls	r3, r3, #16
 1024 0774 1B0C     		lsrs	r3, r3, #16
 1025 0776 A2F84430 		strh	r3, [r2, #68]	@ movhi
 1026 077a FFF7FEFF 		bl	HAL_PCD_SOFCallback
 1027 077e 6FE4     		b	.L53
 1028              	.L67:
 1029 0780 002A     		cmp	r2, #0
 1030 0782 40F0D780 		bne	.L70
 1031 0786 CA5A     		ldrh	r2, [r1, r3]
 1032 0788 6FEA4242 		mvn	r2, r2, lsl #17
 1033 078c 6FEA5242 		mvn	r2, r2, lsr #17
 1034 0790 92B2     		uxth	r2, r2
 1035 0792 CA52     		strh	r2, [r1, r3]	@ movhi
 1036 0794 54E6     		b	.L69
 1037              	.L117:
 1038 0796 C8F84090 		str	r9, [r8, #64]
 1039              	.L146:
 1040 079a 98F82930 		ldrb	r3, [r8, #41]	@ zero_extendqisi2
 1041 079e 002B     		cmp	r3, #0
 1042 07a0 40F0D380 		bne	.L119
 1043 07a4 B0F85030 		ldrh	r3, [r0, #80]
 1044 07a8 00F2044C 		addw	ip, r0, #1028
 1045 07ac 9BB2     		uxth	r3, r3
 1046 07ae 9C44     		add	ip, ip, r3
 1047 07b0 0B01     		lsls	r3, r1, #4
 1048 07b2 3CF80320 		ldrh	r2, [ip, r3]
 1049 07b6 00F20C44 		addw	r4, r0, #1036
 1050 07ba C2F30902 		ubfx	r2, r2, #0, #10
 1051 07be 2CF80320 		strh	r2, [ip, r3]	@ movhi
 1052 07c2 3CF80320 		ldrh	r2, [ip, r3]
 1053 07c6 6FEA4242 		mvn	r2, r2, lsl #17
 1054 07ca 6FEA5242 		mvn	r2, r2, lsr #17
 1055 07ce 92B2     		uxth	r2, r2
ARM GAS  /var/folders/td/83895s255bq6rlxfmrv9fnww0000gn/T//cc0o8xXQ.s 			page 19


 1056 07d0 2CF80320 		strh	r2, [ip, r3]	@ movhi
 1057 07d4 B0F85020 		ldrh	r2, [r0, #80]
 1058 07d8 92B2     		uxth	r2, r2
 1059 07da A018     		adds	r0, r4, r2
 1060 07dc C25A     		ldrh	r2, [r0, r3]
 1061 07de C2F30902 		ubfx	r2, r2, #0, #10
 1062 07e2 C252     		strh	r2, [r0, r3]	@ movhi
 1063 07e4 C25A     		ldrh	r2, [r0, r3]
 1064 07e6 6FEA4242 		mvn	r2, r2, lsl #17
 1065 07ea 6FEA5242 		mvn	r2, r2, lsr #17
 1066 07ee 92B2     		uxth	r2, r2
 1067 07f0 C252     		strh	r2, [r0, r3]	@ movhi
 1068              	.L120:
 1069 07f2 2846     		mov	r0, r5
 1070 07f4 FFF7FEFF 		bl	HAL_PCD_DataInStageCallback
 1071 07f8 2868     		ldr	r0, [r5]
 1072 07fa BBF1000F 		cmp	fp, #0
 1073 07fe 7FF44CAF 		bne	.L106
 1074              	.L121:
 1075 0802 98F82820 		ldrb	r2, [r8, #40]	@ zero_extendqisi2
 1076 0806 30F82230 		ldrh	r3, [r0, r2, lsl #2]
 1077 080a 23F4E043 		bic	r3, r3, #28672
 1078 080e 23F07003 		bic	r3, r3, #112
 1079 0812 1B04     		lsls	r3, r3, #16
 1080 0814 1B0C     		lsrs	r3, r3, #16
 1081 0816 43F44043 		orr	r3, r3, #49152
 1082 081a 43F08003 		orr	r3, r3, #128
 1083 081e 20F82230 		strh	r3, [r0, r2, lsl #2]	@ movhi
 1084 0822 3AE7     		b	.L106
 1085              	.L101:
 1086 0824 0022     		movs	r2, #0
 1087 0826 98F82930 		ldrb	r3, [r8, #41]	@ zero_extendqisi2
 1088 082a C8F84020 		str	r2, [r8, #64]
 1089 082e 002B     		cmp	r3, #0
 1090 0830 40F0A280 		bne	.L224
 1091 0834 B0F85030 		ldrh	r3, [r0, #80]
 1092 0838 00F20442 		addw	r2, r0, #1028
 1093 083c 9BB2     		uxth	r3, r3
 1094 083e 1A44     		add	r2, r2, r3
 1095 0840 0B01     		lsls	r3, r1, #4
 1096 0842 D45A     		ldrh	r4, [r2, r3]
 1097 0844 C4F30904 		ubfx	r4, r4, #0, #10
 1098 0848 D452     		strh	r4, [r2, r3]	@ movhi
 1099 084a D45A     		ldrh	r4, [r2, r3]
 1100 084c A4B2     		uxth	r4, r4
 1101 084e 44F40044 		orr	r4, r4, #32768
 1102 0852 D452     		strh	r4, [r2, r3]	@ movhi
 1103 0854 B0F85040 		ldrh	r4, [r0, #80]
 1104 0858 00F20C42 		addw	r2, r0, #1036
 1105 085c A4B2     		uxth	r4, r4
 1106 085e 2244     		add	r2, r2, r4
 1107 0860 D05A     		ldrh	r0, [r2, r3]
 1108 0862 C0F30900 		ubfx	r0, r0, #0, #10
 1109 0866 D052     		strh	r0, [r2, r3]	@ movhi
 1110 0868 D05A     		ldrh	r0, [r2, r3]
 1111 086a 80B2     		uxth	r0, r0
 1112 086c 40F40040 		orr	r0, r0, #32768
ARM GAS  /var/folders/td/83895s255bq6rlxfmrv9fnww0000gn/T//cc0o8xXQ.s 			page 20


 1113 0870 D052     		strh	r0, [r2, r3]	@ movhi
 1114              	.L104:
 1115 0872 2846     		mov	r0, r5
 1116 0874 FFF7FEFF 		bl	HAL_PCD_DataInStageCallback
 1117 0878 2868     		ldr	r0, [r5]
 1118 087a BBF1000F 		cmp	fp, #0
 1119 087e C0D1     		bne	.L121
 1120 0880 0BE7     		b	.L106
 1121              	.L97:
 1122 0882 012B     		cmp	r3, #1
 1123 0884 7FF418AE 		bne	.L94
 1124 0888 B0F85020 		ldrh	r2, [r0, #80]
 1125 088c 00F20C43 		addw	r3, r0, #1036
 1126 0890 92B2     		uxth	r2, r2
 1127 0892 1344     		add	r3, r3, r2
 1128 0894 98F82820 		ldrb	r2, [r8, #40]	@ zero_extendqisi2
 1129 0898 1201     		lsls	r2, r2, #4
 1130 089a 22F80390 		strh	r9, [r2, r3]	@ movhi
 1131 089e 0BE6     		b	.L94
 1132              	.L96:
 1133 08a0 012A     		cmp	r2, #1
 1134 08a2 7FF409AE 		bne	.L94
 1135 08a6 B0F85020 		ldrh	r2, [r0, #80]
 1136 08aa 00F20441 		addw	r1, r0, #1028
 1137 08ae 92B2     		uxth	r2, r2
 1138 08b0 1144     		add	r1, r1, r2
 1139 08b2 98F82820 		ldrb	r2, [r8, #40]	@ zero_extendqisi2
 1140 08b6 1201     		lsls	r2, r2, #4
 1141 08b8 8B52     		strh	r3, [r1, r2]	@ movhi
 1142 08ba FDE5     		b	.L94
 1143              	.L77:
 1144 08bc 0633     		adds	r3, r3, #6
 1145 08be 32F81330 		ldrh	r3, [r2, r3, lsl #1]
 1146 08c2 C3F30903 		ubfx	r3, r3, #0, #10
 1147 08c6 7345     		cmp	r3, lr
 1148 08c8 9846     		mov	r8, r3
 1149 08ca 6BD8     		bhi	.L83
 1150 08cc AEEB0302 		sub	r2, lr, r3
 1151 08d0 C1F88021 		str	r2, [r1, #384]
 1152 08d4 7AB9     		cbnz	r2, .L85
 1153              	.L84:
 1154 08d6 30F82C20 		ldrh	r2, [r0, ip, lsl #2]
 1155 08da 22F48042 		bic	r2, r2, #16384
 1156 08de 22F07002 		bic	r2, r2, #112
 1157 08e2 1204     		lsls	r2, r2, #16
 1158 08e4 120C     		lsrs	r2, r2, #16
 1159 08e6 82F40052 		eor	r2, r2, #8192
 1160 08ea 42F40042 		orr	r2, r2, #32768
 1161 08ee 42F08002 		orr	r2, r2, #128
 1162 08f2 20F82C20 		strh	r2, [r0, ip, lsl #2]	@ movhi
 1163              	.L85:
 1164 08f6 19F0400F 		tst	r9, #64
 1165 08fa 0DD1     		bne	.L86
 1166 08fc 30F82C20 		ldrh	r2, [r0, ip, lsl #2]
 1167 0900 22F4E042 		bic	r2, r2, #28672
 1168 0904 22F07002 		bic	r2, r2, #112
 1169 0908 1204     		lsls	r2, r2, #16
ARM GAS  /var/folders/td/83895s255bq6rlxfmrv9fnww0000gn/T//cc0o8xXQ.s 			page 21


 1170 090a 120C     		lsrs	r2, r2, #16
 1171 090c 42F40042 		orr	r2, r2, #32768
 1172 0910 42F0C002 		orr	r2, r2, #192
 1173 0914 20F82C20 		strh	r2, [r0, ip, lsl #2]	@ movhi
 1174              	.L86:
 1175 0918 002B     		cmp	r3, #0
 1176 091a 3FF47DAC 		beq	.L75
 1177 091e 0AEB0401 		add	r1, r10, r4
 1178 0922 05EBC101 		add	r1, r5, r1, lsl #3
 1179 0926 B1F87221 		ldrh	r2, [r1, #370]
 1180 092a D1F87C11 		ldr	r1, [r1, #380]
 1181 092e FFF7FEFF 		bl	USB_ReadPMA
 1182 0932 71E4     		b	.L75
 1183              	.L70:
 1184 0934 5408     		lsrs	r4, r2, #1
 1185 0936 D207     		lsls	r2, r2, #31
 1186 0938 CA5A     		ldrh	r2, [r1, r3]
 1187 093a 48BF     		it	mi
 1188 093c 0134     		addmi	r4, r4, #1
 1189 093e 92B2     		uxth	r2, r2
 1190 0940 42EA8422 		orr	r2, r2, r4, lsl #10
 1191 0944 92B2     		uxth	r2, r2
 1192 0946 CA52     		strh	r2, [r1, r3]	@ movhi
 1193 0948 7AE5     		b	.L69
 1194              	.L119:
 1195 094a 012B     		cmp	r3, #1
 1196 094c 7FF451AF 		bne	.L120
 1197 0950 0024     		movs	r4, #0
 1198 0952 B0F85020 		ldrh	r2, [r0, #80]
 1199 0956 00F20443 		addw	r3, r0, #1028
 1200 095a 92B2     		uxth	r2, r2
 1201 095c 1344     		add	r3, r3, r2
 1202 095e 4FEA011C 		lsl	ip, r1, #4
 1203 0962 23F80C40 		strh	r4, [r3, ip]	@ movhi
 1204 0966 B0F85020 		ldrh	r2, [r0, #80]
 1205 096a 00F20C43 		addw	r3, r0, #1036
 1206 096e 92B2     		uxth	r2, r2
 1207 0970 1344     		add	r3, r3, r2
 1208 0972 23F80C40 		strh	r4, [r3, ip]	@ movhi
 1209 0976 3CE7     		b	.L120
 1210              	.L224:
 1211 0978 012B     		cmp	r3, #1
 1212 097a 7FF47AAF 		bne	.L104
 1213 097e B0F85040 		ldrh	r4, [r0, #80]
 1214 0982 00F20443 		addw	r3, r0, #1028
 1215 0986 A4B2     		uxth	r4, r4
 1216 0988 2344     		add	r3, r3, r4
 1217 098a 4FEA011C 		lsl	ip, r1, #4
 1218 098e 23F80C20 		strh	r2, [r3, ip]	@ movhi
 1219 0992 B0F85040 		ldrh	r4, [r0, #80]
 1220 0996 00F20C43 		addw	r3, r0, #1036
 1221 099a A4B2     		uxth	r4, r4
 1222 099c 2344     		add	r3, r3, r4
 1223 099e 23F80C20 		strh	r2, [r3, ip]	@ movhi
 1224 09a2 66E7     		b	.L104
 1225              	.L83:
 1226 09a4 C1F880B1 		str	fp, [r1, #384]
ARM GAS  /var/folders/td/83895s255bq6rlxfmrv9fnww0000gn/T//cc0o8xXQ.s 			page 22


 1227 09a8 95E7     		b	.L84
 1228              	.L78:
 1229 09aa 0022     		movs	r2, #0
 1230 09ac C1F88021 		str	r2, [r1, #384]
 1231 09b0 AAE6     		b	.L79
 1232              	.L223:
 1233 09b2 DEF83C20 		ldr	r2, [lr, #60]
 1234 09b6 DEF84890 		ldr	r9, [lr, #72]
 1235 09ba 02EB030C 		add	ip, r2, r3
 1236 09be DEF84420 		ldr	r2, [lr, #68]
 1237 09c2 CEF83CC0 		str	ip, [lr, #60]
 1238 09c6 1A44     		add	r2, r2, r3
 1239 09c8 CEF84420 		str	r2, [lr, #68]
 1240 09cc DEF83820 		ldr	r2, [lr, #56]
 1241 09d0 9145     		cmp	r9, r2
 1242 09d2 57D3     		bcc	.L124
 1243 09d4 A9EB0203 		sub	r3, r9, r2
 1244 09d8 CEF84830 		str	r3, [lr, #72]
 1245 09dc 93B2     		uxth	r3, r2
 1246              	.L125:
 1247 09de 98F829E0 		ldrb	lr, [r8, #41]	@ zero_extendqisi2
 1248 09e2 BEF1000F 		cmp	lr, #0
 1249 09e6 40D1     		bne	.L127
 1250 09e8 B0F85090 		ldrh	r9, [r0, #80]
 1251 09ec 00F20C4E 		addw	lr, r0, #1036
 1252 09f0 1FFA89F9 		uxth	r9, r9
 1253 09f4 0901     		lsls	r1, r1, #4
 1254 09f6 CE44     		add	lr, lr, r9
 1255 09f8 3EF80190 		ldrh	r9, [lr, r1]
 1256 09fc 3E2A     		cmp	r2, #62
 1257 09fe C9F30909 		ubfx	r9, r9, #0, #10
 1258 0a02 2EF80190 		strh	r9, [lr, r1]	@ movhi
 1259 0a06 63D9     		bls	.L128
 1260 0a08 4FEA5219 		lsr	r9, r2, #5
 1261 0a0c D206     		lsls	r2, r2, #27
 1262 0a0e 3EF80120 		ldrh	r2, [lr, r1]
 1263 0a12 08BF     		it	eq
 1264 0a14 09F1FF39 		addeq	r9, r9, #-1
 1265 0a18 92B2     		uxth	r2, r2
 1266 0a1a 42EA8922 		orr	r2, r2, r9, lsl #10
 1267 0a1e 6FEA4242 		mvn	r2, r2, lsl #17
 1268 0a22 6FEA5242 		mvn	r2, r2, lsr #17
 1269 0a26 92B2     		uxth	r2, r2
 1270 0a28 2EF80120 		strh	r2, [lr, r1]	@ movhi
 1271              	.L130:
 1272 0a2c 0AEB0402 		add	r2, r10, r4
 1273 0a30 05EBC202 		add	r2, r5, r2, lsl #3
 1274 0a34 6146     		mov	r1, ip
 1275 0a36 528E     		ldrh	r2, [r2, #50]
 1276 0a38 FFF7FEFF 		bl	USB_WritePMA
 1277 0a3c 2868     		ldr	r0, [r5]
 1278 0a3e 2CE6     		b	.L106
 1279              	.L111:
 1280 0a40 BCF1010F 		cmp	ip, #1
 1281 0a44 7FF4B6AD 		bne	.L114
 1282 0a48 B0F850C0 		ldrh	ip, [r0, #80]
 1283 0a4c 00F20442 		addw	r2, r0, #1028
ARM GAS  /var/folders/td/83895s255bq6rlxfmrv9fnww0000gn/T//cc0o8xXQ.s 			page 23


 1284 0a50 1FFA8CFC 		uxth	ip, ip
 1285 0a54 0901     		lsls	r1, r1, #4
 1286 0a56 6244     		add	r2, r2, ip
 1287 0a58 5352     		strh	r3, [r2, r1]	@ movhi
 1288 0a5a ABE5     		b	.L114
 1289              	.L108:
 1290 0a5c B9F1000F 		cmp	r9, #0
 1291 0a60 17D1     		bne	.L110
 1292 0a62 1A46     		mov	r2, r3
 1293 0a64 8CF84C90 		strb	r9, [ip, #76]
 1294 0a68 7BE5     		b	.L109
 1295              	.L127:
 1296 0a6a BEF1010F 		cmp	lr, #1
 1297 0a6e DDD1     		bne	.L130
 1298 0a70 B0F850E0 		ldrh	lr, [r0, #80]
 1299 0a74 00F20C42 		addw	r2, r0, #1036
 1300 0a78 1FFA8EFE 		uxth	lr, lr
 1301 0a7c 0901     		lsls	r1, r1, #4
 1302 0a7e 7244     		add	r2, r2, lr
 1303 0a80 5352     		strh	r3, [r2, r1]	@ movhi
 1304 0a82 D3E7     		b	.L130
 1305              	.L124:
 1306 0a84 B9F1000F 		cmp	r9, #0
 1307 0a88 0DD1     		bne	.L126
 1308 0a8a 1A46     		mov	r2, r3
 1309 0a8c 8EF84C90 		strb	r9, [lr, #76]
 1310 0a90 A5E7     		b	.L125
 1311              	.L110:
 1312 0a92 4FF0000B 		mov	fp, #0
 1313 0a96 4A46     		mov	r2, r9
 1314 0a98 1FFA89F3 		uxth	r3, r9
 1315 0a9c 8CF84CB0 		strb	fp, [ip, #76]
 1316 0aa0 CCF848B0 		str	fp, [ip, #72]
 1317 0aa4 5DE5     		b	.L109
 1318              	.L126:
 1319 0aa6 4FF0000B 		mov	fp, #0
 1320 0aaa 4A46     		mov	r2, r9
 1321 0aac 1FFA89F3 		uxth	r3, r9
 1322 0ab0 CEF848B0 		str	fp, [lr, #72]
 1323 0ab4 8EF84CB0 		strb	fp, [lr, #76]
 1324 0ab8 91E7     		b	.L125
 1325              	.L112:
 1326 0aba A2B9     		cbnz	r2, .L115
 1327 0abc 3CF80120 		ldrh	r2, [ip, r1]
 1328 0ac0 6FEA4242 		mvn	r2, r2, lsl #17
 1329 0ac4 6FEA5242 		mvn	r2, r2, lsr #17
 1330 0ac8 92B2     		uxth	r2, r2
 1331 0aca 2CF80120 		strh	r2, [ip, r1]	@ movhi
 1332 0ace 71E5     		b	.L114
 1333              	.L128:
 1334 0ad0 C2B9     		cbnz	r2, .L131
 1335 0ad2 3EF80120 		ldrh	r2, [lr, r1]
 1336 0ad6 6FEA4242 		mvn	r2, r2, lsl #17
 1337 0ada 6FEA5242 		mvn	r2, r2, lsr #17
 1338 0ade 92B2     		uxth	r2, r2
 1339 0ae0 2EF80120 		strh	r2, [lr, r1]	@ movhi
 1340 0ae4 A2E7     		b	.L130
ARM GAS  /var/folders/td/83895s255bq6rlxfmrv9fnww0000gn/T//cc0o8xXQ.s 			page 24


 1341              	.L115:
 1342 0ae6 4FEA5209 		lsr	r9, r2, #1
 1343 0aea D207     		lsls	r2, r2, #31
 1344 0aec 3CF80120 		ldrh	r2, [ip, r1]
 1345 0af0 48BF     		it	mi
 1346 0af2 09F10109 		addmi	r9, r9, #1
 1347 0af6 92B2     		uxth	r2, r2
 1348 0af8 42EA8922 		orr	r2, r2, r9, lsl #10
 1349 0afc 92B2     		uxth	r2, r2
 1350 0afe 2CF80120 		strh	r2, [ip, r1]	@ movhi
 1351 0b02 57E5     		b	.L114
 1352              	.L131:
 1353 0b04 4FEA5209 		lsr	r9, r2, #1
 1354 0b08 D207     		lsls	r2, r2, #31
 1355 0b0a 3EF80120 		ldrh	r2, [lr, r1]
 1356 0b0e 48BF     		it	mi
 1357 0b10 09F10109 		addmi	r9, r9, #1
 1358 0b14 92B2     		uxth	r2, r2
 1359 0b16 42EA8922 		orr	r2, r2, r9, lsl #10
 1360 0b1a 92B2     		uxth	r2, r2
 1361 0b1c 2EF80120 		strh	r2, [lr, r1]	@ movhi
 1362 0b20 84E7     		b	.L130
 1364 0b22 00BF     		.section	.text.HAL_PCD_ISOOUTIncompleteCallback,"ax",%progbits
 1365              		.align	1
 1366              		.p2align 2,,3
 1367              		.weak	HAL_PCD_ISOOUTIncompleteCallback
 1368              		.syntax unified
 1369              		.thumb
 1370              		.thumb_func
 1372              	HAL_PCD_ISOOUTIncompleteCallback:
 1373              		@ args = 0, pretend = 0, frame = 0
 1374              		@ frame_needed = 0, uses_anonymous_args = 0
 1375              		@ link register save eliminated.
 1376 0000 7047     		bx	lr
 1378 0002 00BF     		.section	.text.HAL_PCD_ISOINIncompleteCallback,"ax",%progbits
 1379              		.align	1
 1380              		.p2align 2,,3
 1381              		.weak	HAL_PCD_ISOINIncompleteCallback
 1382              		.syntax unified
 1383              		.thumb
 1384              		.thumb_func
 1386              	HAL_PCD_ISOINIncompleteCallback:
 1387              		@ args = 0, pretend = 0, frame = 0
 1388              		@ frame_needed = 0, uses_anonymous_args = 0
 1389              		@ link register save eliminated.
 1390 0000 7047     		bx	lr
 1392 0002 00BF     		.section	.text.HAL_PCD_ConnectCallback,"ax",%progbits
 1393              		.align	1
 1394              		.p2align 2,,3
 1395              		.weak	HAL_PCD_ConnectCallback
 1396              		.syntax unified
 1397              		.thumb
 1398              		.thumb_func
 1400              	HAL_PCD_ConnectCallback:
 1401              		@ args = 0, pretend = 0, frame = 0
 1402              		@ frame_needed = 0, uses_anonymous_args = 0
 1403              		@ link register save eliminated.
ARM GAS  /var/folders/td/83895s255bq6rlxfmrv9fnww0000gn/T//cc0o8xXQ.s 			page 25


 1404 0000 7047     		bx	lr
 1406 0002 00BF     		.section	.text.HAL_PCD_DisconnectCallback,"ax",%progbits
 1407              		.align	1
 1408              		.p2align 2,,3
 1409              		.weak	HAL_PCD_DisconnectCallback
 1410              		.syntax unified
 1411              		.thumb
 1412              		.thumb_func
 1414              	HAL_PCD_DisconnectCallback:
 1415              		@ args = 0, pretend = 0, frame = 0
 1416              		@ frame_needed = 0, uses_anonymous_args = 0
 1417              		@ link register save eliminated.
 1418 0000 7047     		bx	lr
 1420 0002 00BF     		.section	.text.HAL_PCD_DevConnect,"ax",%progbits
 1421              		.align	1
 1422              		.p2align 2,,3
 1423              		.global	HAL_PCD_DevConnect
 1424              		.syntax unified
 1425              		.thumb
 1426              		.thumb_func
 1428              	HAL_PCD_DevConnect:
 1429              		@ args = 0, pretend = 0, frame = 0
 1430              		@ frame_needed = 0, uses_anonymous_args = 0
 1431 0000 90F8A832 		ldrb	r3, [r0, #680]	@ zero_extendqisi2
 1432 0004 012B     		cmp	r3, #1
 1433 0006 0ED0     		beq	.L233
 1434 0008 0121     		movs	r1, #1
 1435 000a 10B5     		push	{r4, lr}
 1436 000c 0446     		mov	r4, r0
 1437 000e 80F8A812 		strb	r1, [r0, #680]
 1438 0012 FFF7FEFF 		bl	HAL_PCDEx_SetConnectionState
 1439 0016 2068     		ldr	r0, [r4]
 1440 0018 FFF7FEFF 		bl	USB_DevConnect
 1441 001c 0023     		movs	r3, #0
 1442 001e 84F8A832 		strb	r3, [r4, #680]
 1443 0022 1846     		mov	r0, r3
 1444 0024 10BD     		pop	{r4, pc}
 1445              	.L233:
 1446 0026 0220     		movs	r0, #2
 1447 0028 7047     		bx	lr
 1449 002a 00BF     		.section	.text.HAL_PCD_DevDisconnect,"ax",%progbits
 1450              		.align	1
 1451              		.p2align 2,,3
 1452              		.global	HAL_PCD_DevDisconnect
 1453              		.syntax unified
 1454              		.thumb
 1455              		.thumb_func
 1457              	HAL_PCD_DevDisconnect:
 1458              		@ args = 0, pretend = 0, frame = 0
 1459              		@ frame_needed = 0, uses_anonymous_args = 0
 1460 0000 90F8A832 		ldrb	r3, [r0, #680]	@ zero_extendqisi2
 1461 0004 012B     		cmp	r3, #1
 1462 0006 0FD0     		beq	.L240
 1463 0008 0123     		movs	r3, #1
 1464 000a 10B5     		push	{r4, lr}
 1465 000c 0446     		mov	r4, r0
 1466 000e 80F8A832 		strb	r3, [r0, #680]
ARM GAS  /var/folders/td/83895s255bq6rlxfmrv9fnww0000gn/T//cc0o8xXQ.s 			page 26


 1467 0012 0021     		movs	r1, #0
 1468 0014 FFF7FEFF 		bl	HAL_PCDEx_SetConnectionState
 1469 0018 2068     		ldr	r0, [r4]
 1470 001a FFF7FEFF 		bl	USB_DevDisconnect
 1471 001e 0023     		movs	r3, #0
 1472 0020 84F8A832 		strb	r3, [r4, #680]
 1473 0024 1846     		mov	r0, r3
 1474 0026 10BD     		pop	{r4, pc}
 1475              	.L240:
 1476 0028 0220     		movs	r0, #2
 1477 002a 7047     		bx	lr
 1479              		.section	.text.HAL_PCD_SetAddress,"ax",%progbits
 1480              		.align	1
 1481              		.p2align 2,,3
 1482              		.global	HAL_PCD_SetAddress
 1483              		.syntax unified
 1484              		.thumb
 1485              		.thumb_func
 1487              	HAL_PCD_SetAddress:
 1488              		@ args = 0, pretend = 0, frame = 0
 1489              		@ frame_needed = 0, uses_anonymous_args = 0
 1490 0000 90F8A822 		ldrb	r2, [r0, #680]	@ zero_extendqisi2
 1491 0004 012A     		cmp	r2, #1
 1492 0006 0ED0     		beq	.L247
 1493 0008 10B5     		push	{r4, lr}
 1494 000a 0122     		movs	r2, #1
 1495 000c 0446     		mov	r4, r0
 1496 000e 0068     		ldr	r0, [r0]
 1497 0010 84F82410 		strb	r1, [r4, #36]
 1498 0014 84F8A822 		strb	r2, [r4, #680]
 1499 0018 FFF7FEFF 		bl	USB_SetDevAddress
 1500 001c 0023     		movs	r3, #0
 1501 001e 84F8A832 		strb	r3, [r4, #680]
 1502 0022 1846     		mov	r0, r3
 1503 0024 10BD     		pop	{r4, pc}
 1504              	.L247:
 1505 0026 0220     		movs	r0, #2
 1506 0028 7047     		bx	lr
 1508 002a 00BF     		.section	.text.HAL_PCD_EP_Open,"ax",%progbits
 1509              		.align	1
 1510              		.p2align 2,,3
 1511              		.global	HAL_PCD_EP_Open
 1512              		.syntax unified
 1513              		.thumb
 1514              		.thumb_func
 1516              	HAL_PCD_EP_Open:
 1517              		@ args = 0, pretend = 0, frame = 0
 1518              		@ frame_needed = 0, uses_anonymous_args = 0
 1519 0000 01F0070C 		and	ip, r1, #7
 1520 0004 0906     		lsls	r1, r1, #24
 1521 0006 10B5     		push	{r4, lr}
 1522 0008 0446     		mov	r4, r0
 1523 000a 22D4     		bmi	.L259
 1524 000c 4FF0000E 		mov	lr, #0
 1525 0010 0CEB8C00 		add	r0, ip, ip, lsl #2
 1526 0014 C000     		lsls	r0, r0, #3
 1527 0016 00F5B471 		add	r1, r0, #360
ARM GAS  /var/folders/td/83895s255bq6rlxfmrv9fnww0000gn/T//cc0o8xXQ.s 			page 27


 1528 001a 2044     		add	r0, r0, r4
 1529 001c 80F869E1 		strb	lr, [r0, #361]
 1530 0020 2144     		add	r1, r1, r4
 1531              	.L254:
 1532 0022 022B     		cmp	r3, #2
 1533 0024 CB70     		strb	r3, [r1, #3]
 1534 0026 08BF     		it	eq
 1535 0028 0023     		moveq	r3, #0
 1536 002a 81F800C0 		strb	ip, [r1]
 1537 002e 08BF     		it	eq
 1538 0030 0B71     		strbeq	r3, [r1, #4]
 1539 0032 0A61     		str	r2, [r1, #16]
 1540 0034 94F8A832 		ldrb	r3, [r4, #680]	@ zero_extendqisi2
 1541 0038 012B     		cmp	r3, #1
 1542 003a 13D0     		beq	.L257
 1543 003c 0123     		movs	r3, #1
 1544 003e 2068     		ldr	r0, [r4]
 1545 0040 84F8A832 		strb	r3, [r4, #680]
 1546 0044 FFF7FEFF 		bl	USB_ActivateEndpoint
 1547 0048 0023     		movs	r3, #0
 1548 004a 84F8A832 		strb	r3, [r4, #680]
 1549 004e 1846     		mov	r0, r3
 1550 0050 10BD     		pop	{r4, pc}
 1551              	.L259:
 1552 0052 0CF10101 		add	r1, ip, #1
 1553 0056 01EB8101 		add	r1, r1, r1, lsl #2
 1554 005a 00EBC101 		add	r1, r0, r1, lsl #3
 1555 005e 0120     		movs	r0, #1
 1556 0060 4870     		strb	r0, [r1, #1]
 1557 0062 DEE7     		b	.L254
 1558              	.L257:
 1559 0064 0220     		movs	r0, #2
 1560 0066 10BD     		pop	{r4, pc}
 1562              		.section	.text.HAL_PCD_EP_Close,"ax",%progbits
 1563              		.align	1
 1564              		.p2align 2,,3
 1565              		.global	HAL_PCD_EP_Close
 1566              		.syntax unified
 1567              		.thumb
 1568              		.thumb_func
 1570              	HAL_PCD_EP_Close:
 1571              		@ args = 0, pretend = 0, frame = 0
 1572              		@ frame_needed = 0, uses_anonymous_args = 0
 1573 0000 0B06     		lsls	r3, r1, #24
 1574 0002 10B5     		push	{r4, lr}
 1575 0004 01F00702 		and	r2, r1, #7
 1576 0008 0446     		mov	r4, r0
 1577 000a 19D4     		bmi	.L266
 1578 000c 02EB8203 		add	r3, r2, r2, lsl #2
 1579 0010 DB00     		lsls	r3, r3, #3
 1580 0012 03F5B471 		add	r1, r3, #360
 1581 0016 0144     		add	r1, r1, r0
 1582 0018 0344     		add	r3, r3, r0
 1583 001a 0020     		movs	r0, #0
 1584 001c 83F86901 		strb	r0, [r3, #361]
 1585 0020 0A70     		strb	r2, [r1]
 1586 0022 94F8A832 		ldrb	r3, [r4, #680]	@ zero_extendqisi2
ARM GAS  /var/folders/td/83895s255bq6rlxfmrv9fnww0000gn/T//cc0o8xXQ.s 			page 28


 1587 0026 012B     		cmp	r3, #1
 1588 0028 16D0     		beq	.L264
 1589              	.L267:
 1590 002a 0123     		movs	r3, #1
 1591 002c 2068     		ldr	r0, [r4]
 1592 002e 84F8A832 		strb	r3, [r4, #680]
 1593 0032 FFF7FEFF 		bl	USB_DeactivateEndpoint
 1594 0036 0023     		movs	r3, #0
 1595 0038 84F8A832 		strb	r3, [r4, #680]
 1596 003c 1846     		mov	r0, r3
 1597 003e 10BD     		pop	{r4, pc}
 1598              	.L266:
 1599 0040 0123     		movs	r3, #1
 1600 0042 D118     		adds	r1, r2, r3
 1601 0044 01EB8101 		add	r1, r1, r1, lsl #2
 1602 0048 00EBC101 		add	r1, r0, r1, lsl #3
 1603 004c 4B70     		strb	r3, [r1, #1]
 1604 004e 0A70     		strb	r2, [r1]
 1605 0050 94F8A832 		ldrb	r3, [r4, #680]	@ zero_extendqisi2
 1606 0054 012B     		cmp	r3, #1
 1607 0056 E8D1     		bne	.L267
 1608              	.L264:
 1609 0058 0220     		movs	r0, #2
 1610 005a 10BD     		pop	{r4, pc}
 1612              		.section	.text.HAL_PCD_EP_Receive,"ax",%progbits
 1613              		.align	1
 1614              		.p2align 2,,3
 1615              		.global	HAL_PCD_EP_Receive
 1616              		.syntax unified
 1617              		.thumb
 1618              		.thumb_func
 1620              	HAL_PCD_EP_Receive:
 1621              		@ args = 0, pretend = 0, frame = 0
 1622              		@ frame_needed = 0, uses_anonymous_args = 0
 1623 0000 10B5     		push	{r4, lr}
 1624 0002 0024     		movs	r4, #0
 1625 0004 01F0070E 		and	lr, r1, #7
 1626 0008 0EEB8E01 		add	r1, lr, lr, lsl #2
 1627 000c 00EBC10C 		add	ip, r0, r1, lsl #3
 1628 0010 CCE95F23 		strd	r2, r3, [ip, #380]
 1629 0014 0068     		ldr	r0, [r0]
 1630 0016 0CF5B471 		add	r1, ip, #360
 1631 001a CCF88441 		str	r4, [ip, #388]
 1632 001e 8CF86941 		strb	r4, [ip, #361]
 1633 0022 8CF868E1 		strb	lr, [ip, #360]
 1634 0026 FFF7FEFF 		bl	USB_EPStartXfer
 1635 002a 2046     		mov	r0, r4
 1636 002c 10BD     		pop	{r4, pc}
 1638 002e 00BF     		.section	.text.HAL_PCD_EP_GetRxCount,"ax",%progbits
 1639              		.align	1
 1640              		.p2align 2,,3
 1641              		.global	HAL_PCD_EP_GetRxCount
 1642              		.syntax unified
 1643              		.thumb
 1644              		.thumb_func
 1646              	HAL_PCD_EP_GetRxCount:
 1647              		@ args = 0, pretend = 0, frame = 0
ARM GAS  /var/folders/td/83895s255bq6rlxfmrv9fnww0000gn/T//cc0o8xXQ.s 			page 29


 1648              		@ frame_needed = 0, uses_anonymous_args = 0
 1649              		@ link register save eliminated.
 1650 0000 01F00701 		and	r1, r1, #7
 1651 0004 01EB8101 		add	r1, r1, r1, lsl #2
 1652 0008 00EBC100 		add	r0, r0, r1, lsl #3
 1653 000c D0F88401 		ldr	r0, [r0, #388]
 1654 0010 7047     		bx	lr
 1656 0012 00BF     		.section	.text.HAL_PCD_EP_Transmit,"ax",%progbits
 1657              		.align	1
 1658              		.p2align 2,,3
 1659              		.global	HAL_PCD_EP_Transmit
 1660              		.syntax unified
 1661              		.thumb
 1662              		.thumb_func
 1664              	HAL_PCD_EP_Transmit:
 1665              		@ args = 0, pretend = 0, frame = 0
 1666              		@ frame_needed = 0, uses_anonymous_args = 0
 1667 0000 70B5     		push	{r4, r5, r6, lr}
 1668 0002 0126     		movs	r6, #1
 1669 0004 0025     		movs	r5, #0
 1670 0006 0446     		mov	r4, r0
 1671 0008 01F0070E 		and	lr, r1, #7
 1672 000c 0EEB8E0C 		add	ip, lr, lr, lsl #2
 1673 0010 0EEB0601 		add	r1, lr, r6
 1674 0014 00EBCC0C 		add	ip, r0, ip, lsl #3
 1675 0018 01EB8101 		add	r1, r1, r1, lsl #2
 1676 001c CCF83C20 		str	r2, [ip, #60]
 1677 0020 8CF828E0 		strb	lr, [ip, #40]
 1678 0024 CCF84030 		str	r3, [ip, #64]
 1679 0028 CCF84830 		str	r3, [ip, #72]
 1680 002c 8CF84C60 		strb	r6, [ip, #76]
 1681 0030 CCF84450 		str	r5, [ip, #68]
 1682 0034 8CF82960 		strb	r6, [ip, #41]
 1683 0038 04EBC101 		add	r1, r4, r1, lsl #3
 1684 003c 0068     		ldr	r0, [r0]
 1685 003e FFF7FEFF 		bl	USB_EPStartXfer
 1686 0042 2846     		mov	r0, r5
 1687 0044 70BD     		pop	{r4, r5, r6, pc}
 1689 0046 00BF     		.section	.text.HAL_PCD_EP_SetStall,"ax",%progbits
 1690              		.align	1
 1691              		.p2align 2,,3
 1692              		.global	HAL_PCD_EP_SetStall
 1693              		.syntax unified
 1694              		.thumb
 1695              		.thumb_func
 1697              	HAL_PCD_EP_SetStall:
 1698              		@ args = 0, pretend = 0, frame = 0
 1699              		@ frame_needed = 0, uses_anonymous_args = 0
 1700 0000 38B5     		push	{r3, r4, r5, lr}
 1701 0002 4368     		ldr	r3, [r0, #4]
 1702 0004 01F00705 		and	r5, r1, #7
 1703 0008 9D42     		cmp	r5, r3
 1704 000a 2ED8     		bhi	.L278
 1705 000c 0B06     		lsls	r3, r1, #24
 1706 000e 0446     		mov	r4, r0
 1707 0010 1BD4     		bmi	.L281
 1708 0012 01EB8101 		add	r1, r1, r1, lsl #2
ARM GAS  /var/folders/td/83895s255bq6rlxfmrv9fnww0000gn/T//cc0o8xXQ.s 			page 30


 1709 0016 C900     		lsls	r1, r1, #3
 1710 0018 01F5B472 		add	r2, r1, #360
 1711 001c 4318     		adds	r3, r0, r1
 1712 001e 8118     		adds	r1, r0, r2
 1713 0020 0022     		movs	r2, #0
 1714 0022 83F86921 		strb	r2, [r3, #361]
 1715 0026 0123     		movs	r3, #1
 1716 0028 0D70     		strb	r5, [r1]
 1717 002a 8B70     		strb	r3, [r1, #2]
 1718 002c 94F8A822 		ldrb	r2, [r4, #680]	@ zero_extendqisi2
 1719 0030 9A42     		cmp	r2, r3
 1720 0032 18D0     		beq	.L279
 1721              	.L283:
 1722 0034 2068     		ldr	r0, [r4]
 1723 0036 84F8A832 		strb	r3, [r4, #680]
 1724 003a FFF7FEFF 		bl	USB_EPSetStall
 1725 003e B5B1     		cbz	r5, .L282
 1726              	.L277:
 1727 0040 0023     		movs	r3, #0
 1728 0042 84F8A832 		strb	r3, [r4, #680]
 1729 0046 1846     		mov	r0, r3
 1730 0048 38BD     		pop	{r3, r4, r5, pc}
 1731              	.L281:
 1732 004a 0123     		movs	r3, #1
 1733 004c E918     		adds	r1, r5, r3
 1734 004e 01EB8101 		add	r1, r1, r1, lsl #2
 1735 0052 00EBC101 		add	r1, r0, r1, lsl #3
 1736 0056 4B70     		strb	r3, [r1, #1]
 1737 0058 0123     		movs	r3, #1
 1738 005a 0D70     		strb	r5, [r1]
 1739 005c 8B70     		strb	r3, [r1, #2]
 1740 005e 94F8A822 		ldrb	r2, [r4, #680]	@ zero_extendqisi2
 1741 0062 9A42     		cmp	r2, r3
 1742 0064 E6D1     		bne	.L283
 1743              	.L279:
 1744 0066 0220     		movs	r0, #2
 1745 0068 38BD     		pop	{r3, r4, r5, pc}
 1746              	.L278:
 1747 006a 0120     		movs	r0, #1
 1748 006c 38BD     		pop	{r3, r4, r5, pc}
 1749              	.L282:
 1750 006e 2068     		ldr	r0, [r4]
 1751 0070 04F52C71 		add	r1, r4, #688
 1752 0074 FFF7FEFF 		bl	USB_EP0_OutStart
 1753 0078 E2E7     		b	.L277
 1755 007a 00BF     		.section	.text.HAL_PCD_EP_ClrStall,"ax",%progbits
 1756              		.align	1
 1757              		.p2align 2,,3
 1758              		.global	HAL_PCD_EP_ClrStall
 1759              		.syntax unified
 1760              		.thumb
 1761              		.thumb_func
 1763              	HAL_PCD_EP_ClrStall:
 1764              		@ args = 0, pretend = 0, frame = 0
 1765              		@ frame_needed = 0, uses_anonymous_args = 0
 1766 0000 38B5     		push	{r3, r4, r5, lr}
 1767 0002 4368     		ldr	r3, [r0, #4]
ARM GAS  /var/folders/td/83895s255bq6rlxfmrv9fnww0000gn/T//cc0o8xXQ.s 			page 31


 1768 0004 01F00F02 		and	r2, r1, #15
 1769 0008 9A42     		cmp	r2, r3
 1770 000a 2FD8     		bhi	.L288
 1771 000c 0B06     		lsls	r3, r1, #24
 1772 000e 0446     		mov	r4, r0
 1773 0010 01F00702 		and	r2, r1, #7
 1774 0014 1AD4     		bmi	.L291
 1775 0016 02EB8203 		add	r3, r2, r2, lsl #2
 1776 001a DB00     		lsls	r3, r3, #3
 1777 001c 03F5B471 		add	r1, r3, #360
 1778 0020 0144     		add	r1, r1, r0
 1779 0022 0344     		add	r3, r3, r0
 1780 0024 0025     		movs	r5, #0
 1781 0026 0020     		movs	r0, #0
 1782 0028 83F86901 		strb	r0, [r3, #361]
 1783 002c 0A70     		strb	r2, [r1]
 1784 002e 8D70     		strb	r5, [r1, #2]
 1785 0030 94F8A832 		ldrb	r3, [r4, #680]	@ zero_extendqisi2
 1786 0034 012B     		cmp	r3, #1
 1787 0036 17D0     		beq	.L289
 1788              	.L292:
 1789 0038 0123     		movs	r3, #1
 1790 003a 2068     		ldr	r0, [r4]
 1791 003c 84F8A832 		strb	r3, [r4, #680]
 1792 0040 FFF7FEFF 		bl	USB_EPClearStall
 1793 0044 84F8A852 		strb	r5, [r4, #680]
 1794 0048 2846     		mov	r0, r5
 1795 004a 38BD     		pop	{r3, r4, r5, pc}
 1796              	.L291:
 1797 004c 0123     		movs	r3, #1
 1798 004e 0025     		movs	r5, #0
 1799 0050 D118     		adds	r1, r2, r3
 1800 0052 01EB8101 		add	r1, r1, r1, lsl #2
 1801 0056 00EBC101 		add	r1, r0, r1, lsl #3
 1802 005a 4B70     		strb	r3, [r1, #1]
 1803 005c 0A70     		strb	r2, [r1]
 1804 005e 8D70     		strb	r5, [r1, #2]
 1805 0060 94F8A832 		ldrb	r3, [r4, #680]	@ zero_extendqisi2
 1806 0064 012B     		cmp	r3, #1
 1807 0066 E7D1     		bne	.L292
 1808              	.L289:
 1809 0068 0220     		movs	r0, #2
 1810 006a 38BD     		pop	{r3, r4, r5, pc}
 1811              	.L288:
 1812 006c 0120     		movs	r0, #1
 1813 006e 38BD     		pop	{r3, r4, r5, pc}
 1815              		.section	.text.HAL_PCD_EP_Abort,"ax",%progbits
 1816              		.align	1
 1817              		.p2align 2,,3
 1818              		.global	HAL_PCD_EP_Abort
 1819              		.syntax unified
 1820              		.thumb
 1821              		.thumb_func
 1823              	HAL_PCD_EP_Abort:
 1824              		@ args = 0, pretend = 0, frame = 0
 1825              		@ frame_needed = 0, uses_anonymous_args = 0
 1826              		@ link register save eliminated.
ARM GAS  /var/folders/td/83895s255bq6rlxfmrv9fnww0000gn/T//cc0o8xXQ.s 			page 32


 1827 0000 0A06     		lsls	r2, r1, #24
 1828 0002 01F00703 		and	r3, r1, #7
 1829 0006 08D4     		bmi	.L296
 1830 0008 03EB8301 		add	r1, r3, r3, lsl #2
 1831 000c 00EBC101 		add	r1, r0, r1, lsl #3
 1832 0010 01F5B471 		add	r1, r1, #360
 1833 0014 0068     		ldr	r0, [r0]
 1834 0016 FFF7FEBF 		b	USB_EPStopXfer
 1835              	.L296:
 1836 001a 0133     		adds	r3, r3, #1
 1837 001c 03EB8303 		add	r3, r3, r3, lsl #2
 1838 0020 00EBC301 		add	r1, r0, r3, lsl #3
 1839 0024 0068     		ldr	r0, [r0]
 1840 0026 FFF7FEBF 		b	USB_EPStopXfer
 1842 002a 00BF     		.section	.text.HAL_PCD_EP_Flush,"ax",%progbits
 1843              		.align	1
 1844              		.p2align 2,,3
 1845              		.global	HAL_PCD_EP_Flush
 1846              		.syntax unified
 1847              		.thumb
 1848              		.thumb_func
 1850              	HAL_PCD_EP_Flush:
 1851              		@ args = 0, pretend = 0, frame = 0
 1852              		@ frame_needed = 0, uses_anonymous_args = 0
 1853 0000 90F8A832 		ldrb	r3, [r0, #680]	@ zero_extendqisi2
 1854 0004 012B     		cmp	r3, #1
 1855 0006 17D0     		beq	.L301
 1856 0008 0123     		movs	r3, #1
 1857 000a 10B5     		push	{r4, lr}
 1858 000c 0446     		mov	r4, r0
 1859 000e 0068     		ldr	r0, [r0]
 1860 0010 84F8A832 		strb	r3, [r4, #680]
 1861 0014 0B06     		lsls	r3, r1, #24
 1862 0016 06D4     		bmi	.L306
 1863 0018 FFF7FEFF 		bl	USB_FlushRxFifo
 1864 001c 0023     		movs	r3, #0
 1865 001e 84F8A832 		strb	r3, [r4, #680]
 1866 0022 1846     		mov	r0, r3
 1867 0024 10BD     		pop	{r4, pc}
 1868              	.L306:
 1869 0026 01F00701 		and	r1, r1, #7
 1870 002a FFF7FEFF 		bl	USB_FlushTxFifo
 1871 002e 0023     		movs	r3, #0
 1872 0030 84F8A832 		strb	r3, [r4, #680]
 1873 0034 1846     		mov	r0, r3
 1874 0036 10BD     		pop	{r4, pc}
 1875              	.L301:
 1876 0038 0220     		movs	r0, #2
 1877 003a 7047     		bx	lr
 1879              		.section	.text.HAL_PCD_ActivateRemoteWakeup,"ax",%progbits
 1880              		.align	1
 1881              		.p2align 2,,3
 1882              		.global	HAL_PCD_ActivateRemoteWakeup
 1883              		.syntax unified
 1884              		.thumb
 1885              		.thumb_func
 1887              	HAL_PCD_ActivateRemoteWakeup:
ARM GAS  /var/folders/td/83895s255bq6rlxfmrv9fnww0000gn/T//cc0o8xXQ.s 			page 33


 1888              		@ args = 0, pretend = 0, frame = 0
 1889              		@ frame_needed = 0, uses_anonymous_args = 0
 1890              		@ link register save eliminated.
 1891 0000 0068     		ldr	r0, [r0]
 1892 0002 FFF7FEBF 		b	USB_ActivateRemoteWakeup
 1894 0006 00BF     		.section	.text.HAL_PCD_DeActivateRemoteWakeup,"ax",%progbits
 1895              		.align	1
 1896              		.p2align 2,,3
 1897              		.global	HAL_PCD_DeActivateRemoteWakeup
 1898              		.syntax unified
 1899              		.thumb
 1900              		.thumb_func
 1902              	HAL_PCD_DeActivateRemoteWakeup:
 1903              		@ args = 0, pretend = 0, frame = 0
 1904              		@ frame_needed = 0, uses_anonymous_args = 0
 1905              		@ link register save eliminated.
 1906 0000 0068     		ldr	r0, [r0]
 1907 0002 FFF7FEBF 		b	USB_DeActivateRemoteWakeup
 1909 0006 00BF     		.section	.text.HAL_PCD_GetState,"ax",%progbits
 1910              		.align	1
 1911              		.p2align 2,,3
 1912              		.global	HAL_PCD_GetState
 1913              		.syntax unified
 1914              		.thumb
 1915              		.thumb_func
 1917              	HAL_PCD_GetState:
 1918              		@ args = 0, pretend = 0, frame = 0
 1919              		@ frame_needed = 0, uses_anonymous_args = 0
 1920              		@ link register save eliminated.
 1921 0000 90F8A902 		ldrb	r0, [r0, #681]	@ zero_extendqisi2
 1922 0004 7047     		bx	lr
 1924 0006 00BF     		.ident	"GCC: (Arm GNU Toolchain 13.2.rel1 (Build arm-13.7)) 13.2.1 20231009"
ARM GAS  /var/folders/td/83895s255bq6rlxfmrv9fnww0000gn/T//cc0o8xXQ.s 			page 34

