ARM GAS  /var/folders/td/83895s255bq6rlxfmrv9fnww0000gn/T//cchbaRtY.s 			page 1


   1              		.cpu cortex-m3
   2              		.arch armv7-m
   3              		.fpu softvfp
   4              		.eabi_attribute 20, 1
   5              		.eabi_attribute 21, 1
   6              		.eabi_attribute 23, 3
   7              		.eabi_attribute 24, 1
   8              		.eabi_attribute 25, 1
   9              		.eabi_attribute 26, 1
  10              		.eabi_attribute 30, 2
  11              		.eabi_attribute 34, 1
  12              		.eabi_attribute 18, 4
  13              		.file	"stm32f1xx_hal_flash.c"
  14              		.text
  15              		.section	.text.FLASH_SetErrorCode,"ax",%progbits
  16              		.align	1
  17              		.p2align 2,,3
  18              		.syntax unified
  19              		.thumb
  20              		.thumb_func
  22              	FLASH_SetErrorCode:
  23              		@ args = 0, pretend = 0, frame = 0
  24              		@ frame_needed = 0, uses_anonymous_args = 0
  25              		@ link register save eliminated.
  26 0000 124B     		ldr	r3, .L15
  27 0002 DB68     		ldr	r3, [r3, #12]
  28 0004 13F01003 		ands	r3, r3, #16
  29 0008 05D0     		beq	.L2
  30 000a 1023     		movs	r3, #16
  31 000c 1049     		ldr	r1, .L15+4
  32 000e CA69     		ldr	r2, [r1, #28]
  33 0010 42F00202 		orr	r2, r2, #2
  34 0014 CA61     		str	r2, [r1, #28]
  35              	.L2:
  36 0016 0D4A     		ldr	r2, .L15
  37 0018 D268     		ldr	r2, [r2, #12]
  38 001a 5007     		lsls	r0, r2, #29
  39 001c 06D5     		bpl	.L3
  40 001e 0C49     		ldr	r1, .L15+4
  41 0020 43F00403 		orr	r3, r3, #4
  42 0024 CA69     		ldr	r2, [r1, #28]
  43 0026 42F00102 		orr	r2, r2, #1
  44 002a CA61     		str	r2, [r1, #28]
  45              	.L3:
  46 002c 074A     		ldr	r2, .L15
  47 002e D169     		ldr	r1, [r2, #28]
  48 0030 C907     		lsls	r1, r1, #31
  49 0032 08D5     		bpl	.L4
  50 0034 0648     		ldr	r0, .L15+4
  51 0036 C169     		ldr	r1, [r0, #28]
  52 0038 41F00401 		orr	r1, r1, #4
  53 003c C161     		str	r1, [r0, #28]
  54 003e D169     		ldr	r1, [r2, #28]
  55 0040 21F00101 		bic	r1, r1, #1
  56 0044 D161     		str	r1, [r2, #28]
  57              	.L4:
  58 0046 014A     		ldr	r2, .L15
ARM GAS  /var/folders/td/83895s255bq6rlxfmrv9fnww0000gn/T//cchbaRtY.s 			page 2


  59 0048 D360     		str	r3, [r2, #12]
  60 004a 7047     		bx	lr
  61              	.L16:
  62              		.align	2
  63              	.L15:
  64 004c 00200240 		.word	1073881088
  65 0050 00000000 		.word	pFlash
  67              		.section	.text.HAL_FLASH_Program_IT,"ax",%progbits
  68              		.align	1
  69              		.p2align 2,,3
  70              		.global	HAL_FLASH_Program_IT
  71              		.syntax unified
  72              		.thumb
  73              		.thumb_func
  75              	HAL_FLASH_Program_IT:
  76              		@ args = 0, pretend = 0, frame = 0
  77              		@ frame_needed = 0, uses_anonymous_args = 0
  78              		@ link register save eliminated.
  79 0000 70B4     		push	{r4, r5, r6}
  80 0002 1446     		mov	r4, r2
  81 0004 164A     		ldr	r2, .L26
  82 0006 167E     		ldrb	r6, [r2, #24]	@ zero_extendqisi2
  83 0008 012E     		cmp	r6, #1
  84 000a 25D0     		beq	.L22
  85 000c 1D46     		mov	r5, r3
  86 000e 0123     		movs	r3, #1
  87 0010 144E     		ldr	r6, .L26+4
  88 0012 1376     		strb	r3, [r2, #24]
  89 0014 3369     		ldr	r3, [r6, #16]
  90 0016 0128     		cmp	r0, #1
  91 0018 43F4A053 		orr	r3, r3, #5120
  92 001c 3361     		str	r3, [r6, #16]
  93 001e 9160     		str	r1, [r2, #8]
  94 0020 C2E90445 		strd	r4, [r2, #16]
  95 0024 10D0     		beq	.L24
  96 0026 0228     		cmp	r0, #2
  97 0028 12D0     		beq	.L25
  98 002a 0520     		movs	r0, #5
  99 002c 0423     		movs	r3, #4
 100 002e 1070     		strb	r0, [r2]
 101 0030 5360     		str	r3, [r2, #4]
 102              	.L20:
 103 0032 0020     		movs	r0, #0
 104 0034 0B4D     		ldr	r5, .L26+4
 105 0036 D061     		str	r0, [r2, #28]
 106 0038 2B69     		ldr	r3, [r5, #16]
 107 003a A4B2     		uxth	r4, r4
 108 003c 43F00103 		orr	r3, r3, #1
 109 0040 2B61     		str	r3, [r5, #16]
 110 0042 0C80     		strh	r4, [r1]	@ movhi
 111 0044 70BC     		pop	{r4, r5, r6}
 112 0046 7047     		bx	lr
 113              	.L24:
 114 0048 0323     		movs	r3, #3
 115 004a 1370     		strb	r3, [r2]
 116 004c 5060     		str	r0, [r2, #4]
 117 004e F0E7     		b	.L20
ARM GAS  /var/folders/td/83895s255bq6rlxfmrv9fnww0000gn/T//cchbaRtY.s 			page 3


 118              	.L25:
 119 0050 0423     		movs	r3, #4
 120 0052 1370     		strb	r3, [r2]
 121 0054 5060     		str	r0, [r2, #4]
 122 0056 ECE7     		b	.L20
 123              	.L22:
 124 0058 0220     		movs	r0, #2
 125 005a 70BC     		pop	{r4, r5, r6}
 126 005c 7047     		bx	lr
 127              	.L27:
 128 005e 00BF     		.align	2
 129              	.L26:
 130 0060 00000000 		.word	pFlash
 131 0064 00200240 		.word	1073881088
 133              		.section	.text.HAL_FLASH_EndOfOperationCallback,"ax",%progbits
 134              		.align	1
 135              		.p2align 2,,3
 136              		.weak	HAL_FLASH_EndOfOperationCallback
 137              		.syntax unified
 138              		.thumb
 139              		.thumb_func
 141              	HAL_FLASH_EndOfOperationCallback:
 142              		@ args = 0, pretend = 0, frame = 0
 143              		@ frame_needed = 0, uses_anonymous_args = 0
 144              		@ link register save eliminated.
 145 0000 7047     		bx	lr
 147 0002 00BF     		.section	.text.HAL_FLASH_OperationErrorCallback,"ax",%progbits
 148              		.align	1
 149              		.p2align 2,,3
 150              		.weak	HAL_FLASH_OperationErrorCallback
 151              		.syntax unified
 152              		.thumb
 153              		.thumb_func
 155              	HAL_FLASH_OperationErrorCallback:
 156              		@ args = 0, pretend = 0, frame = 0
 157              		@ frame_needed = 0, uses_anonymous_args = 0
 158              		@ link register save eliminated.
 159 0000 7047     		bx	lr
 161 0002 00BF     		.section	.text.HAL_FLASH_IRQHandler,"ax",%progbits
 162              		.align	1
 163              		.p2align 2,,3
 164              		.global	HAL_FLASH_IRQHandler
 165              		.syntax unified
 166              		.thumb
 167              		.thumb_func
 169              	HAL_FLASH_IRQHandler:
 170              		@ args = 0, pretend = 0, frame = 0
 171              		@ frame_needed = 0, uses_anonymous_args = 0
 172 0000 F8B5     		push	{r3, r4, r5, r6, r7, lr}
 173 0002 464B     		ldr	r3, .L55
 174 0004 DA68     		ldr	r2, [r3, #12]
 175 0006 D106     		lsls	r1, r2, #27
 176 0008 02D4     		bmi	.L31
 177 000a DB68     		ldr	r3, [r3, #12]
 178 000c 5A07     		lsls	r2, r3, #29
 179 000e 22D5     		bpl	.L50
 180              	.L31:
ARM GAS  /var/folders/td/83895s255bq6rlxfmrv9fnww0000gn/T//cchbaRtY.s 			page 4


 181 0010 4FF0FF33 		mov	r3, #-1
 182 0014 424C     		ldr	r4, .L55+4
 183 0016 A568     		ldr	r5, [r4, #8]
 184 0018 A360     		str	r3, [r4, #8]
 185 001a FFF7FEFF 		bl	FLASH_SetErrorCode
 186 001e 2846     		mov	r0, r5
 187 0020 FFF7FEFF 		bl	HAL_FLASH_OperationErrorCallback
 188 0024 0023     		movs	r3, #0
 189 0026 2370     		strb	r3, [r4]
 190              	.L32:
 191 0028 3C4D     		ldr	r5, .L55
 192 002a EB68     		ldr	r3, [r5, #12]
 193 002c 9B06     		lsls	r3, r3, #26
 194 002e 03D5     		bpl	.L34
 195 0030 2023     		movs	r3, #32
 196 0032 EB60     		str	r3, [r5, #12]
 197 0034 2378     		ldrb	r3, [r4]	@ zero_extendqisi2
 198 0036 83B9     		cbnz	r3, .L51
 199              	.L34:
 200 0038 2378     		ldrb	r3, [r4]	@ zero_extendqisi2
 201 003a 03F0FF01 		and	r1, r3, #255
 202 003e 4BB9     		cbnz	r3, .L30
 203 0040 364B     		ldr	r3, .L55
 204 0042 1A69     		ldr	r2, [r3, #16]
 205 0044 22F00702 		bic	r2, r2, #7
 206 0048 1A61     		str	r2, [r3, #16]
 207 004a 1A69     		ldr	r2, [r3, #16]
 208 004c 22F4A052 		bic	r2, r2, #5120
 209 0050 1A61     		str	r2, [r3, #16]
 210 0052 2176     		strb	r1, [r4, #24]
 211              	.L30:
 212 0054 F8BD     		pop	{r3, r4, r5, r6, r7, pc}
 213              	.L50:
 214 0056 324C     		ldr	r4, .L55+4
 215 0058 E6E7     		b	.L32
 216              	.L51:
 217 005a 2378     		ldrb	r3, [r4]	@ zero_extendqisi2
 218 005c 012B     		cmp	r3, #1
 219 005e 23D0     		beq	.L52
 220 0060 2378     		ldrb	r3, [r4]	@ zero_extendqisi2
 221 0062 022B     		cmp	r3, #2
 222 0064 4BD0     		beq	.L53
 223 0066 6368     		ldr	r3, [r4, #4]
 224 0068 013B     		subs	r3, r3, #1
 225 006a 6360     		str	r3, [r4, #4]
 226 006c 6368     		ldr	r3, [r4, #4]
 227 006e 002B     		cmp	r3, #0
 228 0070 2DD0     		beq	.L39
 229 0072 0027     		movs	r7, #0
 230 0074 A368     		ldr	r3, [r4, #8]
 231 0076 0233     		adds	r3, r3, #2
 232 0078 A360     		str	r3, [r4, #8]
 233 007a A668     		ldr	r6, [r4, #8]
 234 007c D4E90401 		ldrd	r0, [r4, #16]
 235 0080 020C     		lsrs	r2, r0, #16
 236 0082 42EA0142 		orr	r2, r2, r1, lsl #16
 237 0086 0B0C     		lsrs	r3, r1, #16
ARM GAS  /var/folders/td/83895s255bq6rlxfmrv9fnww0000gn/T//cchbaRtY.s 			page 5


 238 0088 C4E90423 		strd	r2, [r4, #16]
 239 008c 2B69     		ldr	r3, [r5, #16]
 240 008e 23F00103 		bic	r3, r3, #1
 241 0092 2B61     		str	r3, [r5, #16]
 242 0094 D4E90423 		ldrd	r2, [r4, #16]
 243 0098 E761     		str	r7, [r4, #28]
 244 009a 2B69     		ldr	r3, [r5, #16]
 245 009c 92B2     		uxth	r2, r2
 246 009e 43F00103 		orr	r3, r3, #1
 247 00a2 2B61     		str	r3, [r5, #16]
 248 00a4 3280     		strh	r2, [r6]	@ movhi
 249 00a6 C7E7     		b	.L34
 250              	.L52:
 251 00a8 6368     		ldr	r3, [r4, #4]
 252 00aa 013B     		subs	r3, r3, #1
 253 00ac 6360     		str	r3, [r4, #4]
 254 00ae 6368     		ldr	r3, [r4, #4]
 255 00b0 F3B1     		cbz	r3, .L37
 256 00b2 A068     		ldr	r0, [r4, #8]
 257 00b4 FFF7FEFF 		bl	HAL_FLASH_EndOfOperationCallback
 258 00b8 A068     		ldr	r0, [r4, #8]
 259 00ba 00F58060 		add	r0, r0, #1024
 260 00be A060     		str	r0, [r4, #8]
 261 00c0 2B69     		ldr	r3, [r5, #16]
 262 00c2 23F00203 		bic	r3, r3, #2
 263 00c6 2B61     		str	r3, [r5, #16]
 264 00c8 FFF7FEFF 		bl	FLASH_PageErase
 265 00cc B4E7     		b	.L34
 266              	.L39:
 267 00ce 2378     		ldrb	r3, [r4]	@ zero_extendqisi2
 268 00d0 032B     		cmp	r3, #3
 269 00d2 1ED0     		beq	.L54
 270 00d4 2378     		ldrb	r3, [r4]	@ zero_extendqisi2
 271 00d6 A068     		ldr	r0, [r4, #8]
 272 00d8 042B     		cmp	r3, #4
 273 00da 0CBF     		ite	eq
 274 00dc 0238     		subeq	r0, r0, #2
 275 00de 0638     		subne	r0, r0, #6
 276 00e0 FFF7FEFF 		bl	HAL_FLASH_EndOfOperationCallback
 277              	.L41:
 278 00e4 4FF0FF32 		mov	r2, #-1
 279 00e8 0023     		movs	r3, #0
 280 00ea A260     		str	r2, [r4, #8]
 281 00ec 2370     		strb	r3, [r4]
 282 00ee A3E7     		b	.L34
 283              	.L37:
 284 00f0 4FF0FF30 		mov	r0, #-1
 285 00f4 A060     		str	r0, [r4, #8]
 286 00f6 2370     		strb	r3, [r4]
 287 00f8 FFF7FEFF 		bl	HAL_FLASH_EndOfOperationCallback
 288 00fc 9CE7     		b	.L34
 289              	.L53:
 290 00fe 2B69     		ldr	r3, [r5, #16]
 291 0100 0020     		movs	r0, #0
 292 0102 23F00403 		bic	r3, r3, #4
 293 0106 2B61     		str	r3, [r5, #16]
 294 0108 FFF7FEFF 		bl	HAL_FLASH_EndOfOperationCallback
ARM GAS  /var/folders/td/83895s255bq6rlxfmrv9fnww0000gn/T//cchbaRtY.s 			page 6


 295 010c 0023     		movs	r3, #0
 296 010e 2370     		strb	r3, [r4]
 297 0110 92E7     		b	.L34
 298              	.L54:
 299 0112 A068     		ldr	r0, [r4, #8]
 300 0114 FFF7FEFF 		bl	HAL_FLASH_EndOfOperationCallback
 301 0118 E4E7     		b	.L41
 302              	.L56:
 303 011a 00BF     		.align	2
 304              	.L55:
 305 011c 00200240 		.word	1073881088
 306 0120 00000000 		.word	pFlash
 308              		.section	.text.HAL_FLASH_Unlock,"ax",%progbits
 309              		.align	1
 310              		.p2align 2,,3
 311              		.global	HAL_FLASH_Unlock
 312              		.syntax unified
 313              		.thumb
 314              		.thumb_func
 316              	HAL_FLASH_Unlock:
 317              		@ args = 0, pretend = 0, frame = 0
 318              		@ frame_needed = 0, uses_anonymous_args = 0
 319              		@ link register save eliminated.
 320 0000 064B     		ldr	r3, .L60
 321 0002 1869     		ldr	r0, [r3, #16]
 322 0004 10F08000 		ands	r0, r0, #128
 323 0008 06D0     		beq	.L58
 324 000a 0549     		ldr	r1, .L60+4
 325 000c 054A     		ldr	r2, .L60+8
 326 000e 5960     		str	r1, [r3, #4]
 327 0010 5A60     		str	r2, [r3, #4]
 328 0012 1869     		ldr	r0, [r3, #16]
 329 0014 C0F3C010 		ubfx	r0, r0, #7, #1
 330              	.L58:
 331 0018 7047     		bx	lr
 332              	.L61:
 333 001a 00BF     		.align	2
 334              	.L60:
 335 001c 00200240 		.word	1073881088
 336 0020 23016745 		.word	1164378403
 337 0024 AB89EFCD 		.word	-839939669
 339              		.section	.text.HAL_FLASH_Lock,"ax",%progbits
 340              		.align	1
 341              		.p2align 2,,3
 342              		.global	HAL_FLASH_Lock
 343              		.syntax unified
 344              		.thumb
 345              		.thumb_func
 347              	HAL_FLASH_Lock:
 348              		@ args = 0, pretend = 0, frame = 0
 349              		@ frame_needed = 0, uses_anonymous_args = 0
 350              		@ link register save eliminated.
 351 0000 034A     		ldr	r2, .L63
 352 0002 0020     		movs	r0, #0
 353 0004 1369     		ldr	r3, [r2, #16]
 354 0006 43F08003 		orr	r3, r3, #128
 355 000a 1361     		str	r3, [r2, #16]
ARM GAS  /var/folders/td/83895s255bq6rlxfmrv9fnww0000gn/T//cchbaRtY.s 			page 7


 356 000c 7047     		bx	lr
 357              	.L64:
 358 000e 00BF     		.align	2
 359              	.L63:
 360 0010 00200240 		.word	1073881088
 362              		.section	.text.HAL_FLASH_OB_Unlock,"ax",%progbits
 363              		.align	1
 364              		.p2align 2,,3
 365              		.global	HAL_FLASH_OB_Unlock
 366              		.syntax unified
 367              		.thumb
 368              		.thumb_func
 370              	HAL_FLASH_OB_Unlock:
 371              		@ args = 0, pretend = 0, frame = 0
 372              		@ frame_needed = 0, uses_anonymous_args = 0
 373              		@ link register save eliminated.
 374 0000 054B     		ldr	r3, .L68
 375 0002 1869     		ldr	r0, [r3, #16]
 376 0004 10F40070 		ands	r0, r0, #512
 377 0008 04D1     		bne	.L67
 378 000a 0449     		ldr	r1, .L68+4
 379 000c 044A     		ldr	r2, .L68+8
 380 000e 9960     		str	r1, [r3, #8]
 381 0010 9A60     		str	r2, [r3, #8]
 382 0012 7047     		bx	lr
 383              	.L67:
 384 0014 0120     		movs	r0, #1
 385 0016 7047     		bx	lr
 386              	.L69:
 387              		.align	2
 388              	.L68:
 389 0018 00200240 		.word	1073881088
 390 001c 23016745 		.word	1164378403
 391 0020 AB89EFCD 		.word	-839939669
 393              		.section	.text.HAL_FLASH_OB_Lock,"ax",%progbits
 394              		.align	1
 395              		.p2align 2,,3
 396              		.global	HAL_FLASH_OB_Lock
 397              		.syntax unified
 398              		.thumb
 399              		.thumb_func
 401              	HAL_FLASH_OB_Lock:
 402              		@ args = 0, pretend = 0, frame = 0
 403              		@ frame_needed = 0, uses_anonymous_args = 0
 404              		@ link register save eliminated.
 405 0000 034A     		ldr	r2, .L71
 406 0002 0020     		movs	r0, #0
 407 0004 1369     		ldr	r3, [r2, #16]
 408 0006 23F40073 		bic	r3, r3, #512
 409 000a 1361     		str	r3, [r2, #16]
 410 000c 7047     		bx	lr
 411              	.L72:
 412 000e 00BF     		.align	2
 413              	.L71:
 414 0010 00200240 		.word	1073881088
 416              		.section	.text.HAL_FLASH_OB_Launch,"ax",%progbits
 417              		.align	1
ARM GAS  /var/folders/td/83895s255bq6rlxfmrv9fnww0000gn/T//cchbaRtY.s 			page 8


 418              		.p2align 2,,3
 419              		.global	HAL_FLASH_OB_Launch
 420              		.syntax unified
 421              		.thumb
 422              		.thumb_func
 424              	HAL_FLASH_OB_Launch:
 425              		@ args = 0, pretend = 0, frame = 0
 426              		@ frame_needed = 0, uses_anonymous_args = 0
 427              		@ link register save eliminated.
 428 0000 FFF7FEBF 		b	HAL_NVIC_SystemReset
 430              		.section	.text.HAL_FLASH_GetError,"ax",%progbits
 431              		.align	1
 432              		.p2align 2,,3
 433              		.global	HAL_FLASH_GetError
 434              		.syntax unified
 435              		.thumb
 436              		.thumb_func
 438              	HAL_FLASH_GetError:
 439              		@ args = 0, pretend = 0, frame = 0
 440              		@ frame_needed = 0, uses_anonymous_args = 0
 441              		@ link register save eliminated.
 442 0000 014B     		ldr	r3, .L75
 443 0002 D869     		ldr	r0, [r3, #28]
 444 0004 7047     		bx	lr
 445              	.L76:
 446 0006 00BF     		.align	2
 447              	.L75:
 448 0008 00000000 		.word	pFlash
 450              		.section	.text.FLASH_WaitForLastOperation,"ax",%progbits
 451              		.align	1
 452              		.p2align 2,,3
 453              		.global	FLASH_WaitForLastOperation
 454              		.syntax unified
 455              		.thumb
 456              		.thumb_func
 458              	FLASH_WaitForLastOperation:
 459              		@ args = 0, pretend = 0, frame = 0
 460              		@ frame_needed = 0, uses_anonymous_args = 0
 461 0000 70B5     		push	{r4, r5, r6, lr}
 462 0002 0446     		mov	r4, r0
 463 0004 FFF7FEFF 		bl	HAL_GetTick
 464 0008 0546     		mov	r5, r0
 465 000a 144E     		ldr	r6, .L94
 466              	.L78:
 467 000c F368     		ldr	r3, [r6, #12]
 468 000e DB07     		lsls	r3, r3, #31
 469 0010 05D5     		bpl	.L81
 470 0012 601C     		adds	r0, r4, #1
 471 0014 19D1     		bne	.L79
 472 0016 114A     		ldr	r2, .L94
 473              	.L80:
 474 0018 D368     		ldr	r3, [r2, #12]
 475 001a D907     		lsls	r1, r3, #31
 476 001c FCD4     		bmi	.L80
 477              	.L81:
 478 001e 0F4B     		ldr	r3, .L94
 479 0020 DA68     		ldr	r2, [r3, #12]
ARM GAS  /var/folders/td/83895s255bq6rlxfmrv9fnww0000gn/T//cchbaRtY.s 			page 9


 480 0022 9006     		lsls	r0, r2, #26
 481 0024 44BF     		itt	mi
 482 0026 2022     		movmi	r2, #32
 483 0028 DA60     		strmi	r2, [r3, #12]
 484 002a 0C4B     		ldr	r3, .L94
 485 002c DA68     		ldr	r2, [r3, #12]
 486 002e D106     		lsls	r1, r2, #27
 487 0030 07D4     		bmi	.L87
 488 0032 DA69     		ldr	r2, [r3, #28]
 489 0034 D207     		lsls	r2, r2, #31
 490 0036 04D4     		bmi	.L87
 491 0038 D868     		ldr	r0, [r3, #12]
 492 003a 10F00400 		ands	r0, r0, #4
 493 003e 00D1     		bne	.L87
 494 0040 70BD     		pop	{r4, r5, r6, pc}
 495              	.L87:
 496 0042 FFF7FEFF 		bl	FLASH_SetErrorCode
 497 0046 0120     		movs	r0, #1
 498 0048 70BD     		pop	{r4, r5, r6, pc}
 499              	.L79:
 500 004a 24B1     		cbz	r4, .L84
 501 004c FFF7FEFF 		bl	HAL_GetTick
 502 0050 401B     		subs	r0, r0, r5
 503 0052 A042     		cmp	r0, r4
 504 0054 DAD9     		bls	.L78
 505              	.L84:
 506 0056 0320     		movs	r0, #3
 507 0058 70BD     		pop	{r4, r5, r6, pc}
 508              	.L95:
 509 005a 00BF     		.align	2
 510              	.L94:
 511 005c 00200240 		.word	1073881088
 513              		.section	.text.HAL_FLASH_Program,"ax",%progbits
 514              		.align	1
 515              		.p2align 2,,3
 516              		.global	HAL_FLASH_Program
 517              		.syntax unified
 518              		.thumb
 519              		.thumb_func
 521              	HAL_FLASH_Program:
 522              		@ args = 0, pretend = 0, frame = 0
 523              		@ frame_needed = 0, uses_anonymous_args = 0
 524 0000 2DE9F84F 		push	{r3, r4, r5, r6, r7, r8, r9, r10, fp, lr}
 525 0004 284E     		ldr	r6, .L107
 526 0006 96F818C0 		ldrb	ip, [r6, #24]	@ zero_extendqisi2
 527 000a BCF1010F 		cmp	ip, #1
 528 000e 48D0     		beq	.L101
 529 0010 1C46     		mov	r4, r3
 530 0012 0123     		movs	r3, #1
 531 0014 0546     		mov	r5, r0
 532 0016 4CF25030 		movw	r0, #50000
 533 001a 8A46     		mov	r10, r1
 534 001c 1746     		mov	r7, r2
 535 001e 3376     		strb	r3, [r6, #24]
 536 0020 FFF7FEFF 		bl	FLASH_WaitForLastOperation
 537 0024 C8BB     		cbnz	r0, .L98
 538 0026 012D     		cmp	r5, #1
ARM GAS  /var/folders/td/83895s255bq6rlxfmrv9fnww0000gn/T//cchbaRtY.s 			page 10


 539 0028 03D0     		beq	.L99
 540 002a 022D     		cmp	r5, #2
 541 002c 14BF     		ite	ne
 542 002e 0425     		movne	r5, #4
 543 0030 0225     		moveq	r5, #2
 544              	.L99:
 545 0032 4FF00009 		mov	r9, #0
 546 0036 DFF874B0 		ldr	fp, .L107+4
 547 003a C846     		mov	r8, r9
 548 003c 0AEB4505 		add	r5, r10, r5, lsl #1
 549 0040 01E0     		b	.L100
 550              	.L106:
 551 0042 AA45     		cmp	r10, r5
 552 0044 29D0     		beq	.L98
 553              	.L100:
 554 0046 C9F12003 		rsb	r3, r9, #32
 555 004a C6F81C80 		str	r8, [r6, #28]
 556 004e A9F12002 		sub	r2, r9, #32
 557 0052 27FA09FC 		lsr	ip, r7, r9
 558 0056 04FA03F3 		lsl	r3, r4, r3
 559 005a 4CEA030C 		orr	ip, ip, r3
 560 005e 24FA02F2 		lsr	r2, r4, r2
 561 0062 DBF81030 		ldr	r3, [fp, #16]
 562 0066 4CEA020C 		orr	ip, ip, r2
 563 006a 43F00103 		orr	r3, r3, #1
 564 006e 1FFA8CFC 		uxth	ip, ip
 565 0072 CBF81030 		str	r3, [fp, #16]
 566 0076 4CF25030 		movw	r0, #50000
 567 007a AAF800C0 		strh	ip, [r10]	@ movhi
 568 007e FFF7FEFF 		bl	FLASH_WaitForLastOperation
 569 0082 DBF81030 		ldr	r3, [fp, #16]
 570 0086 0AF1020A 		add	r10, r10, #2
 571 008a 23F00103 		bic	r3, r3, #1
 572 008e 09F11009 		add	r9, r9, #16
 573 0092 CBF81030 		str	r3, [fp, #16]
 574 0096 0028     		cmp	r0, #0
 575 0098 D3D0     		beq	.L106
 576              	.L98:
 577 009a 0023     		movs	r3, #0
 578 009c 3376     		strb	r3, [r6, #24]
 579 009e BDE8F88F 		pop	{r3, r4, r5, r6, r7, r8, r9, r10, fp, pc}
 580              	.L101:
 581 00a2 0220     		movs	r0, #2
 582 00a4 BDE8F88F 		pop	{r3, r4, r5, r6, r7, r8, r9, r10, fp, pc}
 583              	.L108:
 584              		.align	2
 585              	.L107:
 586 00a8 00000000 		.word	pFlash
 587 00ac 00200240 		.word	1073881088
 589              		.global	pFlash
 590              		.section	.bss.pFlash,"aw",%nobits
 591              		.align	3
 594              	pFlash:
 595 0000 00000000 		.space	32
 595      00000000 
 595      00000000 
 595      00000000 
ARM GAS  /var/folders/td/83895s255bq6rlxfmrv9fnww0000gn/T//cchbaRtY.s 			page 11


 595      00000000 
 596              		.ident	"GCC: (Arm GNU Toolchain 13.2.rel1 (Build arm-13.7)) 13.2.1 20231009"
ARM GAS  /var/folders/td/83895s255bq6rlxfmrv9fnww0000gn/T//cchbaRtY.s 			page 12

