ARM GAS  /var/folders/td/83895s255bq6rlxfmrv9fnww0000gn/T//ccrJTKX5.s 			page 1


   1              		.cpu cortex-m3
   2              		.arch armv7-m
   3              		.fpu softvfp
   4              		.eabi_attribute 20, 1
   5              		.eabi_attribute 21, 1
   6              		.eabi_attribute 23, 3
   7              		.eabi_attribute 24, 1
   8              		.eabi_attribute 25, 1
   9              		.eabi_attribute 26, 1
  10              		.eabi_attribute 30, 2
  11              		.eabi_attribute 34, 1
  12              		.eabi_attribute 18, 4
  13              		.file	"stm32f1xx_hal_rcc.c"
  14              		.text
  15              		.section	.text.HAL_RCC_DeInit,"ax",%progbits
  16              		.align	1
  17              		.p2align 2,,3
  18              		.global	HAL_RCC_DeInit
  19              		.syntax unified
  20              		.thumb
  21              		.thumb_func
  23              	HAL_RCC_DeInit:
  24              		@ args = 0, pretend = 0, frame = 0
  25              		@ frame_needed = 0, uses_anonymous_args = 0
  26 0000 F8B5     		push	{r3, r4, r5, r6, r7, lr}
  27 0002 FFF7FEFF 		bl	HAL_GetTick
  28 0006 324C     		ldr	r4, .L17
  29 0008 0546     		mov	r5, r0
  30 000a 2368     		ldr	r3, [r4]
  31 000c 43F00103 		orr	r3, r3, #1
  32 0010 2360     		str	r3, [r4]
  33 0012 04E0     		b	.L2
  34              	.L4:
  35 0014 FFF7FEFF 		bl	HAL_GetTick
  36 0018 401B     		subs	r0, r0, r5
  37 001a 0228     		cmp	r0, #2
  38 001c 26D8     		bhi	.L6
  39              	.L2:
  40 001e 2368     		ldr	r3, [r4]
  41 0020 9B07     		lsls	r3, r3, #30
  42 0022 F7D5     		bpl	.L4
  43 0024 2368     		ldr	r3, [r4]
  44 0026 41F28837 		movw	r7, #5000
  45 002a 23F0F803 		bic	r3, r3, #248
  46 002e 43F08003 		orr	r3, r3, #128
  47 0032 2360     		str	r3, [r4]
  48 0034 FFF7FEFF 		bl	HAL_GetTick
  49 0038 0023     		movs	r3, #0
  50 003a 0546     		mov	r5, r0
  51 003c 244E     		ldr	r6, .L17
  52 003e 6360     		str	r3, [r4, #4]
  53 0040 04E0     		b	.L5
  54              	.L7:
  55 0042 FFF7FEFF 		bl	HAL_GetTick
  56 0046 401B     		subs	r0, r0, r5
  57 0048 B842     		cmp	r0, r7
  58 004a 0FD8     		bhi	.L6
ARM GAS  /var/folders/td/83895s255bq6rlxfmrv9fnww0000gn/T//ccrJTKX5.s 			page 2


  59              	.L5:
  60 004c 7368     		ldr	r3, [r6, #4]
  61 004e 13F00C0F 		tst	r3, #12
  62 0052 F6D1     		bne	.L7
  63 0054 1F49     		ldr	r1, .L17+4
  64 0056 204B     		ldr	r3, .L17+8
  65 0058 204A     		ldr	r2, .L17+12
  66 005a 0868     		ldr	r0, [r1]
  67 005c 1A60     		str	r2, [r3]
  68 005e FFF7FEFF 		bl	HAL_InitTick
  69 0062 0446     		mov	r4, r0
  70 0064 28B1     		cbz	r0, .L16
  71 0066 0124     		movs	r4, #1
  72 0068 2046     		mov	r0, r4
  73 006a F8BD     		pop	{r3, r4, r5, r6, r7, pc}
  74              	.L6:
  75 006c 0324     		movs	r4, #3
  76              	.L3:
  77 006e 2046     		mov	r0, r4
  78 0070 F8BD     		pop	{r3, r4, r5, r6, r7, pc}
  79              	.L16:
  80 0072 FFF7FEFF 		bl	HAL_GetTick
  81 0076 3368     		ldr	r3, [r6]
  82 0078 0746     		mov	r7, r0
  83 007a 23F08073 		bic	r3, r3, #16777216
  84 007e 144D     		ldr	r5, .L17
  85 0080 3360     		str	r3, [r6]
  86 0082 04E0     		b	.L8
  87              	.L9:
  88 0084 FFF7FEFF 		bl	HAL_GetTick
  89 0088 C31B     		subs	r3, r0, r7
  90 008a 022B     		cmp	r3, #2
  91 008c EED8     		bhi	.L6
  92              	.L8:
  93 008e 2B68     		ldr	r3, [r5]
  94 0090 13F00073 		ands	r3, r3, #33554432
  95 0094 F6D1     		bne	.L9
  96 0096 6B60     		str	r3, [r5, #4]
  97 0098 FFF7FEFF 		bl	HAL_GetTick
  98 009c 2B68     		ldr	r3, [r5]
  99 009e 0746     		mov	r7, r0
 100 00a0 23F41023 		bic	r3, r3, #589824
 101 00a4 0A4E     		ldr	r6, .L17
 102 00a6 2B60     		str	r3, [r5]
 103 00a8 04E0     		b	.L10
 104              	.L11:
 105 00aa FFF7FEFF 		bl	HAL_GetTick
 106 00ae C01B     		subs	r0, r0, r7
 107 00b0 6428     		cmp	r0, #100
 108 00b2 DBD8     		bhi	.L6
 109              	.L10:
 110 00b4 3368     		ldr	r3, [r6]
 111 00b6 13F40033 		ands	r3, r3, #131072
 112 00ba F6D1     		bne	.L11
 113 00bc 3268     		ldr	r2, [r6]
 114 00be 22F48022 		bic	r2, r2, #262144
 115 00c2 3260     		str	r2, [r6]
ARM GAS  /var/folders/td/83895s255bq6rlxfmrv9fnww0000gn/T//ccrJTKX5.s 			page 3


 116 00c4 726A     		ldr	r2, [r6, #36]
 117 00c6 42F08072 		orr	r2, r2, #16777216
 118 00ca 7262     		str	r2, [r6, #36]
 119 00cc B360     		str	r3, [r6, #8]
 120 00ce CEE7     		b	.L3
 121              	.L18:
 122              		.align	2
 123              	.L17:
 124 00d0 00100240 		.word	1073876992
 125 00d4 00000000 		.word	uwTickPrio
 126 00d8 00000000 		.word	SystemCoreClock
 127 00dc 00127A00 		.word	8000000
 129              		.section	.text.HAL_RCC_OscConfig,"ax",%progbits
 130              		.align	1
 131              		.p2align 2,,3
 132              		.global	HAL_RCC_OscConfig
 133              		.syntax unified
 134              		.thumb
 135              		.thumb_func
 137              	HAL_RCC_OscConfig:
 138              		@ args = 0, pretend = 0, frame = 8
 139              		@ frame_needed = 0, uses_anonymous_args = 0
 140 0000 0028     		cmp	r0, #0
 141 0002 00F0E481 		beq	.L117
 142 0006 2DE9F041 		push	{r4, r5, r6, r7, r8, lr}
 143 000a 0368     		ldr	r3, [r0]
 144 000c 0446     		mov	r4, r0
 145 000e DD07     		lsls	r5, r3, #31
 146 0010 82B0     		sub	sp, sp, #8
 147 0012 35D5     		bpl	.L22
 148 0014 9949     		ldr	r1, .L134
 149 0016 4A68     		ldr	r2, [r1, #4]
 150 0018 02F00C02 		and	r2, r2, #12
 151 001c 042A     		cmp	r2, #4
 152 001e 00F0ED80 		beq	.L23
 153 0022 4A68     		ldr	r2, [r1, #4]
 154 0024 02F00C02 		and	r2, r2, #12
 155 0028 082A     		cmp	r2, #8
 156 002a 00F0E380 		beq	.L122
 157              	.L24:
 158 002e 6368     		ldr	r3, [r4, #4]
 159 0030 B3F5803F 		cmp	r3, #65536
 160 0034 10D0     		beq	.L123
 161 0036 002B     		cmp	r3, #0
 162 0038 00F00A81 		beq	.L124
 163 003c B3F5A02F 		cmp	r3, #327680
 164 0040 00F08081 		beq	.L125
 165 0044 8D4B     		ldr	r3, .L134
 166 0046 1A68     		ldr	r2, [r3]
 167 0048 22F48032 		bic	r2, r2, #65536
 168 004c 1A60     		str	r2, [r3]
 169 004e 1A68     		ldr	r2, [r3]
 170 0050 22F48022 		bic	r2, r2, #262144
 171 0054 1A60     		str	r2, [r3]
 172 0056 04E0     		b	.L27
 173              	.L123:
 174 0058 884A     		ldr	r2, .L134
ARM GAS  /var/folders/td/83895s255bq6rlxfmrv9fnww0000gn/T//ccrJTKX5.s 			page 4


 175 005a 1368     		ldr	r3, [r2]
 176 005c 43F48033 		orr	r3, r3, #65536
 177 0060 1360     		str	r3, [r2]
 178              	.L27:
 179 0062 FFF7FEFF 		bl	HAL_GetTick
 180 0066 854E     		ldr	r6, .L134
 181 0068 0546     		mov	r5, r0
 182 006a 05E0     		b	.L31
 183              	.L33:
 184 006c FFF7FEFF 		bl	HAL_GetTick
 185 0070 401B     		subs	r0, r0, r5
 186 0072 6428     		cmp	r0, #100
 187 0074 00F2E880 		bhi	.L34
 188              	.L31:
 189 0078 3368     		ldr	r3, [r6]
 190 007a 9A03     		lsls	r2, r3, #14
 191 007c F6D5     		bpl	.L33
 192              	.L120:
 193 007e 2368     		ldr	r3, [r4]
 194              	.L22:
 195 0080 9F07     		lsls	r7, r3, #30
 196 0082 28D5     		bpl	.L37
 197 0084 7D4A     		ldr	r2, .L134
 198 0086 5168     		ldr	r1, [r2, #4]
 199 0088 11F00C0F 		tst	r1, #12
 200 008c 00F09680 		beq	.L38
 201 0090 5168     		ldr	r1, [r2, #4]
 202 0092 01F00C01 		and	r1, r1, #12
 203 0096 0829     		cmp	r1, #8
 204 0098 00F08C80 		beq	.L126
 205              	.L39:
 206 009c 2369     		ldr	r3, [r4, #16]
 207 009e 002B     		cmp	r3, #0
 208 00a0 00F01681 		beq	.L42
 209 00a4 0122     		movs	r2, #1
 210 00a6 764B     		ldr	r3, .L134+4
 211 00a8 744E     		ldr	r6, .L134
 212 00aa 1A60     		str	r2, [r3]
 213 00ac FFF7FEFF 		bl	HAL_GetTick
 214 00b0 0546     		mov	r5, r0
 215 00b2 05E0     		b	.L43
 216              	.L44:
 217 00b4 FFF7FEFF 		bl	HAL_GetTick
 218 00b8 401B     		subs	r0, r0, r5
 219 00ba 0228     		cmp	r0, #2
 220 00bc 00F2C480 		bhi	.L34
 221              	.L43:
 222 00c0 3368     		ldr	r3, [r6]
 223 00c2 9807     		lsls	r0, r3, #30
 224 00c4 F6D5     		bpl	.L44
 225 00c6 3368     		ldr	r3, [r6]
 226 00c8 6269     		ldr	r2, [r4, #20]
 227 00ca 23F0F803 		bic	r3, r3, #248
 228 00ce 43EAC203 		orr	r3, r3, r2, lsl #3
 229 00d2 3360     		str	r3, [r6]
 230 00d4 2368     		ldr	r3, [r4]
 231              	.L37:
ARM GAS  /var/folders/td/83895s255bq6rlxfmrv9fnww0000gn/T//ccrJTKX5.s 			page 5


 232 00d6 1A07     		lsls	r2, r3, #28
 233 00d8 29D4     		bmi	.L127
 234              	.L47:
 235 00da 5D07     		lsls	r5, r3, #29
 236 00dc 4BD5     		bpl	.L55
 237              	.L131:
 238 00de 674B     		ldr	r3, .L134
 239 00e0 DA69     		ldr	r2, [r3, #28]
 240 00e2 D000     		lsls	r0, r2, #3
 241 00e4 00F18480 		bmi	.L85
 242 00e8 0125     		movs	r5, #1
 243 00ea DA69     		ldr	r2, [r3, #28]
 244 00ec 42F08052 		orr	r2, r2, #268435456
 245 00f0 DA61     		str	r2, [r3, #28]
 246 00f2 DB69     		ldr	r3, [r3, #28]
 247 00f4 03F08053 		and	r3, r3, #268435456
 248 00f8 0093     		str	r3, [sp]
 249 00fa 009B     		ldr	r3, [sp]
 250              	.L56:
 251 00fc 614E     		ldr	r6, .L134+8
 252 00fe 3368     		ldr	r3, [r6]
 253 0100 D905     		lsls	r1, r3, #23
 254 0102 40F19180 		bpl	.L57
 255              	.L62:
 256 0106 E368     		ldr	r3, [r4, #12]
 257 0108 012B     		cmp	r3, #1
 258 010a 00F0F280 		beq	.L128
 259 010e 002B     		cmp	r3, #0
 260 0110 00F0BE80 		beq	.L129
 261 0114 052B     		cmp	r3, #5
 262 0116 594B     		ldr	r3, .L134
 263 0118 1A6A     		ldr	r2, [r3, #32]
 264 011a 00F02081 		beq	.L130
 265 011e 22F00102 		bic	r2, r2, #1
 266 0122 1A62     		str	r2, [r3, #32]
 267 0124 1A6A     		ldr	r2, [r3, #32]
 268 0126 22F00402 		bic	r2, r2, #4
 269 012a 1A62     		str	r2, [r3, #32]
 270 012c E6E0     		b	.L63
 271              	.L127:
 272 012e A369     		ldr	r3, [r4, #24]
 273 0130 002B     		cmp	r3, #0
 274 0132 4CD0     		beq	.L48
 275 0134 0122     		movs	r2, #1
 276 0136 524B     		ldr	r3, .L134+4
 277 0138 504E     		ldr	r6, .L134
 278 013a C3F88024 		str	r2, [r3, #1152]
 279 013e FFF7FEFF 		bl	HAL_GetTick
 280 0142 0546     		mov	r5, r0
 281 0144 04E0     		b	.L49
 282              	.L50:
 283 0146 FFF7FEFF 		bl	HAL_GetTick
 284 014a 401B     		subs	r0, r0, r5
 285 014c 0228     		cmp	r0, #2
 286 014e 7BD8     		bhi	.L34
 287              	.L49:
 288 0150 736A     		ldr	r3, [r6, #36]
ARM GAS  /var/folders/td/83895s255bq6rlxfmrv9fnww0000gn/T//ccrJTKX5.s 			page 6


 289 0152 9B07     		lsls	r3, r3, #30
 290 0154 F7D5     		bpl	.L50
 291 0156 4C4B     		ldr	r3, .L134+12
 292 0158 4C4A     		ldr	r2, .L134+16
 293 015a 1B68     		ldr	r3, [r3]
 294 015c A2FB0323 		umull	r2, r3, r2, r3
 295 0160 5B0A     		lsrs	r3, r3, #9
 296 0162 0193     		str	r3, [sp, #4]
 297              	.L51:
 298              		.syntax unified
 299              	@ 1368 "Drivers/STM32F1xx_HAL_Driver/Src/stm32f1xx_hal_rcc.c" 1
 300 0164 00BF     		nop
 301              	@ 0 "" 2
 302              		.thumb
 303              		.syntax unified
 304 0166 019B     		ldr	r3, [sp, #4]
 305 0168 5A1E     		subs	r2, r3, #1
 306 016a 0192     		str	r2, [sp, #4]
 307 016c 002B     		cmp	r3, #0
 308 016e F9D1     		bne	.L51
 309              	.L121:
 310 0170 2368     		ldr	r3, [r4]
 311 0172 5D07     		lsls	r5, r3, #29
 312 0174 B3D4     		bmi	.L131
 313              	.L55:
 314 0176 E369     		ldr	r3, [r4, #28]
 315 0178 C3B1     		cbz	r3, .L81
 316 017a 404D     		ldr	r5, .L134
 317 017c 6A68     		ldr	r2, [r5, #4]
 318 017e 02F00C02 		and	r2, r2, #12
 319 0182 082A     		cmp	r2, #8
 320 0184 00F0CD80 		beq	.L74
 321 0188 0022     		movs	r2, #0
 322 018a 022B     		cmp	r3, #2
 323 018c 3C4B     		ldr	r3, .L134+4
 324 018e 1A66     		str	r2, [r3, #96]
 325 0190 00F0ED80 		beq	.L132
 326 0194 FFF7FEFF 		bl	HAL_GetTick
 327 0198 0446     		mov	r4, r0
 328 019a 04E0     		b	.L82
 329              	.L83:
 330 019c FFF7FEFF 		bl	HAL_GetTick
 331 01a0 001B     		subs	r0, r0, r4
 332 01a2 0228     		cmp	r0, #2
 333 01a4 50D8     		bhi	.L34
 334              	.L82:
 335 01a6 2B68     		ldr	r3, [r5]
 336 01a8 9B01     		lsls	r3, r3, #6
 337 01aa F7D4     		bmi	.L83
 338              	.L81:
 339 01ac 0020     		movs	r0, #0
 340              	.L32:
 341 01ae 02B0     		add	sp, sp, #8
 342              		@ sp needed
 343 01b0 BDE8F081 		pop	{r4, r5, r6, r7, r8, pc}
 344              	.L126:
 345 01b4 5268     		ldr	r2, [r2, #4]
ARM GAS  /var/folders/td/83895s255bq6rlxfmrv9fnww0000gn/T//ccrJTKX5.s 			page 7


 346 01b6 D603     		lsls	r6, r2, #15
 347 01b8 3FF570AF 		bmi	.L39
 348              	.L38:
 349 01bc 2F4A     		ldr	r2, .L134
 350 01be 1268     		ldr	r2, [r2]
 351 01c0 9507     		lsls	r5, r2, #30
 352 01c2 25D5     		bpl	.L40
 353 01c4 2269     		ldr	r2, [r4, #16]
 354 01c6 012A     		cmp	r2, #1
 355 01c8 22D0     		beq	.L40
 356              	.L21:
 357 01ca 0120     		movs	r0, #1
 358 01cc EFE7     		b	.L32
 359              	.L48:
 360 01ce 2C4A     		ldr	r2, .L134+4
 361 01d0 2A4E     		ldr	r6, .L134
 362 01d2 C2F88034 		str	r3, [r2, #1152]
 363 01d6 FFF7FEFF 		bl	HAL_GetTick
 364 01da 0546     		mov	r5, r0
 365 01dc 04E0     		b	.L52
 366              	.L53:
 367 01de FFF7FEFF 		bl	HAL_GetTick
 368 01e2 401B     		subs	r0, r0, r5
 369 01e4 0228     		cmp	r0, #2
 370 01e6 2FD8     		bhi	.L34
 371              	.L52:
 372 01e8 736A     		ldr	r3, [r6, #36]
 373 01ea 9F07     		lsls	r7, r3, #30
 374 01ec F7D4     		bmi	.L53
 375 01ee BFE7     		b	.L121
 376              	.L85:
 377 01f0 0025     		movs	r5, #0
 378 01f2 83E7     		b	.L56
 379              	.L122:
 380 01f4 4A68     		ldr	r2, [r1, #4]
 381 01f6 D003     		lsls	r0, r2, #15
 382 01f8 7FF519AF 		bpl	.L24
 383              	.L23:
 384 01fc 1F4A     		ldr	r2, .L134
 385 01fe 1268     		ldr	r2, [r2]
 386 0200 9103     		lsls	r1, r2, #14
 387 0202 7FF53DAF 		bpl	.L22
 388 0206 6268     		ldr	r2, [r4, #4]
 389 0208 002A     		cmp	r2, #0
 390 020a 7FF439AF 		bne	.L22
 391 020e DCE7     		b	.L21
 392              	.L40:
 393 0210 1A49     		ldr	r1, .L134
 394 0212 6069     		ldr	r0, [r4, #20]
 395 0214 0A68     		ldr	r2, [r1]
 396 0216 22F0F802 		bic	r2, r2, #248
 397 021a 42EAC002 		orr	r2, r2, r0, lsl #3
 398 021e 0A60     		str	r2, [r1]
 399 0220 1A07     		lsls	r2, r3, #28
 400 0222 7FF55AAF 		bpl	.L47
 401 0226 82E7     		b	.L127
 402              	.L57:
ARM GAS  /var/folders/td/83895s255bq6rlxfmrv9fnww0000gn/T//ccrJTKX5.s 			page 8


 403 0228 3368     		ldr	r3, [r6]
 404 022a 43F48073 		orr	r3, r3, #256
 405 022e 3360     		str	r3, [r6]
 406 0230 FFF7FEFF 		bl	HAL_GetTick
 407 0234 0746     		mov	r7, r0
 408              	.L60:
 409 0236 3368     		ldr	r3, [r6]
 410 0238 DA05     		lsls	r2, r3, #23
 411 023a 3FF564AF 		bmi	.L62
 412 023e FFF7FEFF 		bl	HAL_GetTick
 413 0242 C01B     		subs	r0, r0, r7
 414 0244 6428     		cmp	r0, #100
 415 0246 F6D9     		bls	.L60
 416              	.L34:
 417 0248 0320     		movs	r0, #3
 418 024a 02B0     		add	sp, sp, #8
 419              		@ sp needed
 420 024c BDE8F081 		pop	{r4, r5, r6, r7, r8, pc}
 421              	.L124:
 422 0250 0A4D     		ldr	r5, .L134
 423 0252 2B68     		ldr	r3, [r5]
 424 0254 23F48033 		bic	r3, r3, #65536
 425 0258 2B60     		str	r3, [r5]
 426 025a 2B68     		ldr	r3, [r5]
 427 025c 23F48023 		bic	r3, r3, #262144
 428 0260 2B60     		str	r3, [r5]
 429 0262 FFF7FEFF 		bl	HAL_GetTick
 430 0266 0646     		mov	r6, r0
 431 0268 04E0     		b	.L29
 432              	.L35:
 433 026a FFF7FEFF 		bl	HAL_GetTick
 434 026e 801B     		subs	r0, r0, r6
 435 0270 6428     		cmp	r0, #100
 436 0272 E9D8     		bhi	.L34
 437              	.L29:
 438 0274 2B68     		ldr	r3, [r5]
 439 0276 9B03     		lsls	r3, r3, #14
 440 0278 F7D4     		bmi	.L35
 441 027a 00E7     		b	.L120
 442              	.L135:
 443              		.align	2
 444              	.L134:
 445 027c 00100240 		.word	1073876992
 446 0280 00004242 		.word	1111621632
 447 0284 00700040 		.word	1073770496
 448 0288 00000000 		.word	SystemCoreClock
 449 028c D34D6210 		.word	274877907
 450              	.L129:
 451 0290 504E     		ldr	r6, .L136
 452 0292 41F28838 		movw	r8, #5000
 453 0296 336A     		ldr	r3, [r6, #32]
 454 0298 23F00103 		bic	r3, r3, #1
 455 029c 3362     		str	r3, [r6, #32]
 456 029e 336A     		ldr	r3, [r6, #32]
 457 02a0 23F00403 		bic	r3, r3, #4
 458 02a4 3362     		str	r3, [r6, #32]
 459 02a6 FFF7FEFF 		bl	HAL_GetTick
ARM GAS  /var/folders/td/83895s255bq6rlxfmrv9fnww0000gn/T//ccrJTKX5.s 			page 9


 460 02aa 0746     		mov	r7, r0
 461 02ac 04E0     		b	.L65
 462              	.L71:
 463 02ae FFF7FEFF 		bl	HAL_GetTick
 464 02b2 C01B     		subs	r0, r0, r7
 465 02b4 4045     		cmp	r0, r8
 466 02b6 C7D8     		bhi	.L34
 467              	.L65:
 468 02b8 336A     		ldr	r3, [r6, #32]
 469 02ba 9807     		lsls	r0, r3, #30
 470 02bc F7D4     		bmi	.L71
 471 02be 002D     		cmp	r5, #0
 472 02c0 3FF459AF 		beq	.L55
 473              	.L133:
 474 02c4 434A     		ldr	r2, .L136
 475 02c6 D369     		ldr	r3, [r2, #28]
 476 02c8 23F08053 		bic	r3, r3, #268435456
 477 02cc D361     		str	r3, [r2, #28]
 478 02ce 52E7     		b	.L55
 479              	.L42:
 480 02d0 414A     		ldr	r2, .L136+4
 481 02d2 404E     		ldr	r6, .L136
 482 02d4 1360     		str	r3, [r2]
 483 02d6 FFF7FEFF 		bl	HAL_GetTick
 484 02da 0546     		mov	r5, r0
 485 02dc 04E0     		b	.L45
 486              	.L46:
 487 02de FFF7FEFF 		bl	HAL_GetTick
 488 02e2 401B     		subs	r0, r0, r5
 489 02e4 0228     		cmp	r0, #2
 490 02e6 AFD8     		bhi	.L34
 491              	.L45:
 492 02e8 3368     		ldr	r3, [r6]
 493 02ea 9907     		lsls	r1, r3, #30
 494 02ec F7D4     		bmi	.L46
 495 02ee 2368     		ldr	r3, [r4]
 496 02f0 F1E6     		b	.L37
 497              	.L128:
 498 02f2 384A     		ldr	r2, .L136
 499 02f4 136A     		ldr	r3, [r2, #32]
 500 02f6 43F00103 		orr	r3, r3, #1
 501 02fa 1362     		str	r3, [r2, #32]
 502              	.L63:
 503 02fc FFF7FEFF 		bl	HAL_GetTick
 504 0300 41F28838 		movw	r8, #5000
 505 0304 0646     		mov	r6, r0
 506 0306 334F     		ldr	r7, .L136
 507 0308 04E0     		b	.L67
 508              	.L68:
 509 030a FFF7FEFF 		bl	HAL_GetTick
 510 030e 801B     		subs	r0, r0, r6
 511 0310 4045     		cmp	r0, r8
 512 0312 99D8     		bhi	.L34
 513              	.L67:
 514 0314 3B6A     		ldr	r3, [r7, #32]
 515 0316 9B07     		lsls	r3, r3, #30
 516 0318 F7D5     		bpl	.L68
ARM GAS  /var/folders/td/83895s255bq6rlxfmrv9fnww0000gn/T//ccrJTKX5.s 			page 10


 517 031a 002D     		cmp	r5, #0
 518 031c 3FF42BAF 		beq	.L55
 519 0320 D0E7     		b	.L133
 520              	.L74:
 521 0322 012B     		cmp	r3, #1
 522 0324 3FF451AF 		beq	.L21
 523 0328 6B68     		ldr	r3, [r5, #4]
 524 032a 226A     		ldr	r2, [r4, #32]
 525 032c 03F48031 		and	r1, r3, #65536
 526 0330 9142     		cmp	r1, r2
 527 0332 7FF44AAF 		bne	.L21
 528 0336 606A     		ldr	r0, [r4, #36]
 529 0338 03F47013 		and	r3, r3, #3932160
 530 033c 181A     		subs	r0, r3, r0
 531 033e 18BF     		it	ne
 532 0340 0120     		movne	r0, #1
 533 0342 34E7     		b	.L32
 534              	.L125:
 535 0344 03F18043 		add	r3, r3, #1073741824
 536 0348 A3F53C33 		sub	r3, r3, #192512
 537 034c 1A68     		ldr	r2, [r3]
 538 034e 42F48022 		orr	r2, r2, #262144
 539 0352 1A60     		str	r2, [r3]
 540 0354 1A68     		ldr	r2, [r3]
 541 0356 42F48032 		orr	r2, r2, #65536
 542 035a 1A60     		str	r2, [r3]
 543 035c 81E6     		b	.L27
 544              	.L130:
 545 035e 42F00402 		orr	r2, r2, #4
 546 0362 1A62     		str	r2, [r3, #32]
 547 0364 1A6A     		ldr	r2, [r3, #32]
 548 0366 42F00102 		orr	r2, r2, #1
 549 036a 1A62     		str	r2, [r3, #32]
 550 036c C6E7     		b	.L63
 551              	.L132:
 552 036e FFF7FEFF 		bl	HAL_GetTick
 553 0372 0646     		mov	r6, r0
 554 0374 05E0     		b	.L76
 555              	.L77:
 556 0376 FFF7FEFF 		bl	HAL_GetTick
 557 037a 801B     		subs	r0, r0, r6
 558 037c 0228     		cmp	r0, #2
 559 037e 3FF663AF 		bhi	.L34
 560              	.L76:
 561 0382 2B68     		ldr	r3, [r5]
 562 0384 9901     		lsls	r1, r3, #6
 563 0386 F6D4     		bmi	.L77
 564 0388 236A     		ldr	r3, [r4, #32]
 565 038a B3F5803F 		cmp	r3, #65536
 566 038e 05D1     		bne	.L78
 567 0390 6A68     		ldr	r2, [r5, #4]
 568 0392 A168     		ldr	r1, [r4, #8]
 569 0394 22F40032 		bic	r2, r2, #131072
 570 0398 0A43     		orrs	r2, r2, r1
 571 039a 6A60     		str	r2, [r5, #4]
 572              	.L78:
 573 039c 0120     		movs	r0, #1
ARM GAS  /var/folders/td/83895s255bq6rlxfmrv9fnww0000gn/T//ccrJTKX5.s 			page 11


 574 039e 0D4D     		ldr	r5, .L136
 575 03a0 616A     		ldr	r1, [r4, #36]
 576 03a2 6A68     		ldr	r2, [r5, #4]
 577 03a4 0B43     		orrs	r3, r3, r1
 578 03a6 22F47412 		bic	r2, r2, #3997696
 579 03aa 0B49     		ldr	r1, .L136+4
 580 03ac 1343     		orrs	r3, r3, r2
 581 03ae 6B60     		str	r3, [r5, #4]
 582 03b0 0866     		str	r0, [r1, #96]
 583 03b2 FFF7FEFF 		bl	HAL_GetTick
 584 03b6 0446     		mov	r4, r0
 585 03b8 05E0     		b	.L79
 586              	.L80:
 587 03ba FFF7FEFF 		bl	HAL_GetTick
 588 03be 001B     		subs	r0, r0, r4
 589 03c0 0228     		cmp	r0, #2
 590 03c2 3FF641AF 		bhi	.L34
 591              	.L79:
 592 03c6 2B68     		ldr	r3, [r5]
 593 03c8 9A01     		lsls	r2, r3, #6
 594 03ca F6D5     		bpl	.L80
 595 03cc EEE6     		b	.L81
 596              	.L117:
 597 03ce 0120     		movs	r0, #1
 598 03d0 7047     		bx	lr
 599              	.L137:
 600 03d2 00BF     		.align	2
 601              	.L136:
 602 03d4 00100240 		.word	1073876992
 603 03d8 00004242 		.word	1111621632
 605              		.section	.text.HAL_RCC_MCOConfig,"ax",%progbits
 606              		.align	1
 607              		.p2align 2,,3
 608              		.global	HAL_RCC_MCOConfig
 609              		.syntax unified
 610              		.thumb
 611              		.thumb_func
 613              	HAL_RCC_MCOConfig:
 614              		@ args = 0, pretend = 0, frame = 24
 615              		@ frame_needed = 0, uses_anonymous_args = 0
 616 0000 F0B5     		push	{r4, r5, r6, r7, lr}
 617 0002 0022     		movs	r2, #0
 618 0004 4FF48076 		mov	r6, #256
 619 0008 0227     		movs	r7, #2
 620 000a 0323     		movs	r3, #3
 621 000c 87B0     		sub	sp, sp, #28
 622 000e CDE90267 		strd	r6, [sp, #8]
 623 0012 CDE90423 		strd	r2, r3, [sp, #16]
 624 0016 0B4C     		ldr	r4, .L140
 625 0018 0D46     		mov	r5, r1
 626 001a A369     		ldr	r3, [r4, #24]
 627 001c 0A48     		ldr	r0, .L140+4
 628 001e 43F00403 		orr	r3, r3, #4
 629 0022 A361     		str	r3, [r4, #24]
 630 0024 A369     		ldr	r3, [r4, #24]
 631 0026 02A9     		add	r1, sp, #8
 632 0028 03F00403 		and	r3, r3, #4
ARM GAS  /var/folders/td/83895s255bq6rlxfmrv9fnww0000gn/T//ccrJTKX5.s 			page 12


 633 002c 0193     		str	r3, [sp, #4]
 634 002e 019B     		ldr	r3, [sp, #4]
 635 0030 FFF7FEFF 		bl	HAL_GPIO_Init
 636 0034 6368     		ldr	r3, [r4, #4]
 637 0036 23F0E063 		bic	r3, r3, #117440512
 638 003a 2B43     		orrs	r3, r3, r5
 639 003c 6360     		str	r3, [r4, #4]
 640 003e 07B0     		add	sp, sp, #28
 641              		@ sp needed
 642 0040 F0BD     		pop	{r4, r5, r6, r7, pc}
 643              	.L141:
 644 0042 00BF     		.align	2
 645              	.L140:
 646 0044 00100240 		.word	1073876992
 647 0048 00080140 		.word	1073809408
 649              		.section	.text.HAL_RCC_EnableCSS,"ax",%progbits
 650              		.align	1
 651              		.p2align 2,,3
 652              		.global	HAL_RCC_EnableCSS
 653              		.syntax unified
 654              		.thumb
 655              		.thumb_func
 657              	HAL_RCC_EnableCSS:
 658              		@ args = 0, pretend = 0, frame = 0
 659              		@ frame_needed = 0, uses_anonymous_args = 0
 660              		@ link register save eliminated.
 661 0000 0122     		movs	r2, #1
 662 0002 014B     		ldr	r3, .L143
 663 0004 DA64     		str	r2, [r3, #76]
 664 0006 7047     		bx	lr
 665              	.L144:
 666              		.align	2
 667              	.L143:
 668 0008 00004242 		.word	1111621632
 670              		.section	.text.HAL_RCC_DisableCSS,"ax",%progbits
 671              		.align	1
 672              		.p2align 2,,3
 673              		.global	HAL_RCC_DisableCSS
 674              		.syntax unified
 675              		.thumb
 676              		.thumb_func
 678              	HAL_RCC_DisableCSS:
 679              		@ args = 0, pretend = 0, frame = 0
 680              		@ frame_needed = 0, uses_anonymous_args = 0
 681              		@ link register save eliminated.
 682 0000 0022     		movs	r2, #0
 683 0002 014B     		ldr	r3, .L146
 684 0004 DA64     		str	r2, [r3, #76]
 685 0006 7047     		bx	lr
 686              	.L147:
 687              		.align	2
 688              	.L146:
 689 0008 00004242 		.word	1111621632
 691              		.section	.text.HAL_RCC_GetSysClockFreq,"ax",%progbits
 692              		.align	1
 693              		.p2align 2,,3
 694              		.global	HAL_RCC_GetSysClockFreq
ARM GAS  /var/folders/td/83895s255bq6rlxfmrv9fnww0000gn/T//ccrJTKX5.s 			page 13


 695              		.syntax unified
 696              		.thumb
 697              		.thumb_func
 699              	HAL_RCC_GetSysClockFreq:
 700              		@ args = 0, pretend = 0, frame = 0
 701              		@ frame_needed = 0, uses_anonymous_args = 0
 702              		@ link register save eliminated.
 703 0000 0E4A     		ldr	r2, .L153
 704 0002 5368     		ldr	r3, [r2, #4]
 705 0004 03F00C01 		and	r1, r3, #12
 706 0008 0829     		cmp	r1, #8
 707 000a 01D0     		beq	.L152
 708 000c 0C48     		ldr	r0, .L153+4
 709 000e 7047     		bx	lr
 710              	.L152:
 711 0010 0C48     		ldr	r0, .L153+8
 712 0012 C3F38341 		ubfx	r1, r3, #18, #4
 713 0016 DB03     		lsls	r3, r3, #15
 714 0018 405C     		ldrb	r0, [r0, r1]	@ zero_extendqisi2
 715 001a 0AD5     		bpl	.L150
 716 001c 0849     		ldr	r1, .L153+4
 717 001e 5368     		ldr	r3, [r2, #4]
 718 0020 01FB00F0 		mul	r0, r1, r0
 719 0024 084A     		ldr	r2, .L153+12
 720 0026 C3F34043 		ubfx	r3, r3, #17, #1
 721 002a D35C     		ldrb	r3, [r2, r3]	@ zero_extendqisi2
 722 002c B0FBF3F0 		udiv	r0, r0, r3
 723 0030 7047     		bx	lr
 724              	.L150:
 725 0032 064B     		ldr	r3, .L153+16
 726 0034 03FB00F0 		mul	r0, r3, r0
 727 0038 7047     		bx	lr
 728              	.L154:
 729 003a 00BF     		.align	2
 730              	.L153:
 731 003c 00100240 		.word	1073876992
 732 0040 00127A00 		.word	8000000
 733 0044 00000000 		.word	aPLLMULFactorTable.1
 734 0048 00000000 		.word	aPredivFactorTable.0
 735 004c 00093D00 		.word	4000000
 737              		.section	.text.HAL_RCC_ClockConfig,"ax",%progbits
 738              		.align	1
 739              		.p2align 2,,3
 740              		.global	HAL_RCC_ClockConfig
 741              		.syntax unified
 742              		.thumb
 743              		.thumb_func
 745              	HAL_RCC_ClockConfig:
 746              		@ args = 0, pretend = 0, frame = 0
 747              		@ frame_needed = 0, uses_anonymous_args = 0
 748 0000 0028     		cmp	r0, #0
 749 0002 00F08C80 		beq	.L199
 750 0006 494A     		ldr	r2, .L202
 751 0008 2DE9F041 		push	{r4, r5, r6, r7, r8, lr}
 752 000c 1368     		ldr	r3, [r2]
 753 000e 0446     		mov	r4, r0
 754 0010 03F00703 		and	r3, r3, #7
ARM GAS  /var/folders/td/83895s255bq6rlxfmrv9fnww0000gn/T//ccrJTKX5.s 			page 14


 755 0014 8B42     		cmp	r3, r1
 756 0016 0D46     		mov	r5, r1
 757 0018 0CD2     		bcs	.L162
 758 001a 1368     		ldr	r3, [r2]
 759 001c 23F00703 		bic	r3, r3, #7
 760 0020 0B43     		orrs	r3, r3, r1
 761 0022 1360     		str	r3, [r2]
 762 0024 1368     		ldr	r3, [r2]
 763 0026 03F00703 		and	r3, r3, #7
 764 002a 8B42     		cmp	r3, r1
 765 002c 02D0     		beq	.L162
 766              	.L161:
 767 002e 0120     		movs	r0, #1
 768              	.L157:
 769 0030 BDE8F081 		pop	{r4, r5, r6, r7, r8, pc}
 770              	.L162:
 771 0034 2368     		ldr	r3, [r4]
 772 0036 9807     		lsls	r0, r3, #30
 773 0038 14D5     		bpl	.L160
 774 003a 5907     		lsls	r1, r3, #29
 775 003c 04D5     		bpl	.L163
 776 003e 3C49     		ldr	r1, .L202+4
 777 0040 4A68     		ldr	r2, [r1, #4]
 778 0042 42F4E062 		orr	r2, r2, #1792
 779 0046 4A60     		str	r2, [r1, #4]
 780              	.L163:
 781 0048 1A07     		lsls	r2, r3, #28
 782 004a 04D5     		bpl	.L164
 783 004c 3849     		ldr	r1, .L202+4
 784 004e 4A68     		ldr	r2, [r1, #4]
 785 0050 42F46052 		orr	r2, r2, #14336
 786 0054 4A60     		str	r2, [r1, #4]
 787              	.L164:
 788 0056 3649     		ldr	r1, .L202+4
 789 0058 A068     		ldr	r0, [r4, #8]
 790 005a 4A68     		ldr	r2, [r1, #4]
 791 005c 22F0F002 		bic	r2, r2, #240
 792 0060 0243     		orrs	r2, r2, r0
 793 0062 4A60     		str	r2, [r1, #4]
 794              	.L160:
 795 0064 DF07     		lsls	r7, r3, #31
 796 0066 20D5     		bpl	.L173
 797 0068 6268     		ldr	r2, [r4, #4]
 798 006a 314B     		ldr	r3, .L202+4
 799 006c 012A     		cmp	r2, #1
 800 006e 1B68     		ldr	r3, [r3]
 801 0070 57D0     		beq	.L200
 802 0072 022A     		cmp	r2, #2
 803 0074 50D0     		beq	.L201
 804 0076 9907     		lsls	r1, r3, #30
 805 0078 D9D5     		bpl	.L161
 806              	.L169:
 807 007a 2D4E     		ldr	r6, .L202+4
 808 007c 41F28838 		movw	r8, #5000
 809 0080 7368     		ldr	r3, [r6, #4]
 810 0082 23F00303 		bic	r3, r3, #3
 811 0086 1343     		orrs	r3, r3, r2
ARM GAS  /var/folders/td/83895s255bq6rlxfmrv9fnww0000gn/T//ccrJTKX5.s 			page 15


 812 0088 7360     		str	r3, [r6, #4]
 813 008a FFF7FEFF 		bl	HAL_GetTick
 814 008e 0746     		mov	r7, r0
 815 0090 04E0     		b	.L171
 816              	.L172:
 817 0092 FFF7FEFF 		bl	HAL_GetTick
 818 0096 C01B     		subs	r0, r0, r7
 819 0098 4045     		cmp	r0, r8
 820 009a 45D8     		bhi	.L177
 821              	.L171:
 822 009c 7368     		ldr	r3, [r6, #4]
 823 009e 6268     		ldr	r2, [r4, #4]
 824 00a0 03F00C03 		and	r3, r3, #12
 825 00a4 B3EB820F 		cmp	r3, r2, lsl #2
 826 00a8 F3D1     		bne	.L172
 827              	.L173:
 828 00aa 204A     		ldr	r2, .L202
 829 00ac 1368     		ldr	r3, [r2]
 830 00ae 03F00703 		and	r3, r3, #7
 831 00b2 AB42     		cmp	r3, r5
 832 00b4 09D9     		bls	.L167
 833 00b6 1368     		ldr	r3, [r2]
 834 00b8 23F00703 		bic	r3, r3, #7
 835 00bc 2B43     		orrs	r3, r3, r5
 836 00be 1360     		str	r3, [r2]
 837 00c0 1368     		ldr	r3, [r2]
 838 00c2 03F00703 		and	r3, r3, #7
 839 00c6 AB42     		cmp	r3, r5
 840 00c8 B1D1     		bne	.L161
 841              	.L167:
 842 00ca 2368     		ldr	r3, [r4]
 843 00cc 5A07     		lsls	r2, r3, #29
 844 00ce 06D5     		bpl	.L175
 845 00d0 1749     		ldr	r1, .L202+4
 846 00d2 E068     		ldr	r0, [r4, #12]
 847 00d4 4A68     		ldr	r2, [r1, #4]
 848 00d6 22F4E062 		bic	r2, r2, #1792
 849 00da 0243     		orrs	r2, r2, r0
 850 00dc 4A60     		str	r2, [r1, #4]
 851              	.L175:
 852 00de 1B07     		lsls	r3, r3, #28
 853 00e0 07D5     		bpl	.L176
 854 00e2 134A     		ldr	r2, .L202+4
 855 00e4 2169     		ldr	r1, [r4, #16]
 856 00e6 5368     		ldr	r3, [r2, #4]
 857 00e8 23F46053 		bic	r3, r3, #14336
 858 00ec 43EAC103 		orr	r3, r3, r1, lsl #3
 859 00f0 5360     		str	r3, [r2, #4]
 860              	.L176:
 861 00f2 FFF7FEFF 		bl	HAL_RCC_GetSysClockFreq
 862 00f6 0346     		mov	r3, r0
 863 00f8 0D4A     		ldr	r2, .L202+4
 864 00fa 0E49     		ldr	r1, .L202+8
 865 00fc 5268     		ldr	r2, [r2, #4]
 866 00fe 0E48     		ldr	r0, .L202+12
 867 0100 C2F30312 		ubfx	r2, r2, #4, #4
 868 0104 895C     		ldrb	r1, [r1, r2]	@ zero_extendqisi2
ARM GAS  /var/folders/td/83895s255bq6rlxfmrv9fnww0000gn/T//ccrJTKX5.s 			page 16


 869 0106 0D4A     		ldr	r2, .L202+16
 870 0108 CB40     		lsrs	r3, r3, r1
 871 010a 0068     		ldr	r0, [r0]
 872 010c 1360     		str	r3, [r2]
 873 010e FFF7FEFF 		bl	HAL_InitTick
 874 0112 0020     		movs	r0, #0
 875 0114 BDE8F081 		pop	{r4, r5, r6, r7, r8, pc}
 876              	.L201:
 877 0118 9801     		lsls	r0, r3, #6
 878 011a AED4     		bmi	.L169
 879 011c 87E7     		b	.L161
 880              	.L199:
 881 011e 0120     		movs	r0, #1
 882 0120 7047     		bx	lr
 883              	.L200:
 884 0122 9E03     		lsls	r6, r3, #14
 885 0124 A9D4     		bmi	.L169
 886 0126 82E7     		b	.L161
 887              	.L177:
 888 0128 0320     		movs	r0, #3
 889 012a 81E7     		b	.L157
 890              	.L203:
 891              		.align	2
 892              	.L202:
 893 012c 00200240 		.word	1073881088
 894 0130 00100240 		.word	1073876992
 895 0134 00000000 		.word	AHBPrescTable
 896 0138 00000000 		.word	uwTickPrio
 897 013c 00000000 		.word	SystemCoreClock
 899              		.section	.text.HAL_RCC_GetHCLKFreq,"ax",%progbits
 900              		.align	1
 901              		.p2align 2,,3
 902              		.global	HAL_RCC_GetHCLKFreq
 903              		.syntax unified
 904              		.thumb
 905              		.thumb_func
 907              	HAL_RCC_GetHCLKFreq:
 908              		@ args = 0, pretend = 0, frame = 0
 909              		@ frame_needed = 0, uses_anonymous_args = 0
 910              		@ link register save eliminated.
 911 0000 014B     		ldr	r3, .L205
 912 0002 1868     		ldr	r0, [r3]
 913 0004 7047     		bx	lr
 914              	.L206:
 915 0006 00BF     		.align	2
 916              	.L205:
 917 0008 00000000 		.word	SystemCoreClock
 919              		.section	.text.HAL_RCC_GetPCLK1Freq,"ax",%progbits
 920              		.align	1
 921              		.p2align 2,,3
 922              		.global	HAL_RCC_GetPCLK1Freq
 923              		.syntax unified
 924              		.thumb
 925              		.thumb_func
 927              	HAL_RCC_GetPCLK1Freq:
 928              		@ args = 0, pretend = 0, frame = 0
 929              		@ frame_needed = 0, uses_anonymous_args = 0
ARM GAS  /var/folders/td/83895s255bq6rlxfmrv9fnww0000gn/T//ccrJTKX5.s 			page 17


 930              		@ link register save eliminated.
 931 0000 044B     		ldr	r3, .L208
 932 0002 054A     		ldr	r2, .L208+4
 933 0004 5B68     		ldr	r3, [r3, #4]
 934 0006 0549     		ldr	r1, .L208+8
 935 0008 C3F30223 		ubfx	r3, r3, #8, #3
 936 000c CB5C     		ldrb	r3, [r1, r3]	@ zero_extendqisi2
 937 000e 1068     		ldr	r0, [r2]
 938 0010 D840     		lsrs	r0, r0, r3
 939 0012 7047     		bx	lr
 940              	.L209:
 941              		.align	2
 942              	.L208:
 943 0014 00100240 		.word	1073876992
 944 0018 00000000 		.word	SystemCoreClock
 945 001c 00000000 		.word	APBPrescTable
 947              		.section	.text.HAL_RCC_GetPCLK2Freq,"ax",%progbits
 948              		.align	1
 949              		.p2align 2,,3
 950              		.global	HAL_RCC_GetPCLK2Freq
 951              		.syntax unified
 952              		.thumb
 953              		.thumb_func
 955              	HAL_RCC_GetPCLK2Freq:
 956              		@ args = 0, pretend = 0, frame = 0
 957              		@ frame_needed = 0, uses_anonymous_args = 0
 958              		@ link register save eliminated.
 959 0000 044B     		ldr	r3, .L211
 960 0002 054A     		ldr	r2, .L211+4
 961 0004 5B68     		ldr	r3, [r3, #4]
 962 0006 0549     		ldr	r1, .L211+8
 963 0008 C3F3C223 		ubfx	r3, r3, #11, #3
 964 000c CB5C     		ldrb	r3, [r1, r3]	@ zero_extendqisi2
 965 000e 1068     		ldr	r0, [r2]
 966 0010 D840     		lsrs	r0, r0, r3
 967 0012 7047     		bx	lr
 968              	.L212:
 969              		.align	2
 970              	.L211:
 971 0014 00100240 		.word	1073876992
 972 0018 00000000 		.word	SystemCoreClock
 973 001c 00000000 		.word	APBPrescTable
 975              		.section	.text.HAL_RCC_GetOscConfig,"ax",%progbits
 976              		.align	1
 977              		.p2align 2,,3
 978              		.global	HAL_RCC_GetOscConfig
 979              		.syntax unified
 980              		.thumb
 981              		.thumb_func
 983              	HAL_RCC_GetOscConfig:
 984              		@ args = 0, pretend = 0, frame = 0
 985              		@ frame_needed = 0, uses_anonymous_args = 0
 986              		@ link register save eliminated.
 987 0000 0F22     		movs	r2, #15
 988 0002 1B4B     		ldr	r3, .L220
 989 0004 0260     		str	r2, [r0]
 990 0006 1A68     		ldr	r2, [r3]
ARM GAS  /var/folders/td/83895s255bq6rlxfmrv9fnww0000gn/T//ccrJTKX5.s 			page 18


 991 0008 5103     		lsls	r1, r2, #13
 992 000a 4CBF     		ite	mi
 993 000c 4FF4A022 		movmi	r2, #327680
 994 0010 1A68     		ldrpl	r2, [r3]
 995 0012 174B     		ldr	r3, .L220
 996 0014 58BF     		it	pl
 997 0016 02F48032 		andpl	r2, r2, #65536
 998 001a 4260     		str	r2, [r0, #4]
 999 001c 5A68     		ldr	r2, [r3, #4]
 1000 001e 02F40032 		and	r2, r2, #131072
 1001 0022 8260     		str	r2, [r0, #8]
 1002 0024 1A68     		ldr	r2, [r3]
 1003 0026 02F00102 		and	r2, r2, #1
 1004 002a 0261     		str	r2, [r0, #16]
 1005 002c 1A68     		ldr	r2, [r3]
 1006 002e C2F3C402 		ubfx	r2, r2, #3, #5
 1007 0032 4261     		str	r2, [r0, #20]
 1008 0034 1A6A     		ldr	r2, [r3, #32]
 1009 0036 5207     		lsls	r2, r2, #29
 1010 0038 4CBF     		ite	mi
 1011 003a 0522     		movmi	r2, #5
 1012 003c 1A6A     		ldrpl	r2, [r3, #32]
 1013 003e 0C4B     		ldr	r3, .L220
 1014 0040 58BF     		it	pl
 1015 0042 02F00102 		andpl	r2, r2, #1
 1016 0046 C260     		str	r2, [r0, #12]
 1017 0048 5A6A     		ldr	r2, [r3, #36]
 1018 004a 02F00102 		and	r2, r2, #1
 1019 004e 8261     		str	r2, [r0, #24]
 1020 0050 1A68     		ldr	r2, [r3]
 1021 0052 12F0807F 		tst	r2, #16777216
 1022 0056 0CBF     		ite	eq
 1023 0058 0122     		moveq	r2, #1
 1024 005a 0222     		movne	r2, #2
 1025 005c C261     		str	r2, [r0, #28]
 1026 005e 5A68     		ldr	r2, [r3, #4]
 1027 0060 02F48032 		and	r2, r2, #65536
 1028 0064 0262     		str	r2, [r0, #32]
 1029 0066 5B68     		ldr	r3, [r3, #4]
 1030 0068 03F47013 		and	r3, r3, #3932160
 1031 006c 4362     		str	r3, [r0, #36]
 1032 006e 7047     		bx	lr
 1033              	.L221:
 1034              		.align	2
 1035              	.L220:
 1036 0070 00100240 		.word	1073876992
 1038              		.section	.text.HAL_RCC_GetClockConfig,"ax",%progbits
 1039              		.align	1
 1040              		.p2align 2,,3
 1041              		.global	HAL_RCC_GetClockConfig
 1042              		.syntax unified
 1043              		.thumb
 1044              		.thumb_func
 1046              	HAL_RCC_GetClockConfig:
 1047              		@ args = 0, pretend = 0, frame = 0
 1048              		@ frame_needed = 0, uses_anonymous_args = 0
 1049              		@ link register save eliminated.
ARM GAS  /var/folders/td/83895s255bq6rlxfmrv9fnww0000gn/T//ccrJTKX5.s 			page 19


 1050 0000 0F22     		movs	r2, #15
 1051 0002 0D4B     		ldr	r3, .L224
 1052 0004 0260     		str	r2, [r0]
 1053 0006 5A68     		ldr	r2, [r3, #4]
 1054 0008 10B4     		push	{r4}
 1055 000a 02F00302 		and	r2, r2, #3
 1056 000e 4260     		str	r2, [r0, #4]
 1057 0010 5A68     		ldr	r2, [r3, #4]
 1058 0012 0A4C     		ldr	r4, .L224+4
 1059 0014 02F0F002 		and	r2, r2, #240
 1060 0018 8260     		str	r2, [r0, #8]
 1061 001a 5A68     		ldr	r2, [r3, #4]
 1062 001c 02F4E062 		and	r2, r2, #1792
 1063 0020 C260     		str	r2, [r0, #12]
 1064 0022 5B68     		ldr	r3, [r3, #4]
 1065 0024 DB08     		lsrs	r3, r3, #3
 1066 0026 03F4E063 		and	r3, r3, #1792
 1067 002a 0361     		str	r3, [r0, #16]
 1068 002c 2368     		ldr	r3, [r4]
 1069 002e 10BC     		pop	{r4}
 1070 0030 03F00703 		and	r3, r3, #7
 1071 0034 0B60     		str	r3, [r1]
 1072 0036 7047     		bx	lr
 1073              	.L225:
 1074              		.align	2
 1075              	.L224:
 1076 0038 00100240 		.word	1073876992
 1077 003c 00200240 		.word	1073881088
 1079              		.section	.text.HAL_RCC_CSSCallback,"ax",%progbits
 1080              		.align	1
 1081              		.p2align 2,,3
 1082              		.weak	HAL_RCC_CSSCallback
 1083              		.syntax unified
 1084              		.thumb
 1085              		.thumb_func
 1087              	HAL_RCC_CSSCallback:
 1088              		@ args = 0, pretend = 0, frame = 0
 1089              		@ frame_needed = 0, uses_anonymous_args = 0
 1090              		@ link register save eliminated.
 1091 0000 7047     		bx	lr
 1093 0002 00BF     		.section	.text.HAL_RCC_NMI_IRQHandler,"ax",%progbits
 1094              		.align	1
 1095              		.p2align 2,,3
 1096              		.global	HAL_RCC_NMI_IRQHandler
 1097              		.syntax unified
 1098              		.thumb
 1099              		.thumb_func
 1101              	HAL_RCC_NMI_IRQHandler:
 1102              		@ args = 0, pretend = 0, frame = 0
 1103              		@ frame_needed = 0, uses_anonymous_args = 0
 1104 0000 10B5     		push	{r4, lr}
 1105 0002 054C     		ldr	r4, .L234
 1106 0004 A368     		ldr	r3, [r4, #8]
 1107 0006 1B06     		lsls	r3, r3, #24
 1108 0008 00D4     		bmi	.L233
 1109 000a 10BD     		pop	{r4, pc}
 1110              	.L233:
ARM GAS  /var/folders/td/83895s255bq6rlxfmrv9fnww0000gn/T//ccrJTKX5.s 			page 20


 1111 000c FFF7FEFF 		bl	HAL_RCC_CSSCallback
 1112 0010 8023     		movs	r3, #128
 1113 0012 A372     		strb	r3, [r4, #10]
 1114 0014 10BD     		pop	{r4, pc}
 1115              	.L235:
 1116 0016 00BF     		.align	2
 1117              	.L234:
 1118 0018 00100240 		.word	1073876992
 1120              		.section	.rodata.aPredivFactorTable.0,"a"
 1121              		.align	2
 1124              	aPredivFactorTable.0:
 1125 0000 0102     		.ascii	"\001\002"
 1126              		.section	.rodata.aPLLMULFactorTable.1,"a"
 1127              		.align	2
 1130              	aPLLMULFactorTable.1:
 1131 0000 02030405 		.ascii	"\002\003\004\005\006\007\010\011\012\013\014\015\016"
 1131      06070809 
 1131      0A0B0C0D 
 1131      0E
 1132 000d 0F1010   		.ascii	"\017\020\020"
 1133              		.ident	"GCC: (Arm GNU Toolchain 13.2.rel1 (Build arm-13.7)) 13.2.1 20231009"
ARM GAS  /var/folders/td/83895s255bq6rlxfmrv9fnww0000gn/T//ccrJTKX5.s 			page 21

