ARM GAS  /var/folders/td/83895s255bq6rlxfmrv9fnww0000gn/T//ccAavjEB.s 			page 1


   1              		.cpu cortex-m3
   2              		.arch armv7-m
   3              		.fpu softvfp
   4              		.eabi_attribute 20, 1
   5              		.eabi_attribute 21, 1
   6              		.eabi_attribute 23, 3
   7              		.eabi_attribute 24, 1
   8              		.eabi_attribute 25, 1
   9              		.eabi_attribute 26, 1
  10              		.eabi_attribute 30, 2
  11              		.eabi_attribute 34, 1
  12              		.eabi_attribute 18, 4
  13              		.file	"stm32f1xx_hal.c"
  14              		.text
  15              		.section	.text.HAL_MspInit,"ax",%progbits
  16              		.align	1
  17              		.p2align 2,,3
  18              		.weak	HAL_MspInit
  19              		.syntax unified
  20              		.thumb
  21              		.thumb_func
  23              	HAL_MspInit:
  24              		@ args = 0, pretend = 0, frame = 0
  25              		@ frame_needed = 0, uses_anonymous_args = 0
  26              		@ link register save eliminated.
  27 0000 7047     		bx	lr
  29 0002 00BF     		.section	.text.HAL_MspDeInit,"ax",%progbits
  30              		.align	1
  31              		.p2align 2,,3
  32              		.weak	HAL_MspDeInit
  33              		.syntax unified
  34              		.thumb
  35              		.thumb_func
  37              	HAL_MspDeInit:
  38              		@ args = 0, pretend = 0, frame = 0
  39              		@ frame_needed = 0, uses_anonymous_args = 0
  40              		@ link register save eliminated.
  41 0000 7047     		bx	lr
  43 0002 00BF     		.section	.text.HAL_DeInit,"ax",%progbits
  44              		.align	1
  45              		.p2align 2,,3
  46              		.global	HAL_DeInit
  47              		.syntax unified
  48              		.thumb
  49              		.thumb_func
  51              	HAL_DeInit:
  52              		@ args = 0, pretend = 0, frame = 0
  53              		@ frame_needed = 0, uses_anonymous_args = 0
  54 0000 10B5     		push	{r4, lr}
  55 0002 4FF0FF32 		mov	r2, #-1
  56 0006 0024     		movs	r4, #0
  57 0008 044B     		ldr	r3, .L6
  58 000a 1A61     		str	r2, [r3, #16]
  59 000c 1C61     		str	r4, [r3, #16]
  60 000e DA60     		str	r2, [r3, #12]
  61 0010 DC60     		str	r4, [r3, #12]
  62 0012 FFF7FEFF 		bl	HAL_MspDeInit
ARM GAS  /var/folders/td/83895s255bq6rlxfmrv9fnww0000gn/T//ccAavjEB.s 			page 2


  63 0016 2046     		mov	r0, r4
  64 0018 10BD     		pop	{r4, pc}
  65              	.L7:
  66 001a 00BF     		.align	2
  67              	.L6:
  68 001c 00100240 		.word	1073876992
  70              		.section	.text.HAL_InitTick,"ax",%progbits
  71              		.align	1
  72              		.p2align 2,,3
  73              		.weak	HAL_InitTick
  74              		.syntax unified
  75              		.thumb
  76              		.thumb_func
  78              	HAL_InitTick:
  79              		@ args = 0, pretend = 0, frame = 0
  80              		@ frame_needed = 0, uses_anonymous_args = 0
  81 0000 38B5     		push	{r3, r4, r5, lr}
  82 0002 4FF47A73 		mov	r3, #1000
  83 0006 0D4A     		ldr	r2, .L14
  84 0008 0546     		mov	r5, r0
  85 000a 1178     		ldrb	r1, [r2]	@ zero_extendqisi2
  86 000c 0C4A     		ldr	r2, .L14+4
  87 000e B3FBF1F3 		udiv	r3, r3, r1
  88 0012 1268     		ldr	r2, [r2]
  89 0014 B2FBF3F0 		udiv	r0, r2, r3
  90 0018 FFF7FEFF 		bl	HAL_SYSTICK_Config
  91 001c 08B9     		cbnz	r0, .L11
  92 001e 0F2D     		cmp	r5, #15
  93 0020 01D9     		bls	.L13
  94              	.L11:
  95 0022 0120     		movs	r0, #1
  96 0024 38BD     		pop	{r3, r4, r5, pc}
  97              	.L13:
  98 0026 0446     		mov	r4, r0
  99 0028 0246     		mov	r2, r0
 100 002a 2946     		mov	r1, r5
 101 002c 4FF0FF30 		mov	r0, #-1
 102 0030 FFF7FEFF 		bl	HAL_NVIC_SetPriority
 103 0034 034B     		ldr	r3, .L14+8
 104 0036 2046     		mov	r0, r4
 105 0038 1D60     		str	r5, [r3]
 106 003a 38BD     		pop	{r3, r4, r5, pc}
 107              	.L15:
 108              		.align	2
 109              	.L14:
 110 003c 00000000 		.word	uwTickFreq
 111 0040 00000000 		.word	SystemCoreClock
 112 0044 00000000 		.word	uwTickPrio
 114              		.section	.text.HAL_Init,"ax",%progbits
 115              		.align	1
 116              		.p2align 2,,3
 117              		.global	HAL_Init
 118              		.syntax unified
 119              		.thumb
 120              		.thumb_func
 122              	HAL_Init:
 123              		@ args = 0, pretend = 0, frame = 0
ARM GAS  /var/folders/td/83895s255bq6rlxfmrv9fnww0000gn/T//ccAavjEB.s 			page 3


 124              		@ frame_needed = 0, uses_anonymous_args = 0
 125 0000 074A     		ldr	r2, .L18
 126 0002 08B5     		push	{r3, lr}
 127 0004 1368     		ldr	r3, [r2]
 128 0006 0320     		movs	r0, #3
 129 0008 43F01003 		orr	r3, r3, #16
 130 000c 1360     		str	r3, [r2]
 131 000e FFF7FEFF 		bl	HAL_NVIC_SetPriorityGrouping
 132 0012 0F20     		movs	r0, #15
 133 0014 FFF7FEFF 		bl	HAL_InitTick
 134 0018 FFF7FEFF 		bl	HAL_MspInit
 135 001c 0020     		movs	r0, #0
 136 001e 08BD     		pop	{r3, pc}
 137              	.L19:
 138              		.align	2
 139              	.L18:
 140 0020 00200240 		.word	1073881088
 142              		.section	.text.HAL_IncTick,"ax",%progbits
 143              		.align	1
 144              		.p2align 2,,3
 145              		.weak	HAL_IncTick
 146              		.syntax unified
 147              		.thumb
 148              		.thumb_func
 150              	HAL_IncTick:
 151              		@ args = 0, pretend = 0, frame = 0
 152              		@ frame_needed = 0, uses_anonymous_args = 0
 153              		@ link register save eliminated.
 154 0000 034A     		ldr	r2, .L21
 155 0002 044B     		ldr	r3, .L21+4
 156 0004 1168     		ldr	r1, [r2]
 157 0006 1B78     		ldrb	r3, [r3]	@ zero_extendqisi2
 158 0008 0B44     		add	r3, r3, r1
 159 000a 1360     		str	r3, [r2]
 160 000c 7047     		bx	lr
 161              	.L22:
 162 000e 00BF     		.align	2
 163              	.L21:
 164 0010 00000000 		.word	uwTick
 165 0014 00000000 		.word	uwTickFreq
 167              		.section	.text.HAL_GetTick,"ax",%progbits
 168              		.align	1
 169              		.p2align 2,,3
 170              		.weak	HAL_GetTick
 171              		.syntax unified
 172              		.thumb
 173              		.thumb_func
 175              	HAL_GetTick:
 176              		@ args = 0, pretend = 0, frame = 0
 177              		@ frame_needed = 0, uses_anonymous_args = 0
 178              		@ link register save eliminated.
 179 0000 014B     		ldr	r3, .L24
 180 0002 1868     		ldr	r0, [r3]
 181 0004 7047     		bx	lr
 182              	.L25:
 183 0006 00BF     		.align	2
 184              	.L24:
ARM GAS  /var/folders/td/83895s255bq6rlxfmrv9fnww0000gn/T//ccAavjEB.s 			page 4


 185 0008 00000000 		.word	uwTick
 187              		.section	.text.HAL_GetTickPrio,"ax",%progbits
 188              		.align	1
 189              		.p2align 2,,3
 190              		.global	HAL_GetTickPrio
 191              		.syntax unified
 192              		.thumb
 193              		.thumb_func
 195              	HAL_GetTickPrio:
 196              		@ args = 0, pretend = 0, frame = 0
 197              		@ frame_needed = 0, uses_anonymous_args = 0
 198              		@ link register save eliminated.
 199 0000 014B     		ldr	r3, .L27
 200 0002 1868     		ldr	r0, [r3]
 201 0004 7047     		bx	lr
 202              	.L28:
 203 0006 00BF     		.align	2
 204              	.L27:
 205 0008 00000000 		.word	uwTickPrio
 207              		.section	.text.HAL_SetTickFreq,"ax",%progbits
 208              		.align	1
 209              		.p2align 2,,3
 210              		.global	HAL_SetTickFreq
 211              		.syntax unified
 212              		.thumb
 213              		.thumb_func
 215              	HAL_SetTickFreq:
 216              		@ args = 0, pretend = 0, frame = 0
 217              		@ frame_needed = 0, uses_anonymous_args = 0
 218 0000 38B5     		push	{r3, r4, r5, lr}
 219 0002 074C     		ldr	r4, .L36
 220 0004 2578     		ldrb	r5, [r4]	@ zero_extendqisi2
 221 0006 8542     		cmp	r5, r0
 222 0008 01D1     		bne	.L35
 223 000a 0020     		movs	r0, #0
 224              	.L30:
 225 000c 38BD     		pop	{r3, r4, r5, pc}
 226              	.L35:
 227 000e 054B     		ldr	r3, .L36+4
 228 0010 2070     		strb	r0, [r4]
 229 0012 1868     		ldr	r0, [r3]
 230 0014 FFF7FEFF 		bl	HAL_InitTick
 231 0018 0028     		cmp	r0, #0
 232 001a F7D0     		beq	.L30
 233 001c 2570     		strb	r5, [r4]
 234 001e 38BD     		pop	{r3, r4, r5, pc}
 235              	.L37:
 236              		.align	2
 237              	.L36:
 238 0020 00000000 		.word	uwTickFreq
 239 0024 00000000 		.word	uwTickPrio
 241              		.section	.text.HAL_GetTickFreq,"ax",%progbits
 242              		.align	1
 243              		.p2align 2,,3
 244              		.global	HAL_GetTickFreq
 245              		.syntax unified
 246              		.thumb
ARM GAS  /var/folders/td/83895s255bq6rlxfmrv9fnww0000gn/T//ccAavjEB.s 			page 5


 247              		.thumb_func
 249              	HAL_GetTickFreq:
 250              		@ args = 0, pretend = 0, frame = 0
 251              		@ frame_needed = 0, uses_anonymous_args = 0
 252              		@ link register save eliminated.
 253 0000 014B     		ldr	r3, .L39
 254 0002 1878     		ldrb	r0, [r3]	@ zero_extendqisi2
 255 0004 7047     		bx	lr
 256              	.L40:
 257 0006 00BF     		.align	2
 258              	.L39:
 259 0008 00000000 		.word	uwTickFreq
 261              		.section	.text.HAL_Delay,"ax",%progbits
 262              		.align	1
 263              		.p2align 2,,3
 264              		.weak	HAL_Delay
 265              		.syntax unified
 266              		.thumb
 267              		.thumb_func
 269              	HAL_Delay:
 270              		@ args = 0, pretend = 0, frame = 0
 271              		@ frame_needed = 0, uses_anonymous_args = 0
 272 0000 38B5     		push	{r3, r4, r5, lr}
 273 0002 0446     		mov	r4, r0
 274 0004 FFF7FEFF 		bl	HAL_GetTick
 275 0008 631C     		adds	r3, r4, #1
 276 000a 0546     		mov	r5, r0
 277 000c 02D0     		beq	.L43
 278 000e 044B     		ldr	r3, .L49
 279 0010 1B78     		ldrb	r3, [r3]	@ zero_extendqisi2
 280 0012 1C44     		add	r4, r4, r3
 281              	.L43:
 282 0014 FFF7FEFF 		bl	HAL_GetTick
 283 0018 401B     		subs	r0, r0, r5
 284 001a A042     		cmp	r0, r4
 285 001c FAD3     		bcc	.L43
 286 001e 38BD     		pop	{r3, r4, r5, pc}
 287              	.L50:
 288              		.align	2
 289              	.L49:
 290 0020 00000000 		.word	uwTickFreq
 292              		.section	.text.HAL_SuspendTick,"ax",%progbits
 293              		.align	1
 294              		.p2align 2,,3
 295              		.weak	HAL_SuspendTick
 296              		.syntax unified
 297              		.thumb
 298              		.thumb_func
 300              	HAL_SuspendTick:
 301              		@ args = 0, pretend = 0, frame = 0
 302              		@ frame_needed = 0, uses_anonymous_args = 0
 303              		@ link register save eliminated.
 304 0000 4FF0E022 		mov	r2, #-536813568
 305 0004 1369     		ldr	r3, [r2, #16]
 306 0006 23F00203 		bic	r3, r3, #2
 307 000a 1361     		str	r3, [r2, #16]
 308 000c 7047     		bx	lr
ARM GAS  /var/folders/td/83895s255bq6rlxfmrv9fnww0000gn/T//ccAavjEB.s 			page 6


 310 000e 00BF     		.section	.text.HAL_ResumeTick,"ax",%progbits
 311              		.align	1
 312              		.p2align 2,,3
 313              		.weak	HAL_ResumeTick
 314              		.syntax unified
 315              		.thumb
 316              		.thumb_func
 318              	HAL_ResumeTick:
 319              		@ args = 0, pretend = 0, frame = 0
 320              		@ frame_needed = 0, uses_anonymous_args = 0
 321              		@ link register save eliminated.
 322 0000 4FF0E022 		mov	r2, #-536813568
 323 0004 1369     		ldr	r3, [r2, #16]
 324 0006 43F00203 		orr	r3, r3, #2
 325 000a 1361     		str	r3, [r2, #16]
 326 000c 7047     		bx	lr
 328 000e 00BF     		.section	.text.HAL_GetHalVersion,"ax",%progbits
 329              		.align	1
 330              		.p2align 2,,3
 331              		.global	HAL_GetHalVersion
 332              		.syntax unified
 333              		.thumb
 334              		.thumb_func
 336              	HAL_GetHalVersion:
 337              		@ args = 0, pretend = 0, frame = 0
 338              		@ frame_needed = 0, uses_anonymous_args = 0
 339              		@ link register save eliminated.
 340 0000 0048     		ldr	r0, .L54
 341 0002 7047     		bx	lr
 342              	.L55:
 343              		.align	2
 344              	.L54:
 345 0004 00090101 		.word	16845056
 347              		.section	.text.HAL_GetREVID,"ax",%progbits
 348              		.align	1
 349              		.p2align 2,,3
 350              		.global	HAL_GetREVID
 351              		.syntax unified
 352              		.thumb
 353              		.thumb_func
 355              	HAL_GetREVID:
 356              		@ args = 0, pretend = 0, frame = 0
 357              		@ frame_needed = 0, uses_anonymous_args = 0
 358              		@ link register save eliminated.
 359 0000 014B     		ldr	r3, .L57
 360 0002 1868     		ldr	r0, [r3]
 361 0004 000C     		lsrs	r0, r0, #16
 362 0006 7047     		bx	lr
 363              	.L58:
 364              		.align	2
 365              	.L57:
 366 0008 002004E0 		.word	-536600576
 368              		.section	.text.HAL_GetDEVID,"ax",%progbits
 369              		.align	1
 370              		.p2align 2,,3
 371              		.global	HAL_GetDEVID
 372              		.syntax unified
ARM GAS  /var/folders/td/83895s255bq6rlxfmrv9fnww0000gn/T//ccAavjEB.s 			page 7


 373              		.thumb
 374              		.thumb_func
 376              	HAL_GetDEVID:
 377              		@ args = 0, pretend = 0, frame = 0
 378              		@ frame_needed = 0, uses_anonymous_args = 0
 379              		@ link register save eliminated.
 380 0000 024B     		ldr	r3, .L60
 381 0002 1868     		ldr	r0, [r3]
 382 0004 C0F30B00 		ubfx	r0, r0, #0, #12
 383 0008 7047     		bx	lr
 384              	.L61:
 385 000a 00BF     		.align	2
 386              	.L60:
 387 000c 002004E0 		.word	-536600576
 389              		.section	.text.HAL_GetUIDw0,"ax",%progbits
 390              		.align	1
 391              		.p2align 2,,3
 392              		.global	HAL_GetUIDw0
 393              		.syntax unified
 394              		.thumb
 395              		.thumb_func
 397              	HAL_GetUIDw0:
 398              		@ args = 0, pretend = 0, frame = 0
 399              		@ frame_needed = 0, uses_anonymous_args = 0
 400              		@ link register save eliminated.
 401 0000 014B     		ldr	r3, .L63
 402 0002 D3F8E807 		ldr	r0, [r3, #2024]
 403 0006 7047     		bx	lr
 404              	.L64:
 405              		.align	2
 406              	.L63:
 407 0008 00F0FF1F 		.word	536866816
 409              		.section	.text.HAL_GetUIDw1,"ax",%progbits
 410              		.align	1
 411              		.p2align 2,,3
 412              		.global	HAL_GetUIDw1
 413              		.syntax unified
 414              		.thumb
 415              		.thumb_func
 417              	HAL_GetUIDw1:
 418              		@ args = 0, pretend = 0, frame = 0
 419              		@ frame_needed = 0, uses_anonymous_args = 0
 420              		@ link register save eliminated.
 421 0000 014B     		ldr	r3, .L66
 422 0002 D3F8EC07 		ldr	r0, [r3, #2028]
 423 0006 7047     		bx	lr
 424              	.L67:
 425              		.align	2
 426              	.L66:
 427 0008 00F0FF1F 		.word	536866816
 429              		.section	.text.HAL_GetUIDw2,"ax",%progbits
 430              		.align	1
 431              		.p2align 2,,3
 432              		.global	HAL_GetUIDw2
 433              		.syntax unified
 434              		.thumb
 435              		.thumb_func
ARM GAS  /var/folders/td/83895s255bq6rlxfmrv9fnww0000gn/T//ccAavjEB.s 			page 8


 437              	HAL_GetUIDw2:
 438              		@ args = 0, pretend = 0, frame = 0
 439              		@ frame_needed = 0, uses_anonymous_args = 0
 440              		@ link register save eliminated.
 441 0000 014B     		ldr	r3, .L69
 442 0002 D3F8F007 		ldr	r0, [r3, #2032]
 443 0006 7047     		bx	lr
 444              	.L70:
 445              		.align	2
 446              	.L69:
 447 0008 00F0FF1F 		.word	536866816
 449              		.section	.text.HAL_DBGMCU_EnableDBGSleepMode,"ax",%progbits
 450              		.align	1
 451              		.p2align 2,,3
 452              		.global	HAL_DBGMCU_EnableDBGSleepMode
 453              		.syntax unified
 454              		.thumb
 455              		.thumb_func
 457              	HAL_DBGMCU_EnableDBGSleepMode:
 458              		@ args = 0, pretend = 0, frame = 0
 459              		@ frame_needed = 0, uses_anonymous_args = 0
 460              		@ link register save eliminated.
 461 0000 024A     		ldr	r2, .L72
 462 0002 5368     		ldr	r3, [r2, #4]
 463 0004 43F00103 		orr	r3, r3, #1
 464 0008 5360     		str	r3, [r2, #4]
 465 000a 7047     		bx	lr
 466              	.L73:
 467              		.align	2
 468              	.L72:
 469 000c 002004E0 		.word	-536600576
 471              		.section	.text.HAL_DBGMCU_DisableDBGSleepMode,"ax",%progbits
 472              		.align	1
 473              		.p2align 2,,3
 474              		.global	HAL_DBGMCU_DisableDBGSleepMode
 475              		.syntax unified
 476              		.thumb
 477              		.thumb_func
 479              	HAL_DBGMCU_DisableDBGSleepMode:
 480              		@ args = 0, pretend = 0, frame = 0
 481              		@ frame_needed = 0, uses_anonymous_args = 0
 482              		@ link register save eliminated.
 483 0000 024A     		ldr	r2, .L75
 484 0002 5368     		ldr	r3, [r2, #4]
 485 0004 23F00103 		bic	r3, r3, #1
 486 0008 5360     		str	r3, [r2, #4]
 487 000a 7047     		bx	lr
 488              	.L76:
 489              		.align	2
 490              	.L75:
 491 000c 002004E0 		.word	-536600576
 493              		.section	.text.HAL_DBGMCU_EnableDBGStopMode,"ax",%progbits
 494              		.align	1
 495              		.p2align 2,,3
 496              		.global	HAL_DBGMCU_EnableDBGStopMode
 497              		.syntax unified
 498              		.thumb
ARM GAS  /var/folders/td/83895s255bq6rlxfmrv9fnww0000gn/T//ccAavjEB.s 			page 9


 499              		.thumb_func
 501              	HAL_DBGMCU_EnableDBGStopMode:
 502              		@ args = 0, pretend = 0, frame = 0
 503              		@ frame_needed = 0, uses_anonymous_args = 0
 504              		@ link register save eliminated.
 505 0000 024A     		ldr	r2, .L78
 506 0002 5368     		ldr	r3, [r2, #4]
 507 0004 43F00203 		orr	r3, r3, #2
 508 0008 5360     		str	r3, [r2, #4]
 509 000a 7047     		bx	lr
 510              	.L79:
 511              		.align	2
 512              	.L78:
 513 000c 002004E0 		.word	-536600576
 515              		.section	.text.HAL_DBGMCU_DisableDBGStopMode,"ax",%progbits
 516              		.align	1
 517              		.p2align 2,,3
 518              		.global	HAL_DBGMCU_DisableDBGStopMode
 519              		.syntax unified
 520              		.thumb
 521              		.thumb_func
 523              	HAL_DBGMCU_DisableDBGStopMode:
 524              		@ args = 0, pretend = 0, frame = 0
 525              		@ frame_needed = 0, uses_anonymous_args = 0
 526              		@ link register save eliminated.
 527 0000 024A     		ldr	r2, .L81
 528 0002 5368     		ldr	r3, [r2, #4]
 529 0004 23F00203 		bic	r3, r3, #2
 530 0008 5360     		str	r3, [r2, #4]
 531 000a 7047     		bx	lr
 532              	.L82:
 533              		.align	2
 534              	.L81:
 535 000c 002004E0 		.word	-536600576
 537              		.section	.text.HAL_DBGMCU_EnableDBGStandbyMode,"ax",%progbits
 538              		.align	1
 539              		.p2align 2,,3
 540              		.global	HAL_DBGMCU_EnableDBGStandbyMode
 541              		.syntax unified
 542              		.thumb
 543              		.thumb_func
 545              	HAL_DBGMCU_EnableDBGStandbyMode:
 546              		@ args = 0, pretend = 0, frame = 0
 547              		@ frame_needed = 0, uses_anonymous_args = 0
 548              		@ link register save eliminated.
 549 0000 024A     		ldr	r2, .L84
 550 0002 5368     		ldr	r3, [r2, #4]
 551 0004 43F00403 		orr	r3, r3, #4
 552 0008 5360     		str	r3, [r2, #4]
 553 000a 7047     		bx	lr
 554              	.L85:
 555              		.align	2
 556              	.L84:
 557 000c 002004E0 		.word	-536600576
 559              		.section	.text.HAL_DBGMCU_DisableDBGStandbyMode,"ax",%progbits
 560              		.align	1
 561              		.p2align 2,,3
ARM GAS  /var/folders/td/83895s255bq6rlxfmrv9fnww0000gn/T//ccAavjEB.s 			page 10


 562              		.global	HAL_DBGMCU_DisableDBGStandbyMode
 563              		.syntax unified
 564              		.thumb
 565              		.thumb_func
 567              	HAL_DBGMCU_DisableDBGStandbyMode:
 568              		@ args = 0, pretend = 0, frame = 0
 569              		@ frame_needed = 0, uses_anonymous_args = 0
 570              		@ link register save eliminated.
 571 0000 024A     		ldr	r2, .L87
 572 0002 5368     		ldr	r3, [r2, #4]
 573 0004 23F00403 		bic	r3, r3, #4
 574 0008 5360     		str	r3, [r2, #4]
 575 000a 7047     		bx	lr
 576              	.L88:
 577              		.align	2
 578              	.L87:
 579 000c 002004E0 		.word	-536600576
 581              		.global	uwTickFreq
 582              		.section	.data.uwTickFreq,"aw"
 585              	uwTickFreq:
 586 0000 01       		.byte	1
 587              		.global	uwTickPrio
 588              		.section	.data.uwTickPrio,"aw"
 589              		.align	2
 592              	uwTickPrio:
 593 0000 10000000 		.word	16
 594              		.global	uwTick
 595              		.section	.bss.uwTick,"aw",%nobits
 596              		.align	2
 599              	uwTick:
 600 0000 00000000 		.space	4
 601              		.ident	"GCC: (Arm GNU Toolchain 13.2.rel1 (Build arm-13.7)) 13.2.1 20231009"
ARM GAS  /var/folders/td/83895s255bq6rlxfmrv9fnww0000gn/T//ccAavjEB.s 			page 11

