ARM GAS  /var/folders/td/83895s255bq6rlxfmrv9fnww0000gn/T//cc6mqJXX.s 			page 1


   1              		.cpu cortex-m3
   2              		.arch armv7-m
   3              		.fpu softvfp
   4              		.eabi_attribute 20, 1
   5              		.eabi_attribute 21, 1
   6              		.eabi_attribute 23, 3
   7              		.eabi_attribute 24, 1
   8              		.eabi_attribute 25, 1
   9              		.eabi_attribute 26, 1
  10              		.eabi_attribute 30, 1
  11              		.eabi_attribute 34, 1
  12              		.eabi_attribute 18, 4
  13              		.file	"syscalls.c"
  14              		.text
  15              	.Ltext0:
  16              		.cfi_sections	.debug_frame
  17              		.file 1 "Core/Src/syscalls.c"
  18              		.section	.text.initialise_monitor_handles,"ax",%progbits
  19              		.align	1
  20              		.global	initialise_monitor_handles
  21              		.syntax unified
  22              		.thumb
  23              		.thumb_func
  25              	initialise_monitor_handles:
  26              	.LFB25:
   1:Core/Src/syscalls.c **** /**
   2:Core/Src/syscalls.c ****  ******************************************************************************
   3:Core/Src/syscalls.c ****  * @file      syscalls.c
   4:Core/Src/syscalls.c ****  * @author    Auto-generated by STM32CubeMX
   5:Core/Src/syscalls.c ****  * @brief     Minimal System calls file
   6:Core/Src/syscalls.c ****  *
   7:Core/Src/syscalls.c ****  *            For more information about which c-functions
   8:Core/Src/syscalls.c ****  *            need which of these lowlevel functions
   9:Core/Src/syscalls.c ****  *            please consult the Newlib libc-manual
  10:Core/Src/syscalls.c ****  ******************************************************************************
  11:Core/Src/syscalls.c ****  * @attention
  12:Core/Src/syscalls.c ****  *
  13:Core/Src/syscalls.c ****  * Copyright (c) 2020-2024 STMicroelectronics.
  14:Core/Src/syscalls.c ****  * All rights reserved.
  15:Core/Src/syscalls.c ****  *
  16:Core/Src/syscalls.c ****  * This software is licensed under terms that can be found in the LICENSE file
  17:Core/Src/syscalls.c ****  * in the root directory of this software component.
  18:Core/Src/syscalls.c ****  * If no LICENSE file comes with this software, it is provided AS-IS.
  19:Core/Src/syscalls.c ****  *
  20:Core/Src/syscalls.c ****  ******************************************************************************
  21:Core/Src/syscalls.c ****  */
  22:Core/Src/syscalls.c **** 
  23:Core/Src/syscalls.c **** /* Includes */
  24:Core/Src/syscalls.c **** #include <sys/stat.h>
  25:Core/Src/syscalls.c **** #include <stdlib.h>
  26:Core/Src/syscalls.c **** #include <errno.h>
  27:Core/Src/syscalls.c **** #include <stdio.h>
  28:Core/Src/syscalls.c **** #include <signal.h>
  29:Core/Src/syscalls.c **** #include <time.h>
  30:Core/Src/syscalls.c **** #include <sys/time.h>
  31:Core/Src/syscalls.c **** #include <sys/times.h>
  32:Core/Src/syscalls.c **** 
ARM GAS  /var/folders/td/83895s255bq6rlxfmrv9fnww0000gn/T//cc6mqJXX.s 			page 2


  33:Core/Src/syscalls.c **** 
  34:Core/Src/syscalls.c **** /* Variables */
  35:Core/Src/syscalls.c **** extern int __io_putchar(int ch) __attribute__((weak));
  36:Core/Src/syscalls.c **** extern int __io_getchar(void) __attribute__((weak));
  37:Core/Src/syscalls.c **** 
  38:Core/Src/syscalls.c **** 
  39:Core/Src/syscalls.c **** char *__env[1] = { 0 };
  40:Core/Src/syscalls.c **** char **environ = __env;
  41:Core/Src/syscalls.c **** 
  42:Core/Src/syscalls.c **** 
  43:Core/Src/syscalls.c **** /* Functions */
  44:Core/Src/syscalls.c **** void initialise_monitor_handles()
  45:Core/Src/syscalls.c **** {
  27              		.loc 1 45 1 view -0
  28              		.cfi_startproc
  29              		@ args = 0, pretend = 0, frame = 0
  30              		@ frame_needed = 0, uses_anonymous_args = 0
  31              		@ link register save eliminated.
  46:Core/Src/syscalls.c **** }
  32              		.loc 1 46 1 view .LVU1
  33 0000 7047     		bx	lr
  34              		.cfi_endproc
  35              	.LFE25:
  37              		.section	.text._getpid,"ax",%progbits
  38              		.align	1
  39              		.global	_getpid
  40              		.syntax unified
  41              		.thumb
  42              		.thumb_func
  44              	_getpid:
  45              	.LFB26:
  47:Core/Src/syscalls.c **** 
  48:Core/Src/syscalls.c **** int _getpid(void)
  49:Core/Src/syscalls.c **** {
  46              		.loc 1 49 1 view -0
  47              		.cfi_startproc
  48              		@ args = 0, pretend = 0, frame = 0
  49              		@ frame_needed = 0, uses_anonymous_args = 0
  50              		@ link register save eliminated.
  50:Core/Src/syscalls.c ****   return 1;
  51              		.loc 1 50 3 view .LVU3
  51:Core/Src/syscalls.c **** }
  52              		.loc 1 51 1 is_stmt 0 view .LVU4
  53 0000 0120     		movs	r0, #1
  54 0002 7047     		bx	lr
  55              		.cfi_endproc
  56              	.LFE26:
  58              		.section	.text._kill,"ax",%progbits
  59              		.align	1
  60              		.global	_kill
  61              		.syntax unified
  62              		.thumb
  63              		.thumb_func
  65              	_kill:
  66              	.LVL0:
  67              	.LFB27:
  52:Core/Src/syscalls.c **** 
ARM GAS  /var/folders/td/83895s255bq6rlxfmrv9fnww0000gn/T//cc6mqJXX.s 			page 3


  53:Core/Src/syscalls.c **** int _kill(int pid, int sig)
  54:Core/Src/syscalls.c **** {
  68              		.loc 1 54 1 is_stmt 1 view -0
  69              		.cfi_startproc
  70              		@ args = 0, pretend = 0, frame = 0
  71              		@ frame_needed = 0, uses_anonymous_args = 0
  72              		.loc 1 54 1 is_stmt 0 view .LVU6
  73 0000 08B5     		push	{r3, lr}
  74              	.LCFI0:
  75              		.cfi_def_cfa_offset 8
  76              		.cfi_offset 3, -8
  77              		.cfi_offset 14, -4
  55:Core/Src/syscalls.c ****   (void)pid;
  78              		.loc 1 55 3 is_stmt 1 view .LVU7
  56:Core/Src/syscalls.c ****   (void)sig;
  79              		.loc 1 56 3 view .LVU8
  57:Core/Src/syscalls.c ****   errno = EINVAL;
  80              		.loc 1 57 3 view .LVU9
  81 0002 FFF7FEFF 		bl	__errno
  82              	.LVL1:
  83              		.loc 1 57 9 is_stmt 0 discriminator 1 view .LVU10
  84 0006 1623     		movs	r3, #22
  85 0008 0360     		str	r3, [r0]
  58:Core/Src/syscalls.c ****   return -1;
  86              		.loc 1 58 3 is_stmt 1 view .LVU11
  59:Core/Src/syscalls.c **** }
  87              		.loc 1 59 1 is_stmt 0 view .LVU12
  88 000a 4FF0FF30 		mov	r0, #-1
  89 000e 08BD     		pop	{r3, pc}
  90              		.cfi_endproc
  91              	.LFE27:
  93              		.section	.text._exit,"ax",%progbits
  94              		.align	1
  95              		.global	_exit
  96              		.syntax unified
  97              		.thumb
  98              		.thumb_func
 100              	_exit:
 101              	.LVL2:
 102              	.LFB28:
  60:Core/Src/syscalls.c **** 
  61:Core/Src/syscalls.c **** void _exit (int status)
  62:Core/Src/syscalls.c **** {
 103              		.loc 1 62 1 is_stmt 1 view -0
 104              		.cfi_startproc
 105              		@ Volatile: function does not return.
 106              		@ args = 0, pretend = 0, frame = 0
 107              		@ frame_needed = 0, uses_anonymous_args = 0
 108              		.loc 1 62 1 is_stmt 0 view .LVU14
 109 0000 08B5     		push	{r3, lr}
 110              	.LCFI1:
 111              		.cfi_def_cfa_offset 8
 112              		.cfi_offset 3, -8
 113              		.cfi_offset 14, -4
  63:Core/Src/syscalls.c ****   _kill(status, -1);
 114              		.loc 1 63 3 is_stmt 1 view .LVU15
 115 0002 4FF0FF31 		mov	r1, #-1
ARM GAS  /var/folders/td/83895s255bq6rlxfmrv9fnww0000gn/T//cc6mqJXX.s 			page 4


 116 0006 FFF7FEFF 		bl	_kill
 117              	.LVL3:
 118              	.L6:
  64:Core/Src/syscalls.c ****   while (1) {}    /* Make sure we hang here */
 119              		.loc 1 64 3 view .LVU16
 120              		.loc 1 64 14 view .LVU17
 121              		.loc 1 64 9 view .LVU18
 122 000a FEE7     		b	.L6
 123              		.cfi_endproc
 124              	.LFE28:
 126              		.section	.text._read,"ax",%progbits
 127              		.align	1
 128              		.weak	_read
 129              		.syntax unified
 130              		.thumb
 131              		.thumb_func
 133              	_read:
 134              	.LVL4:
 135              	.LFB29:
  65:Core/Src/syscalls.c **** }
  66:Core/Src/syscalls.c **** 
  67:Core/Src/syscalls.c **** __attribute__((weak)) int _read(int file, char *ptr, int len)
  68:Core/Src/syscalls.c **** {
 136              		.loc 1 68 1 view -0
 137              		.cfi_startproc
 138              		@ args = 0, pretend = 0, frame = 0
 139              		@ frame_needed = 0, uses_anonymous_args = 0
 140              		.loc 1 68 1 is_stmt 0 view .LVU20
 141 0000 70B5     		push	{r4, r5, r6, lr}
 142              	.LCFI2:
 143              		.cfi_def_cfa_offset 16
 144              		.cfi_offset 4, -16
 145              		.cfi_offset 5, -12
 146              		.cfi_offset 6, -8
 147              		.cfi_offset 14, -4
 148 0002 0C46     		mov	r4, r1
 149 0004 1646     		mov	r6, r2
  69:Core/Src/syscalls.c ****   (void)file;
 150              		.loc 1 69 3 is_stmt 1 view .LVU21
  70:Core/Src/syscalls.c ****   int DataIdx;
 151              		.loc 1 70 3 view .LVU22
  71:Core/Src/syscalls.c **** 
  72:Core/Src/syscalls.c ****   for (DataIdx = 0; DataIdx < len; DataIdx++)
 152              		.loc 1 72 3 view .LVU23
 153              	.LVL5:
 154              		.loc 1 72 16 is_stmt 0 view .LVU24
 155 0006 0025     		movs	r5, #0
 156              		.loc 1 72 3 view .LVU25
 157 0008 06E0     		b	.L9
 158              	.LVL6:
 159              	.L10:
  73:Core/Src/syscalls.c ****   {
  74:Core/Src/syscalls.c ****     *ptr++ = __io_getchar();
 160              		.loc 1 74 5 is_stmt 1 view .LVU26
 161              		.loc 1 74 14 is_stmt 0 view .LVU27
 162 000a FFF7FEFF 		bl	__io_getchar
 163              	.LVL7:
ARM GAS  /var/folders/td/83895s255bq6rlxfmrv9fnww0000gn/T//cc6mqJXX.s 			page 5


 164              		.loc 1 74 9 discriminator 1 view .LVU28
 165 000e 2146     		mov	r1, r4
 166              	.LVL8:
 167              		.loc 1 74 12 discriminator 1 view .LVU29
 168 0010 01F8010B 		strb	r0, [r1], #1
 169              	.LVL9:
  72:Core/Src/syscalls.c ****   {
 170              		.loc 1 72 43 is_stmt 1 discriminator 3 view .LVU30
 171 0014 0135     		adds	r5, r5, #1
 172              	.LVL10:
 173              		.loc 1 74 9 is_stmt 0 discriminator 1 view .LVU31
 174 0016 0C46     		mov	r4, r1
 175              	.LVL11:
 176              	.L9:
  72:Core/Src/syscalls.c ****   {
 177              		.loc 1 72 29 is_stmt 1 discriminator 1 view .LVU32
 178 0018 B542     		cmp	r5, r6
 179 001a F6DB     		blt	.L10
  75:Core/Src/syscalls.c ****   }
  76:Core/Src/syscalls.c **** 
  77:Core/Src/syscalls.c ****   return len;
 180              		.loc 1 77 3 view .LVU33
  78:Core/Src/syscalls.c **** }
 181              		.loc 1 78 1 is_stmt 0 view .LVU34
 182 001c 3046     		mov	r0, r6
 183 001e 70BD     		pop	{r4, r5, r6, pc}
 184              		.loc 1 78 1 view .LVU35
 185              		.cfi_endproc
 186              	.LFE29:
 188              		.section	.text._write,"ax",%progbits
 189              		.align	1
 190              		.weak	_write
 191              		.syntax unified
 192              		.thumb
 193              		.thumb_func
 195              	_write:
 196              	.LVL12:
 197              	.LFB30:
  79:Core/Src/syscalls.c **** 
  80:Core/Src/syscalls.c **** __attribute__((weak)) int _write(int file, char *ptr, int len)
  81:Core/Src/syscalls.c **** {
 198              		.loc 1 81 1 is_stmt 1 view -0
 199              		.cfi_startproc
 200              		@ args = 0, pretend = 0, frame = 0
 201              		@ frame_needed = 0, uses_anonymous_args = 0
 202              		.loc 1 81 1 is_stmt 0 view .LVU37
 203 0000 70B5     		push	{r4, r5, r6, lr}
 204              	.LCFI3:
 205              		.cfi_def_cfa_offset 16
 206              		.cfi_offset 4, -16
 207              		.cfi_offset 5, -12
 208              		.cfi_offset 6, -8
 209              		.cfi_offset 14, -4
 210 0002 0C46     		mov	r4, r1
 211 0004 1646     		mov	r6, r2
  82:Core/Src/syscalls.c ****   (void)file;
 212              		.loc 1 82 3 is_stmt 1 view .LVU38
ARM GAS  /var/folders/td/83895s255bq6rlxfmrv9fnww0000gn/T//cc6mqJXX.s 			page 6


  83:Core/Src/syscalls.c ****   int DataIdx;
 213              		.loc 1 83 3 view .LVU39
  84:Core/Src/syscalls.c **** 
  85:Core/Src/syscalls.c ****   for (DataIdx = 0; DataIdx < len; DataIdx++)
 214              		.loc 1 85 3 view .LVU40
 215              	.LVL13:
 216              		.loc 1 85 16 is_stmt 0 view .LVU41
 217 0006 0025     		movs	r5, #0
 218              		.loc 1 85 3 view .LVU42
 219 0008 04E0     		b	.L13
 220              	.LVL14:
 221              	.L14:
  86:Core/Src/syscalls.c ****   {
  87:Core/Src/syscalls.c ****     __io_putchar(*ptr++);
 222              		.loc 1 87 5 is_stmt 1 view .LVU43
 223              		.loc 1 87 5 is_stmt 0 view .LVU44
 224 000a 14F8010B 		ldrb	r0, [r4], #1	@ zero_extendqisi2
 225              	.LVL15:
 226              		.loc 1 87 5 view .LVU45
 227 000e FFF7FEFF 		bl	__io_putchar
 228              	.LVL16:
  85:Core/Src/syscalls.c ****   {
 229              		.loc 1 85 43 is_stmt 1 discriminator 3 view .LVU46
 230 0012 0135     		adds	r5, r5, #1
 231              	.LVL17:
 232              	.L13:
  85:Core/Src/syscalls.c ****   {
 233              		.loc 1 85 29 discriminator 1 view .LVU47
 234 0014 B542     		cmp	r5, r6
 235 0016 F8DB     		blt	.L14
  88:Core/Src/syscalls.c ****   }
  89:Core/Src/syscalls.c ****   return len;
 236              		.loc 1 89 3 view .LVU48
  90:Core/Src/syscalls.c **** }
 237              		.loc 1 90 1 is_stmt 0 view .LVU49
 238 0018 3046     		mov	r0, r6
 239 001a 70BD     		pop	{r4, r5, r6, pc}
 240              		.loc 1 90 1 view .LVU50
 241              		.cfi_endproc
 242              	.LFE30:
 244              		.section	.text._close,"ax",%progbits
 245              		.align	1
 246              		.global	_close
 247              		.syntax unified
 248              		.thumb
 249              		.thumb_func
 251              	_close:
 252              	.LVL18:
 253              	.LFB31:
  91:Core/Src/syscalls.c **** 
  92:Core/Src/syscalls.c **** int _close(int file)
  93:Core/Src/syscalls.c **** {
 254              		.loc 1 93 1 is_stmt 1 view -0
 255              		.cfi_startproc
 256              		@ args = 0, pretend = 0, frame = 0
 257              		@ frame_needed = 0, uses_anonymous_args = 0
 258              		@ link register save eliminated.
ARM GAS  /var/folders/td/83895s255bq6rlxfmrv9fnww0000gn/T//cc6mqJXX.s 			page 7


  94:Core/Src/syscalls.c ****   (void)file;
 259              		.loc 1 94 3 view .LVU52
  95:Core/Src/syscalls.c ****   return -1;
 260              		.loc 1 95 3 view .LVU53
  96:Core/Src/syscalls.c **** }
 261              		.loc 1 96 1 is_stmt 0 view .LVU54
 262 0000 4FF0FF30 		mov	r0, #-1
 263              	.LVL19:
 264              		.loc 1 96 1 view .LVU55
 265 0004 7047     		bx	lr
 266              		.cfi_endproc
 267              	.LFE31:
 269              		.section	.text._fstat,"ax",%progbits
 270              		.align	1
 271              		.global	_fstat
 272              		.syntax unified
 273              		.thumb
 274              		.thumb_func
 276              	_fstat:
 277              	.LVL20:
 278              	.LFB32:
  97:Core/Src/syscalls.c **** 
  98:Core/Src/syscalls.c **** 
  99:Core/Src/syscalls.c **** int _fstat(int file, struct stat *st)
 100:Core/Src/syscalls.c **** {
 279              		.loc 1 100 1 is_stmt 1 view -0
 280              		.cfi_startproc
 281              		@ args = 0, pretend = 0, frame = 0
 282              		@ frame_needed = 0, uses_anonymous_args = 0
 283              		@ link register save eliminated.
 101:Core/Src/syscalls.c ****   (void)file;
 284              		.loc 1 101 3 view .LVU57
 102:Core/Src/syscalls.c ****   st->st_mode = S_IFCHR;
 285              		.loc 1 102 3 view .LVU58
 286              		.loc 1 102 15 is_stmt 0 view .LVU59
 287 0000 4FF40053 		mov	r3, #8192
 288 0004 4B60     		str	r3, [r1, #4]
 103:Core/Src/syscalls.c ****   return 0;
 289              		.loc 1 103 3 is_stmt 1 view .LVU60
 104:Core/Src/syscalls.c **** }
 290              		.loc 1 104 1 is_stmt 0 view .LVU61
 291 0006 0020     		movs	r0, #0
 292              	.LVL21:
 293              		.loc 1 104 1 view .LVU62
 294 0008 7047     		bx	lr
 295              		.cfi_endproc
 296              	.LFE32:
 298              		.section	.text._isatty,"ax",%progbits
 299              		.align	1
 300              		.global	_isatty
 301              		.syntax unified
 302              		.thumb
 303              		.thumb_func
 305              	_isatty:
 306              	.LVL22:
 307              	.LFB33:
 105:Core/Src/syscalls.c **** 
ARM GAS  /var/folders/td/83895s255bq6rlxfmrv9fnww0000gn/T//cc6mqJXX.s 			page 8


 106:Core/Src/syscalls.c **** int _isatty(int file)
 107:Core/Src/syscalls.c **** {
 308              		.loc 1 107 1 is_stmt 1 view -0
 309              		.cfi_startproc
 310              		@ args = 0, pretend = 0, frame = 0
 311              		@ frame_needed = 0, uses_anonymous_args = 0
 312              		@ link register save eliminated.
 108:Core/Src/syscalls.c ****   (void)file;
 313              		.loc 1 108 3 view .LVU64
 109:Core/Src/syscalls.c ****   return 1;
 314              		.loc 1 109 3 view .LVU65
 110:Core/Src/syscalls.c **** }
 315              		.loc 1 110 1 is_stmt 0 view .LVU66
 316 0000 0120     		movs	r0, #1
 317              	.LVL23:
 318              		.loc 1 110 1 view .LVU67
 319 0002 7047     		bx	lr
 320              		.cfi_endproc
 321              	.LFE33:
 323              		.section	.text._lseek,"ax",%progbits
 324              		.align	1
 325              		.global	_lseek
 326              		.syntax unified
 327              		.thumb
 328              		.thumb_func
 330              	_lseek:
 331              	.LVL24:
 332              	.LFB34:
 111:Core/Src/syscalls.c **** 
 112:Core/Src/syscalls.c **** int _lseek(int file, int ptr, int dir)
 113:Core/Src/syscalls.c **** {
 333              		.loc 1 113 1 is_stmt 1 view -0
 334              		.cfi_startproc
 335              		@ args = 0, pretend = 0, frame = 0
 336              		@ frame_needed = 0, uses_anonymous_args = 0
 337              		@ link register save eliminated.
 114:Core/Src/syscalls.c ****   (void)file;
 338              		.loc 1 114 3 view .LVU69
 115:Core/Src/syscalls.c ****   (void)ptr;
 339              		.loc 1 115 3 view .LVU70
 116:Core/Src/syscalls.c ****   (void)dir;
 340              		.loc 1 116 3 view .LVU71
 117:Core/Src/syscalls.c ****   return 0;
 341              		.loc 1 117 3 view .LVU72
 118:Core/Src/syscalls.c **** }
 342              		.loc 1 118 1 is_stmt 0 view .LVU73
 343 0000 0020     		movs	r0, #0
 344              	.LVL25:
 345              		.loc 1 118 1 view .LVU74
 346 0002 7047     		bx	lr
 347              		.cfi_endproc
 348              	.LFE34:
 350              		.section	.text._open,"ax",%progbits
 351              		.align	1
 352              		.global	_open
 353              		.syntax unified
 354              		.thumb
ARM GAS  /var/folders/td/83895s255bq6rlxfmrv9fnww0000gn/T//cc6mqJXX.s 			page 9


 355              		.thumb_func
 357              	_open:
 358              	.LVL26:
 359              	.LFB35:
 119:Core/Src/syscalls.c **** 
 120:Core/Src/syscalls.c **** int _open(char *path, int flags, ...)
 121:Core/Src/syscalls.c **** {
 360              		.loc 1 121 1 is_stmt 1 view -0
 361              		.cfi_startproc
 362              		@ args = 4, pretend = 12, frame = 0
 363              		@ frame_needed = 0, uses_anonymous_args = 1
 364              		@ link register save eliminated.
 365              		.loc 1 121 1 is_stmt 0 view .LVU76
 366 0000 0EB4     		push	{r1, r2, r3}
 367              	.LCFI4:
 368              		.cfi_def_cfa_offset 12
 369              		.cfi_offset 1, -12
 370              		.cfi_offset 2, -8
 371              		.cfi_offset 3, -4
 122:Core/Src/syscalls.c ****   (void)path;
 372              		.loc 1 122 3 is_stmt 1 view .LVU77
 123:Core/Src/syscalls.c ****   (void)flags;
 373              		.loc 1 123 3 view .LVU78
 124:Core/Src/syscalls.c ****   /* Pretend like we always fail */
 125:Core/Src/syscalls.c ****   return -1;
 374              		.loc 1 125 3 view .LVU79
 126:Core/Src/syscalls.c **** }
 375              		.loc 1 126 1 is_stmt 0 view .LVU80
 376 0002 4FF0FF30 		mov	r0, #-1
 377              	.LVL27:
 378              		.loc 1 126 1 view .LVU81
 379 0006 03B0     		add	sp, sp, #12
 380              	.LCFI5:
 381              		.cfi_restore 3
 382              		.cfi_restore 2
 383              		.cfi_restore 1
 384              		.cfi_def_cfa_offset 0
 385 0008 7047     		bx	lr
 386              		.cfi_endproc
 387              	.LFE35:
 389              		.section	.text._wait,"ax",%progbits
 390              		.align	1
 391              		.global	_wait
 392              		.syntax unified
 393              		.thumb
 394              		.thumb_func
 396              	_wait:
 397              	.LVL28:
 398              	.LFB36:
 127:Core/Src/syscalls.c **** 
 128:Core/Src/syscalls.c **** int _wait(int *status)
 129:Core/Src/syscalls.c **** {
 399              		.loc 1 129 1 is_stmt 1 view -0
 400              		.cfi_startproc
 401              		@ args = 0, pretend = 0, frame = 0
 402              		@ frame_needed = 0, uses_anonymous_args = 0
 403              		.loc 1 129 1 is_stmt 0 view .LVU83
ARM GAS  /var/folders/td/83895s255bq6rlxfmrv9fnww0000gn/T//cc6mqJXX.s 			page 10


 404 0000 08B5     		push	{r3, lr}
 405              	.LCFI6:
 406              		.cfi_def_cfa_offset 8
 407              		.cfi_offset 3, -8
 408              		.cfi_offset 14, -4
 130:Core/Src/syscalls.c ****   (void)status;
 409              		.loc 1 130 3 is_stmt 1 view .LVU84
 131:Core/Src/syscalls.c ****   errno = ECHILD;
 410              		.loc 1 131 3 view .LVU85
 411 0002 FFF7FEFF 		bl	__errno
 412              	.LVL29:
 413              		.loc 1 131 9 is_stmt 0 discriminator 1 view .LVU86
 414 0006 0A23     		movs	r3, #10
 415 0008 0360     		str	r3, [r0]
 132:Core/Src/syscalls.c ****   return -1;
 416              		.loc 1 132 3 is_stmt 1 view .LVU87
 133:Core/Src/syscalls.c **** }
 417              		.loc 1 133 1 is_stmt 0 view .LVU88
 418 000a 4FF0FF30 		mov	r0, #-1
 419 000e 08BD     		pop	{r3, pc}
 420              		.cfi_endproc
 421              	.LFE36:
 423              		.section	.text._unlink,"ax",%progbits
 424              		.align	1
 425              		.global	_unlink
 426              		.syntax unified
 427              		.thumb
 428              		.thumb_func
 430              	_unlink:
 431              	.LVL30:
 432              	.LFB37:
 134:Core/Src/syscalls.c **** 
 135:Core/Src/syscalls.c **** int _unlink(char *name)
 136:Core/Src/syscalls.c **** {
 433              		.loc 1 136 1 is_stmt 1 view -0
 434              		.cfi_startproc
 435              		@ args = 0, pretend = 0, frame = 0
 436              		@ frame_needed = 0, uses_anonymous_args = 0
 437              		.loc 1 136 1 is_stmt 0 view .LVU90
 438 0000 08B5     		push	{r3, lr}
 439              	.LCFI7:
 440              		.cfi_def_cfa_offset 8
 441              		.cfi_offset 3, -8
 442              		.cfi_offset 14, -4
 137:Core/Src/syscalls.c ****   (void)name;
 443              		.loc 1 137 3 is_stmt 1 view .LVU91
 138:Core/Src/syscalls.c ****   errno = ENOENT;
 444              		.loc 1 138 3 view .LVU92
 445 0002 FFF7FEFF 		bl	__errno
 446              	.LVL31:
 447              		.loc 1 138 9 is_stmt 0 discriminator 1 view .LVU93
 448 0006 0223     		movs	r3, #2
 449 0008 0360     		str	r3, [r0]
 139:Core/Src/syscalls.c ****   return -1;
 450              		.loc 1 139 3 is_stmt 1 view .LVU94
 140:Core/Src/syscalls.c **** }
 451              		.loc 1 140 1 is_stmt 0 view .LVU95
ARM GAS  /var/folders/td/83895s255bq6rlxfmrv9fnww0000gn/T//cc6mqJXX.s 			page 11


 452 000a 4FF0FF30 		mov	r0, #-1
 453 000e 08BD     		pop	{r3, pc}
 454              		.cfi_endproc
 455              	.LFE37:
 457              		.section	.text._times,"ax",%progbits
 458              		.align	1
 459              		.global	_times
 460              		.syntax unified
 461              		.thumb
 462              		.thumb_func
 464              	_times:
 465              	.LVL32:
 466              	.LFB38:
 141:Core/Src/syscalls.c **** 
 142:Core/Src/syscalls.c **** int _times(struct tms *buf)
 143:Core/Src/syscalls.c **** {
 467              		.loc 1 143 1 is_stmt 1 view -0
 468              		.cfi_startproc
 469              		@ args = 0, pretend = 0, frame = 0
 470              		@ frame_needed = 0, uses_anonymous_args = 0
 471              		@ link register save eliminated.
 144:Core/Src/syscalls.c ****   (void)buf;
 472              		.loc 1 144 3 view .LVU97
 145:Core/Src/syscalls.c ****   return -1;
 473              		.loc 1 145 3 view .LVU98
 146:Core/Src/syscalls.c **** }
 474              		.loc 1 146 1 is_stmt 0 view .LVU99
 475 0000 4FF0FF30 		mov	r0, #-1
 476              	.LVL33:
 477              		.loc 1 146 1 view .LVU100
 478 0004 7047     		bx	lr
 479              		.cfi_endproc
 480              	.LFE38:
 482              		.section	.text._stat,"ax",%progbits
 483              		.align	1
 484              		.global	_stat
 485              		.syntax unified
 486              		.thumb
 487              		.thumb_func
 489              	_stat:
 490              	.LVL34:
 491              	.LFB39:
 147:Core/Src/syscalls.c **** 
 148:Core/Src/syscalls.c **** int _stat(char *file, struct stat *st)
 149:Core/Src/syscalls.c **** {
 492              		.loc 1 149 1 is_stmt 1 view -0
 493              		.cfi_startproc
 494              		@ args = 0, pretend = 0, frame = 0
 495              		@ frame_needed = 0, uses_anonymous_args = 0
 496              		@ link register save eliminated.
 150:Core/Src/syscalls.c ****   (void)file;
 497              		.loc 1 150 3 view .LVU102
 151:Core/Src/syscalls.c ****   st->st_mode = S_IFCHR;
 498              		.loc 1 151 3 view .LVU103
 499              		.loc 1 151 15 is_stmt 0 view .LVU104
 500 0000 4FF40053 		mov	r3, #8192
 501 0004 4B60     		str	r3, [r1, #4]
ARM GAS  /var/folders/td/83895s255bq6rlxfmrv9fnww0000gn/T//cc6mqJXX.s 			page 12


 152:Core/Src/syscalls.c ****   return 0;
 502              		.loc 1 152 3 is_stmt 1 view .LVU105
 153:Core/Src/syscalls.c **** }
 503              		.loc 1 153 1 is_stmt 0 view .LVU106
 504 0006 0020     		movs	r0, #0
 505              	.LVL35:
 506              		.loc 1 153 1 view .LVU107
 507 0008 7047     		bx	lr
 508              		.cfi_endproc
 509              	.LFE39:
 511              		.section	.text._link,"ax",%progbits
 512              		.align	1
 513              		.global	_link
 514              		.syntax unified
 515              		.thumb
 516              		.thumb_func
 518              	_link:
 519              	.LVL36:
 520              	.LFB40:
 154:Core/Src/syscalls.c **** 
 155:Core/Src/syscalls.c **** int _link(char *old, char *new)
 156:Core/Src/syscalls.c **** {
 521              		.loc 1 156 1 is_stmt 1 view -0
 522              		.cfi_startproc
 523              		@ args = 0, pretend = 0, frame = 0
 524              		@ frame_needed = 0, uses_anonymous_args = 0
 525              		.loc 1 156 1 is_stmt 0 view .LVU109
 526 0000 08B5     		push	{r3, lr}
 527              	.LCFI8:
 528              		.cfi_def_cfa_offset 8
 529              		.cfi_offset 3, -8
 530              		.cfi_offset 14, -4
 157:Core/Src/syscalls.c ****   (void)old;
 531              		.loc 1 157 3 is_stmt 1 view .LVU110
 158:Core/Src/syscalls.c ****   (void)new;
 532              		.loc 1 158 3 view .LVU111
 159:Core/Src/syscalls.c ****   errno = EMLINK;
 533              		.loc 1 159 3 view .LVU112
 534 0002 FFF7FEFF 		bl	__errno
 535              	.LVL37:
 536              		.loc 1 159 9 is_stmt 0 discriminator 1 view .LVU113
 537 0006 1F23     		movs	r3, #31
 538 0008 0360     		str	r3, [r0]
 160:Core/Src/syscalls.c ****   return -1;
 539              		.loc 1 160 3 is_stmt 1 view .LVU114
 161:Core/Src/syscalls.c **** }
 540              		.loc 1 161 1 is_stmt 0 view .LVU115
 541 000a 4FF0FF30 		mov	r0, #-1
 542 000e 08BD     		pop	{r3, pc}
 543              		.cfi_endproc
 544              	.LFE40:
 546              		.section	.text._fork,"ax",%progbits
 547              		.align	1
 548              		.global	_fork
 549              		.syntax unified
 550              		.thumb
 551              		.thumb_func
ARM GAS  /var/folders/td/83895s255bq6rlxfmrv9fnww0000gn/T//cc6mqJXX.s 			page 13


 553              	_fork:
 554              	.LFB41:
 162:Core/Src/syscalls.c **** 
 163:Core/Src/syscalls.c **** int _fork(void)
 164:Core/Src/syscalls.c **** {
 555              		.loc 1 164 1 is_stmt 1 view -0
 556              		.cfi_startproc
 557              		@ args = 0, pretend = 0, frame = 0
 558              		@ frame_needed = 0, uses_anonymous_args = 0
 559 0000 08B5     		push	{r3, lr}
 560              	.LCFI9:
 561              		.cfi_def_cfa_offset 8
 562              		.cfi_offset 3, -8
 563              		.cfi_offset 14, -4
 165:Core/Src/syscalls.c ****   errno = EAGAIN;
 564              		.loc 1 165 3 view .LVU117
 565 0002 FFF7FEFF 		bl	__errno
 566              	.LVL38:
 567              		.loc 1 165 9 is_stmt 0 discriminator 1 view .LVU118
 568 0006 0B23     		movs	r3, #11
 569 0008 0360     		str	r3, [r0]
 166:Core/Src/syscalls.c ****   return -1;
 570              		.loc 1 166 3 is_stmt 1 view .LVU119
 167:Core/Src/syscalls.c **** }
 571              		.loc 1 167 1 is_stmt 0 view .LVU120
 572 000a 4FF0FF30 		mov	r0, #-1
 573 000e 08BD     		pop	{r3, pc}
 574              		.cfi_endproc
 575              	.LFE41:
 577              		.section	.text._execve,"ax",%progbits
 578              		.align	1
 579              		.global	_execve
 580              		.syntax unified
 581              		.thumb
 582              		.thumb_func
 584              	_execve:
 585              	.LVL39:
 586              	.LFB42:
 168:Core/Src/syscalls.c **** 
 169:Core/Src/syscalls.c **** int _execve(char *name, char **argv, char **env)
 170:Core/Src/syscalls.c **** {
 587              		.loc 1 170 1 is_stmt 1 view -0
 588              		.cfi_startproc
 589              		@ args = 0, pretend = 0, frame = 0
 590              		@ frame_needed = 0, uses_anonymous_args = 0
 591              		.loc 1 170 1 is_stmt 0 view .LVU122
 592 0000 08B5     		push	{r3, lr}
 593              	.LCFI10:
 594              		.cfi_def_cfa_offset 8
 595              		.cfi_offset 3, -8
 596              		.cfi_offset 14, -4
 171:Core/Src/syscalls.c ****   (void)name;
 597              		.loc 1 171 3 is_stmt 1 view .LVU123
 172:Core/Src/syscalls.c ****   (void)argv;
 598              		.loc 1 172 3 view .LVU124
 173:Core/Src/syscalls.c ****   (void)env;
 599              		.loc 1 173 3 view .LVU125
ARM GAS  /var/folders/td/83895s255bq6rlxfmrv9fnww0000gn/T//cc6mqJXX.s 			page 14


 174:Core/Src/syscalls.c ****   errno = ENOMEM;
 600              		.loc 1 174 3 view .LVU126
 601 0002 FFF7FEFF 		bl	__errno
 602              	.LVL40:
 603              		.loc 1 174 9 is_stmt 0 discriminator 1 view .LVU127
 604 0006 0C23     		movs	r3, #12
 605 0008 0360     		str	r3, [r0]
 175:Core/Src/syscalls.c ****   return -1;
 606              		.loc 1 175 3 is_stmt 1 view .LVU128
 176:Core/Src/syscalls.c **** }
 607              		.loc 1 176 1 is_stmt 0 view .LVU129
 608 000a 4FF0FF30 		mov	r0, #-1
 609 000e 08BD     		pop	{r3, pc}
 610              		.cfi_endproc
 611              	.LFE42:
 613              		.global	environ
 614              		.section	.data.environ,"aw"
 615              		.align	2
 618              	environ:
 619 0000 00000000 		.word	__env
 620              		.global	__env
 621              		.section	.bss.__env,"aw",%nobits
 622              		.align	2
 625              	__env:
 626 0000 00000000 		.space	4
 627              		.weak	__io_putchar
 628              		.weak	__io_getchar
 629              		.text
 630              	.Letext0:
 631              		.file 2 "/Users/luftaquila/rtworks/toolchain/outputs/arm-none-eabi-13.2.0/arm-none-eabi/include/ma
 632              		.file 3 "/Users/luftaquila/rtworks/toolchain/outputs/arm-none-eabi-13.2.0/arm-none-eabi/include/sy
 633              		.file 4 "/Users/luftaquila/rtworks/toolchain/outputs/arm-none-eabi-13.2.0/arm-none-eabi/include/sy
 634              		.file 5 "/Users/luftaquila/rtworks/toolchain/outputs/arm-none-eabi-13.2.0/arm-none-eabi/include/sy
 635              		.file 6 "/Users/luftaquila/rtworks/toolchain/outputs/arm-none-eabi-13.2.0/arm-none-eabi/include/sy
 636              		.file 7 "/Users/luftaquila/rtworks/toolchain/outputs/arm-none-eabi-13.2.0/arm-none-eabi/include/sy
 637              		.file 8 "/Users/luftaquila/rtworks/toolchain/outputs/arm-none-eabi-13.2.0/arm-none-eabi/include/sy
 638              		.file 9 "/Users/luftaquila/rtworks/toolchain/outputs/arm-none-eabi-13.2.0/arm-none-eabi/include/sy
ARM GAS  /var/folders/td/83895s255bq6rlxfmrv9fnww0000gn/T//cc6mqJXX.s 			page 15

