ARM GAS  /var/folders/td/83895s255bq6rlxfmrv9fnww0000gn/T//ccRUAcdi.s 			page 1


   1              		.cpu cortex-m3
   2              		.arch armv7-m
   3              		.fpu softvfp
   4              		.eabi_attribute 20, 1
   5              		.eabi_attribute 21, 1
   6              		.eabi_attribute 23, 3
   7              		.eabi_attribute 24, 1
   8              		.eabi_attribute 25, 1
   9              		.eabi_attribute 26, 1
  10              		.eabi_attribute 30, 2
  11              		.eabi_attribute 34, 1
  12              		.eabi_attribute 18, 4
  13              		.file	"system_stm32f1xx.c"
  14              		.text
  15              		.section	.text.SystemInit,"ax",%progbits
  16              		.align	1
  17              		.p2align 2,,3
  18              		.global	SystemInit
  19              		.syntax unified
  20              		.thumb
  21              		.thumb_func
  23              	SystemInit:
  24              		@ args = 0, pretend = 0, frame = 0
  25              		@ frame_needed = 0, uses_anonymous_args = 0
  26              		@ link register save eliminated.
  27 0000 7047     		bx	lr
  29 0002 00BF     		.section	.text.SystemCoreClockUpdate,"ax",%progbits
  30              		.align	1
  31              		.p2align 2,,3
  32              		.global	SystemCoreClockUpdate
  33              		.syntax unified
  34              		.thumb
  35              		.thumb_func
  37              	SystemCoreClockUpdate:
  38              		@ args = 0, pretend = 0, frame = 0
  39              		@ frame_needed = 0, uses_anonymous_args = 0
  40              		@ link register save eliminated.
  41 0000 114A     		ldr	r2, .L10
  42 0002 5368     		ldr	r3, [r2, #4]
  43 0004 03F00C03 		and	r3, r3, #12
  44 0008 082B     		cmp	r3, #8
  45 000a 0AD0     		beq	.L9
  46 000c 0F4B     		ldr	r3, .L10+4
  47              	.L4:
  48 000e 0E4A     		ldr	r2, .L10
  49 0010 0F48     		ldr	r0, .L10+8
  50 0012 5268     		ldr	r2, [r2, #4]
  51 0014 0F49     		ldr	r1, .L10+12
  52 0016 C2F30312 		ubfx	r2, r2, #4, #4
  53 001a 825C     		ldrb	r2, [r0, r2]	@ zero_extendqisi2
  54 001c D340     		lsrs	r3, r3, r2
  55 001e 0B60     		str	r3, [r1]
  56 0020 7047     		bx	lr
  57              	.L9:
  58 0022 5368     		ldr	r3, [r2, #4]
  59 0024 5168     		ldr	r1, [r2, #4]
  60 0026 C3F38343 		ubfx	r3, r3, #18, #4
ARM GAS  /var/folders/td/83895s255bq6rlxfmrv9fnww0000gn/T//ccRUAcdi.s 			page 2


  61 002a C903     		lsls	r1, r1, #15
  62 002c 03F10203 		add	r3, r3, #2
  63 0030 06D5     		bpl	.L8
  64 0032 5268     		ldr	r2, [r2, #4]
  65 0034 9203     		lsls	r2, r2, #14
  66 0036 03D4     		bmi	.L8
  67 0038 044A     		ldr	r2, .L10+4
  68 003a 02FB03F3 		mul	r3, r2, r3
  69 003e E6E7     		b	.L4
  70              	.L8:
  71 0040 054A     		ldr	r2, .L10+16
  72 0042 02FB03F3 		mul	r3, r2, r3
  73 0046 E2E7     		b	.L4
  74              	.L11:
  75              		.align	2
  76              	.L10:
  77 0048 00100240 		.word	1073876992
  78 004c 00127A00 		.word	8000000
  79 0050 00000000 		.word	AHBPrescTable
  80 0054 00000000 		.word	SystemCoreClock
  81 0058 00093D00 		.word	4000000
  83              		.global	APBPrescTable
  84              		.section	.rodata.APBPrescTable,"a"
  85              		.align	2
  88              	APBPrescTable:
  89 0000 00000000 		.ascii	"\000\000\000\000\001\002\003\004"
  89      01020304 
  90              		.global	AHBPrescTable
  91              		.section	.rodata.AHBPrescTable,"a"
  92              		.align	2
  95              	AHBPrescTable:
  96 0000 00000000 		.ascii	"\000\000\000\000\000\000\000\000\001\002\003\004\006"
  96      00000000 
  96      01020304 
  96      06
  97 000d 070809   		.ascii	"\007\010\011"
  98              		.global	SystemCoreClock
  99              		.section	.data.SystemCoreClock,"aw"
 100              		.align	2
 103              	SystemCoreClock:
 104 0000 0024F400 		.word	16000000
 105              		.ident	"GCC: (Arm GNU Toolchain 13.2.rel1 (Build arm-13.7)) 13.2.1 20231009"
ARM GAS  /var/folders/td/83895s255bq6rlxfmrv9fnww0000gn/T//ccRUAcdi.s 			page 3


DEFINED SYMBOLS
                            *ABS*:00000000 system_stm32f1xx.c
/var/folders/td/83895s255bq6rlxfmrv9fnww0000gn/T//ccRUAcdi.s:16     .text.SystemInit:00000000 $t
/var/folders/td/83895s255bq6rlxfmrv9fnww0000gn/T//ccRUAcdi.s:23     .text.SystemInit:00000000 SystemInit
/var/folders/td/83895s255bq6rlxfmrv9fnww0000gn/T//ccRUAcdi.s:30     .text.SystemCoreClockUpdate:00000000 $t
/var/folders/td/83895s255bq6rlxfmrv9fnww0000gn/T//ccRUAcdi.s:37     .text.SystemCoreClockUpdate:00000000 SystemCoreClockUpdate
/var/folders/td/83895s255bq6rlxfmrv9fnww0000gn/T//ccRUAcdi.s:77     .text.SystemCoreClockUpdate:00000048 $d
/var/folders/td/83895s255bq6rlxfmrv9fnww0000gn/T//ccRUAcdi.s:95     .rodata.AHBPrescTable:00000000 AHBPrescTable
/var/folders/td/83895s255bq6rlxfmrv9fnww0000gn/T//ccRUAcdi.s:103    .data.SystemCoreClock:00000000 SystemCoreClock
/var/folders/td/83895s255bq6rlxfmrv9fnww0000gn/T//ccRUAcdi.s:88     .rodata.APBPrescTable:00000000 APBPrescTable
/var/folders/td/83895s255bq6rlxfmrv9fnww0000gn/T//ccRUAcdi.s:85     .rodata.APBPrescTable:00000000 $d
/var/folders/td/83895s255bq6rlxfmrv9fnww0000gn/T//ccRUAcdi.s:92     .rodata.AHBPrescTable:00000000 $d
/var/folders/td/83895s255bq6rlxfmrv9fnww0000gn/T//ccRUAcdi.s:100    .data.SystemCoreClock:00000000 $d

NO UNDEFINED SYMBOLS
