ARM GAS  /var/folders/td/83895s255bq6rlxfmrv9fnww0000gn/T//ccoTapGm.s 			page 1


   1              		.cpu cortex-m3
   2              		.arch armv7-m
   3              		.fpu softvfp
   4              		.eabi_attribute 20, 1
   5              		.eabi_attribute 21, 1
   6              		.eabi_attribute 23, 3
   7              		.eabi_attribute 24, 1
   8              		.eabi_attribute 25, 1
   9              		.eabi_attribute 26, 1
  10              		.eabi_attribute 30, 2
  11              		.eabi_attribute 34, 1
  12              		.eabi_attribute 18, 4
  13              		.file	"tim.c"
  14              		.text
  15              		.section	.text.HAL_TIM_Base_MspInit,"ax",%progbits
  16              		.align	1
  17              		.p2align 2,,3
  18              		.global	HAL_TIM_Base_MspInit
  19              		.syntax unified
  20              		.thumb
  21              		.thumb_func
  23              	HAL_TIM_Base_MspInit:
  24              		@ args = 0, pretend = 0, frame = 8
  25              		@ frame_needed = 0, uses_anonymous_args = 0
  26              		@ link register save eliminated.
  27 0000 114A     		ldr	r2, .L8
  28 0002 0368     		ldr	r3, [r0]
  29 0004 82B0     		sub	sp, sp, #8
  30 0006 9342     		cmp	r3, r2
  31 0008 11D0     		beq	.L6
  32 000a B3F1804F 		cmp	r3, #1073741824
  33 000e 01D0     		beq	.L7
  34 0010 02B0     		add	sp, sp, #8
  35              		@ sp needed
  36 0012 7047     		bx	lr
  37              	.L7:
  38 0014 03F50433 		add	r3, r3, #135168
  39 0018 DA69     		ldr	r2, [r3, #28]
  40 001a 42F00102 		orr	r2, r2, #1
  41 001e DA61     		str	r2, [r3, #28]
  42 0020 DB69     		ldr	r3, [r3, #28]
  43 0022 03F00103 		and	r3, r3, #1
  44 0026 0193     		str	r3, [sp, #4]
  45 0028 019B     		ldr	r3, [sp, #4]
  46 002a 02B0     		add	sp, sp, #8
  47              		@ sp needed
  48 002c 7047     		bx	lr
  49              	.L6:
  50 002e 074B     		ldr	r3, .L8+4
  51 0030 9A69     		ldr	r2, [r3, #24]
  52 0032 42F40062 		orr	r2, r2, #2048
  53 0036 9A61     		str	r2, [r3, #24]
  54 0038 9B69     		ldr	r3, [r3, #24]
  55 003a 03F40063 		and	r3, r3, #2048
  56 003e 0093     		str	r3, [sp]
  57 0040 009B     		ldr	r3, [sp]
  58 0042 02B0     		add	sp, sp, #8
ARM GAS  /var/folders/td/83895s255bq6rlxfmrv9fnww0000gn/T//ccoTapGm.s 			page 2


  59              		@ sp needed
  60 0044 7047     		bx	lr
  61              	.L9:
  62 0046 00BF     		.align	2
  63              	.L8:
  64 0048 002C0140 		.word	1073818624
  65 004c 00100240 		.word	1073876992
  67              		.section	.text.HAL_TIM_MspPostInit,"ax",%progbits
  68              		.align	1
  69              		.p2align 2,,3
  70              		.global	HAL_TIM_MspPostInit
  71              		.syntax unified
  72              		.thumb
  73              		.thumb_func
  75              	HAL_TIM_MspPostInit:
  76              		@ args = 0, pretend = 0, frame = 24
  77              		@ frame_needed = 0, uses_anonymous_args = 0
  78 0000 0023     		movs	r3, #0
  79 0002 70B5     		push	{r4, r5, r6, lr}
  80 0004 1E49     		ldr	r1, .L16
  81 0006 0268     		ldr	r2, [r0]
  82 0008 86B0     		sub	sp, sp, #24
  83 000a 8A42     		cmp	r2, r1
  84 000c CDE90233 		strd	r3, r3, [sp, #8]
  85 0010 CDE90433 		strd	r3, r3, [sp, #16]
  86 0014 04D0     		beq	.L14
  87 0016 B2F1804F 		cmp	r2, #1073741824
  88 001a 1BD0     		beq	.L15
  89 001c 06B0     		add	sp, sp, #24
  90              		@ sp needed
  91 001e 70BD     		pop	{r4, r5, r6, pc}
  92              	.L14:
  93 0020 4FF4E064 		mov	r4, #1792
  94 0024 0225     		movs	r5, #2
  95 0026 0226     		movs	r6, #2
  96 0028 03F18043 		add	r3, r3, #1073741824
  97 002c 03F50433 		add	r3, r3, #135168
  98 0030 9A69     		ldr	r2, [r3, #24]
  99 0032 1448     		ldr	r0, .L16+4
 100 0034 42F00402 		orr	r2, r2, #4
 101 0038 9A61     		str	r2, [r3, #24]
 102 003a 9B69     		ldr	r3, [r3, #24]
 103 003c 02A9     		add	r1, sp, #8
 104 003e 03F00403 		and	r3, r3, #4
 105 0042 0093     		str	r3, [sp]
 106 0044 CDE90245 		strd	r4, [sp, #8]
 107 0048 009B     		ldr	r3, [sp]
 108 004a 0596     		str	r6, [sp, #20]
 109 004c FFF7FEFF 		bl	HAL_GPIO_Init
 110 0050 06B0     		add	sp, sp, #24
 111              		@ sp needed
 112 0052 70BD     		pop	{r4, r5, r6, pc}
 113              	.L15:
 114 0054 0724     		movs	r4, #7
 115 0056 0225     		movs	r5, #2
 116 0058 0226     		movs	r6, #2
 117 005a 0B4B     		ldr	r3, .L16+8
ARM GAS  /var/folders/td/83895s255bq6rlxfmrv9fnww0000gn/T//ccoTapGm.s 			page 3


 118 005c 0948     		ldr	r0, .L16+4
 119 005e 9A69     		ldr	r2, [r3, #24]
 120 0060 02A9     		add	r1, sp, #8
 121 0062 42F00402 		orr	r2, r2, #4
 122 0066 9A61     		str	r2, [r3, #24]
 123 0068 9B69     		ldr	r3, [r3, #24]
 124 006a CDE90245 		strd	r4, [sp, #8]
 125 006e 03F00403 		and	r3, r3, #4
 126 0072 0193     		str	r3, [sp, #4]
 127 0074 019B     		ldr	r3, [sp, #4]
 128 0076 0596     		str	r6, [sp, #20]
 129 0078 FFF7FEFF 		bl	HAL_GPIO_Init
 130 007c 06B0     		add	sp, sp, #24
 131              		@ sp needed
 132 007e 70BD     		pop	{r4, r5, r6, pc}
 133              	.L17:
 134              		.align	2
 135              	.L16:
 136 0080 002C0140 		.word	1073818624
 137 0084 00080140 		.word	1073809408
 138 0088 00100240 		.word	1073876992
 140              		.section	.text.MX_TIM1_Init,"ax",%progbits
 141              		.align	1
 142              		.p2align 2,,3
 143              		.global	MX_TIM1_Init
 144              		.syntax unified
 145              		.thumb
 146              		.thumb_func
 148              	MX_TIM1_Init:
 149              		@ args = 0, pretend = 0, frame = 88
 150              		@ frame_needed = 0, uses_anonymous_args = 0
 151 0000 30B5     		push	{r4, r5, lr}
 152 0002 0024     		movs	r4, #0
 153 0004 97B0     		sub	sp, sp, #92
 154 0006 2022     		movs	r2, #32
 155 0008 2146     		mov	r1, r4
 156 000a 0EA8     		add	r0, sp, #56
 157 000c CDE90344 		strd	r4, r4, [sp, #12]
 158 0010 CDE90744 		strd	r4, r4, [sp, #28]
 159 0014 CDE90944 		strd	r4, r4, [sp, #36]
 160 0018 CDE90B44 		strd	r4, r4, [sp, #44]
 161 001c 0294     		str	r4, [sp, #8]
 162 001e 0094     		str	r4, [sp]
 163 0020 0694     		str	r4, [sp, #24]
 164 0022 0594     		str	r4, [sp, #20]
 165 0024 0194     		str	r4, [sp, #4]
 166 0026 FFF7FEFF 		bl	memset
 167 002a 40F24B43 		movw	r3, #1099
 168 002e 2C22     		movs	r2, #44
 169 0030 3848     		ldr	r0, .L60
 170 0032 C0E90243 		strd	r4, r3, [r0, #8]
 171 0036 384B     		ldr	r3, .L60+4
 172 0038 C0E90444 		strd	r4, r4, [r0, #16]
 173 003c 4260     		str	r2, [r0, #4]
 174 003e 8461     		str	r4, [r0, #24]
 175 0040 0360     		str	r3, [r0]
 176 0042 FFF7FEFF 		bl	HAL_TIM_Base_Init
ARM GAS  /var/folders/td/83895s255bq6rlxfmrv9fnww0000gn/T//ccoTapGm.s 			page 4


 177 0046 0028     		cmp	r0, #0
 178 0048 48D1     		bne	.L52
 179              	.L19:
 180 004a 4FF48053 		mov	r3, #4096
 181 004e 3148     		ldr	r0, .L60
 182 0050 02A9     		add	r1, sp, #8
 183 0052 0293     		str	r3, [sp, #8]
 184 0054 FFF7FEFF 		bl	HAL_TIM_ConfigClockSource
 185 0058 0028     		cmp	r0, #0
 186 005a 58D1     		bne	.L53
 187              	.L20:
 188 005c 2D48     		ldr	r0, .L60
 189 005e FFF7FEFF 		bl	HAL_TIM_PWM_Init
 190 0062 0028     		cmp	r0, #0
 191 0064 50D1     		bne	.L54
 192              	.L21:
 193 0066 0022     		movs	r2, #0
 194 0068 0023     		movs	r3, #0
 195 006a 6946     		mov	r1, sp
 196 006c 2948     		ldr	r0, .L60
 197 006e CDE90023 		strd	r2, [sp]
 198 0072 FFF7FEFF 		bl	HAL_TIMEx_MasterConfigSynchronization
 199 0076 0028     		cmp	r0, #0
 200 0078 43D1     		bne	.L55
 201              	.L22:
 202 007a 0020     		movs	r0, #0
 203 007c 0021     		movs	r1, #0
 204 007e 0022     		movs	r2, #0
 205 0080 6023     		movs	r3, #96
 206 0082 CDE90A01 		strd	r0, [sp, #40]
 207 0086 2348     		ldr	r0, .L60
 208 0088 06A9     		add	r1, sp, #24
 209 008a CDE90632 		strd	r3, r2, [sp, #24]
 210 008e CDE90822 		strd	r2, r2, [sp, #32]
 211 0092 0C92     		str	r2, [sp, #48]
 212 0094 FFF7FEFF 		bl	HAL_TIM_PWM_ConfigChannel
 213 0098 80BB     		cbnz	r0, .L56
 214              	.L23:
 215 009a 0422     		movs	r2, #4
 216 009c 1D48     		ldr	r0, .L60
 217 009e 06A9     		add	r1, sp, #24
 218 00a0 FFF7FEFF 		bl	HAL_TIM_PWM_ConfigChannel
 219 00a4 38BB     		cbnz	r0, .L57
 220              	.L24:
 221 00a6 0822     		movs	r2, #8
 222 00a8 1A48     		ldr	r0, .L60
 223 00aa 06A9     		add	r1, sp, #24
 224 00ac FFF7FEFF 		bl	HAL_TIM_PWM_ConfigChannel
 225 00b0 F0B9     		cbnz	r0, .L58
 226              	.L25:
 227 00b2 0023     		movs	r3, #0
 228 00b4 0024     		movs	r4, #0
 229 00b6 4FF40055 		mov	r5, #8192
 230 00ba 1648     		ldr	r0, .L60
 231 00bc 0EA9     		add	r1, sp, #56
 232 00be CDE91245 		strd	r4, [sp, #72]
 233 00c2 CDE90F33 		strd	r3, r3, [sp, #60]
ARM GAS  /var/folders/td/83895s255bq6rlxfmrv9fnww0000gn/T//ccoTapGm.s 			page 5


 234 00c6 0E93     		str	r3, [sp, #56]
 235 00c8 1193     		str	r3, [sp, #68]
 236 00ca 1593     		str	r3, [sp, #84]
 237 00cc FFF7FEFF 		bl	HAL_TIMEx_ConfigBreakDeadTime
 238 00d0 38B9     		cbnz	r0, .L59
 239 00d2 1048     		ldr	r0, .L60
 240 00d4 FFF7FEFF 		bl	HAL_TIM_MspPostInit
 241 00d8 17B0     		add	sp, sp, #92
 242              		@ sp needed
 243 00da 30BD     		pop	{r4, r5, pc}
 244              	.L52:
 245 00dc FFF7FEFF 		bl	Error_Handler
 246 00e0 B3E7     		b	.L19
 247              	.L59:
 248 00e2 FFF7FEFF 		bl	Error_Handler
 249 00e6 0B48     		ldr	r0, .L60
 250 00e8 FFF7FEFF 		bl	HAL_TIM_MspPostInit
 251 00ec 17B0     		add	sp, sp, #92
 252              		@ sp needed
 253 00ee 30BD     		pop	{r4, r5, pc}
 254              	.L58:
 255 00f0 FFF7FEFF 		bl	Error_Handler
 256 00f4 DDE7     		b	.L25
 257              	.L57:
 258 00f6 FFF7FEFF 		bl	Error_Handler
 259 00fa D4E7     		b	.L24
 260              	.L56:
 261 00fc FFF7FEFF 		bl	Error_Handler
 262 0100 CBE7     		b	.L23
 263              	.L55:
 264 0102 FFF7FEFF 		bl	Error_Handler
 265 0106 B8E7     		b	.L22
 266              	.L54:
 267 0108 FFF7FEFF 		bl	Error_Handler
 268 010c ABE7     		b	.L21
 269              	.L53:
 270 010e FFF7FEFF 		bl	Error_Handler
 271 0112 A3E7     		b	.L20
 272              	.L61:
 273              		.align	2
 274              	.L60:
 275 0114 00000000 		.word	htim1
 276 0118 002C0140 		.word	1073818624
 278              		.section	.text.MX_TIM2_Init,"ax",%progbits
 279              		.align	1
 280              		.p2align 2,,3
 281              		.global	MX_TIM2_Init
 282              		.syntax unified
 283              		.thumb
 284              		.thumb_func
 286              	MX_TIM2_Init:
 287              		@ args = 0, pretend = 0, frame = 56
 288              		@ frame_needed = 0, uses_anonymous_args = 0
 289 0000 0023     		movs	r3, #0
 290 0002 4FF08041 		mov	r1, #1073741824
 291 0006 4FF6FF72 		movw	r2, #65535
 292 000a 30B5     		push	{r4, r5, lr}
ARM GAS  /var/folders/td/83895s255bq6rlxfmrv9fnww0000gn/T//ccoTapGm.s 			page 6


 293 000c 3248     		ldr	r0, .L99
 294 000e 8FB0     		sub	sp, sp, #60
 295 0010 C0E90133 		strd	r3, r3, [r0, #4]
 296 0014 C0E90323 		strd	r2, r3, [r0, #12]
 297 0018 CDE90333 		strd	r3, r3, [sp, #12]
 298 001c CDE90733 		strd	r3, r3, [sp, #28]
 299 0020 CDE90933 		strd	r3, r3, [sp, #36]
 300 0024 CDE90B33 		strd	r3, r3, [sp, #44]
 301 0028 0160     		str	r1, [r0]
 302 002a 0293     		str	r3, [sp, #8]
 303 002c 0093     		str	r3, [sp]
 304 002e 0693     		str	r3, [sp, #24]
 305 0030 8361     		str	r3, [r0, #24]
 306 0032 0593     		str	r3, [sp, #20]
 307 0034 0193     		str	r3, [sp, #4]
 308 0036 FFF7FEFF 		bl	HAL_TIM_Base_Init
 309 003a 0028     		cmp	r0, #0
 310 003c 33D1     		bne	.L92
 311              	.L63:
 312 003e 4FF48053 		mov	r3, #4096
 313 0042 2548     		ldr	r0, .L99
 314 0044 02A9     		add	r1, sp, #8
 315 0046 0293     		str	r3, [sp, #8]
 316 0048 FFF7FEFF 		bl	HAL_TIM_ConfigClockSource
 317 004c 0028     		cmp	r0, #0
 318 004e 40D1     		bne	.L93
 319              	.L64:
 320 0050 2148     		ldr	r0, .L99
 321 0052 FFF7FEFF 		bl	HAL_TIM_PWM_Init
 322 0056 0028     		cmp	r0, #0
 323 0058 38D1     		bne	.L94
 324              	.L65:
 325 005a 0022     		movs	r2, #0
 326 005c 0023     		movs	r3, #0
 327 005e 6946     		mov	r1, sp
 328 0060 1D48     		ldr	r0, .L99
 329 0062 CDE90023 		strd	r2, [sp]
 330 0066 FFF7FEFF 		bl	HAL_TIMEx_MasterConfigSynchronization
 331 006a 60BB     		cbnz	r0, .L95
 332              	.L66:
 333 006c 0022     		movs	r2, #0
 334 006e 6024     		movs	r4, #96
 335 0070 0025     		movs	r5, #0
 336 0072 1948     		ldr	r0, .L99
 337 0074 06A9     		add	r1, sp, #24
 338 0076 CDE90645 		strd	r4, [sp, #24]
 339 007a 0892     		str	r2, [sp, #32]
 340 007c 0A92     		str	r2, [sp, #40]
 341 007e FFF7FEFF 		bl	HAL_TIM_PWM_ConfigChannel
 342 0082 E8B9     		cbnz	r0, .L96
 343              	.L67:
 344 0084 0422     		movs	r2, #4
 345 0086 1448     		ldr	r0, .L99
 346 0088 06A9     		add	r1, sp, #24
 347 008a FFF7FEFF 		bl	HAL_TIM_PWM_ConfigChannel
 348 008e A0B9     		cbnz	r0, .L97
 349              	.L68:
ARM GAS  /var/folders/td/83895s255bq6rlxfmrv9fnww0000gn/T//ccoTapGm.s 			page 7


 350 0090 0822     		movs	r2, #8
 351 0092 1148     		ldr	r0, .L99
 352 0094 06A9     		add	r1, sp, #24
 353 0096 FFF7FEFF 		bl	HAL_TIM_PWM_ConfigChannel
 354 009a 38B9     		cbnz	r0, .L98
 355 009c 0E48     		ldr	r0, .L99
 356 009e FFF7FEFF 		bl	HAL_TIM_MspPostInit
 357 00a2 0FB0     		add	sp, sp, #60
 358              		@ sp needed
 359 00a4 30BD     		pop	{r4, r5, pc}
 360              	.L92:
 361 00a6 FFF7FEFF 		bl	Error_Handler
 362 00aa C8E7     		b	.L63
 363              	.L98:
 364 00ac FFF7FEFF 		bl	Error_Handler
 365 00b0 0948     		ldr	r0, .L99
 366 00b2 FFF7FEFF 		bl	HAL_TIM_MspPostInit
 367 00b6 0FB0     		add	sp, sp, #60
 368              		@ sp needed
 369 00b8 30BD     		pop	{r4, r5, pc}
 370              	.L97:
 371 00ba FFF7FEFF 		bl	Error_Handler
 372 00be E7E7     		b	.L68
 373              	.L96:
 374 00c0 FFF7FEFF 		bl	Error_Handler
 375 00c4 DEE7     		b	.L67
 376              	.L95:
 377 00c6 FFF7FEFF 		bl	Error_Handler
 378 00ca CFE7     		b	.L66
 379              	.L94:
 380 00cc FFF7FEFF 		bl	Error_Handler
 381 00d0 C3E7     		b	.L65
 382              	.L93:
 383 00d2 FFF7FEFF 		bl	Error_Handler
 384 00d6 BBE7     		b	.L64
 385              	.L100:
 386              		.align	2
 387              	.L99:
 388 00d8 00000000 		.word	htim2
 390              		.section	.text.HAL_TIM_Base_MspDeInit,"ax",%progbits
 391              		.align	1
 392              		.p2align 2,,3
 393              		.global	HAL_TIM_Base_MspDeInit
 394              		.syntax unified
 395              		.thumb
 396              		.thumb_func
 398              	HAL_TIM_Base_MspDeInit:
 399              		@ args = 0, pretend = 0, frame = 0
 400              		@ frame_needed = 0, uses_anonymous_args = 0
 401              		@ link register save eliminated.
 402 0000 0A4A     		ldr	r2, .L106
 403 0002 0368     		ldr	r3, [r0]
 404 0004 9342     		cmp	r3, r2
 405 0006 09D0     		beq	.L104
 406 0008 B3F1804F 		cmp	r3, #1073741824
 407 000c 00D0     		beq	.L105
 408 000e 7047     		bx	lr
ARM GAS  /var/folders/td/83895s255bq6rlxfmrv9fnww0000gn/T//ccoTapGm.s 			page 8


 409              	.L105:
 410 0010 074A     		ldr	r2, .L106+4
 411 0012 D369     		ldr	r3, [r2, #28]
 412 0014 23F00103 		bic	r3, r3, #1
 413 0018 D361     		str	r3, [r2, #28]
 414 001a 7047     		bx	lr
 415              	.L104:
 416 001c 02F56442 		add	r2, r2, #58368
 417 0020 9369     		ldr	r3, [r2, #24]
 418 0022 23F40063 		bic	r3, r3, #2048
 419 0026 9361     		str	r3, [r2, #24]
 420 0028 7047     		bx	lr
 421              	.L107:
 422 002a 00BF     		.align	2
 423              	.L106:
 424 002c 002C0140 		.word	1073818624
 425 0030 00100240 		.word	1073876992
 427              		.global	htim2
 428              		.section	.bss.htim2,"aw",%nobits
 429              		.align	2
 432              	htim2:
 433 0000 00000000 		.space	72
 433      00000000 
 433      00000000 
 433      00000000 
 433      00000000 
 434              		.global	htim1
 435              		.section	.bss.htim1,"aw",%nobits
 436              		.align	3
 439              	htim1:
 440 0000 00000000 		.space	72
 440      00000000 
 440      00000000 
 440      00000000 
 440      00000000 
 441              		.ident	"GCC: (Arm GNU Toolchain 13.2.rel1 (Build arm-13.7)) 13.2.1 20231009"
ARM GAS  /var/folders/td/83895s255bq6rlxfmrv9fnww0000gn/T//ccoTapGm.s 			page 9

