ARM GAS  /var/folders/td/83895s255bq6rlxfmrv9fnww0000gn/T//ccql4Eas.s 			page 1


   1              		.cpu cortex-m3
   2              		.arch armv7-m
   3              		.fpu softvfp
   4              		.eabi_attribute 20, 1
   5              		.eabi_attribute 21, 1
   6              		.eabi_attribute 23, 3
   7              		.eabi_attribute 24, 1
   8              		.eabi_attribute 25, 1
   9              		.eabi_attribute 26, 1
  10              		.eabi_attribute 30, 2
  11              		.eabi_attribute 34, 1
  12              		.eabi_attribute 18, 4
  13              		.file	"usb_device.c"
  14              		.text
  15              		.section	.text.MX_USB_DEVICE_Init,"ax",%progbits
  16              		.align	1
  17              		.p2align 2,,3
  18              		.global	MX_USB_DEVICE_Init
  19              		.syntax unified
  20              		.thumb
  21              		.thumb_func
  23              	MX_USB_DEVICE_Init:
  24              		@ args = 0, pretend = 0, frame = 0
  25              		@ frame_needed = 0, uses_anonymous_args = 0
  26 0000 08B5     		push	{r3, lr}
  27 0002 0022     		movs	r2, #0
  28 0004 1749     		ldr	r1, .L21
  29 0006 1848     		ldr	r0, .L21+4
  30 0008 FFF7FEFF 		bl	USBD_Init
  31 000c 70B9     		cbnz	r0, .L17
  32 000e 1749     		ldr	r1, .L21+8
  33 0010 1548     		ldr	r0, .L21+4
  34 0012 FFF7FEFF 		bl	USBD_RegisterClass
  35 0016 88B9     		cbnz	r0, .L18
  36              	.L3:
  37 0018 1549     		ldr	r1, .L21+12
  38 001a 1348     		ldr	r0, .L21+4
  39 001c FFF7FEFF 		bl	USBD_CDC_RegisterInterface
  40 0020 A0B9     		cbnz	r0, .L19
  41              	.L4:
  42 0022 1148     		ldr	r0, .L21+4
  43 0024 FFF7FEFF 		bl	USBD_Start
  44 0028 B8B9     		cbnz	r0, .L20
  45              	.L1:
  46 002a 08BD     		pop	{r3, pc}
  47              	.L17:
  48 002c FFF7FEFF 		bl	Error_Handler
  49 0030 0E49     		ldr	r1, .L21+8
  50 0032 0D48     		ldr	r0, .L21+4
  51 0034 FFF7FEFF 		bl	USBD_RegisterClass
  52 0038 0028     		cmp	r0, #0
  53 003a EDD0     		beq	.L3
  54              	.L18:
  55 003c FFF7FEFF 		bl	Error_Handler
  56 0040 0B49     		ldr	r1, .L21+12
  57 0042 0948     		ldr	r0, .L21+4
  58 0044 FFF7FEFF 		bl	USBD_CDC_RegisterInterface
ARM GAS  /var/folders/td/83895s255bq6rlxfmrv9fnww0000gn/T//ccql4Eas.s 			page 2


  59 0048 0028     		cmp	r0, #0
  60 004a EAD0     		beq	.L4
  61              	.L19:
  62 004c FFF7FEFF 		bl	Error_Handler
  63 0050 0548     		ldr	r0, .L21+4
  64 0052 FFF7FEFF 		bl	USBD_Start
  65 0056 0028     		cmp	r0, #0
  66 0058 E7D0     		beq	.L1
  67              	.L20:
  68 005a BDE80840 		pop	{r3, lr}
  69 005e FFF7FEBF 		b	Error_Handler
  70              	.L22:
  71 0062 00BF     		.align	2
  72              	.L21:
  73 0064 00000000 		.word	FS_Desc
  74 0068 00000000 		.word	hUsbDeviceFS
  75 006c 00000000 		.word	USBD_CDC
  76 0070 00000000 		.word	USBD_Interface_fops_FS
  78              		.global	hUsbDeviceFS
  79              		.section	.bss.hUsbDeviceFS,"aw",%nobits
  80              		.align	2
  83              	hUsbDeviceFS:
  84 0000 00000000 		.space	708
  84      00000000 
  84      00000000 
  84      00000000 
  84      00000000 
  85              		.ident	"GCC: (Arm GNU Toolchain 13.2.rel1 (Build arm-13.7)) 13.2.1 20231009"
ARM GAS  /var/folders/td/83895s255bq6rlxfmrv9fnww0000gn/T//ccql4Eas.s 			page 3


DEFINED SYMBOLS
                            *ABS*:00000000 usb_device.c
/var/folders/td/83895s255bq6rlxfmrv9fnww0000gn/T//ccql4Eas.s:16     .text.MX_USB_DEVICE_Init:00000000 $t
/var/folders/td/83895s255bq6rlxfmrv9fnww0000gn/T//ccql4Eas.s:23     .text.MX_USB_DEVICE_Init:00000000 MX_USB_DEVICE_Init
/var/folders/td/83895s255bq6rlxfmrv9fnww0000gn/T//ccql4Eas.s:73     .text.MX_USB_DEVICE_Init:00000064 $d
/var/folders/td/83895s255bq6rlxfmrv9fnww0000gn/T//ccql4Eas.s:83     .bss.hUsbDeviceFS:00000000 hUsbDeviceFS
/var/folders/td/83895s255bq6rlxfmrv9fnww0000gn/T//ccql4Eas.s:80     .bss.hUsbDeviceFS:00000000 $d

UNDEFINED SYMBOLS
USBD_Init
USBD_RegisterClass
USBD_CDC_RegisterInterface
USBD_Start
Error_Handler
FS_Desc
USBD_CDC
USBD_Interface_fops_FS
