ARM GAS  /var/folders/td/83895s255bq6rlxfmrv9fnww0000gn/T//cc1lnsVu.s 			page 1


   1              		.cpu cortex-m3
   2              		.arch armv7-m
   3              		.fpu softvfp
   4              		.eabi_attribute 20, 1
   5              		.eabi_attribute 21, 1
   6              		.eabi_attribute 23, 3
   7              		.eabi_attribute 24, 1
   8              		.eabi_attribute 25, 1
   9              		.eabi_attribute 26, 1
  10              		.eabi_attribute 30, 2
  11              		.eabi_attribute 34, 1
  12              		.eabi_attribute 18, 4
  13              		.file	"usbd_cdc.c"
  14              		.text
  15              		.section	.text.USBD_CDC_EP0_RxReady,"ax",%progbits
  16              		.align	1
  17              		.p2align 2,,3
  18              		.syntax unified
  19              		.thumb
  20              		.thumb_func
  22              	USBD_CDC_EP0_RxReady:
  23              		@ args = 0, pretend = 0, frame = 0
  24              		@ frame_needed = 0, uses_anonymous_args = 0
  25 0000 D0F8BC32 		ldr	r3, [r0, #700]
  26 0004 83B1     		cbz	r3, .L10
  27 0006 10B5     		push	{r4, lr}
  28 0008 D0F8B842 		ldr	r4, [r0, #696]
  29 000c 94F80002 		ldrb	r0, [r4, #512]	@ zero_extendqisi2
  30 0010 FF28     		cmp	r0, #255
  31 0012 07D0     		beq	.L2
  32 0014 9B68     		ldr	r3, [r3, #8]
  33 0016 2146     		mov	r1, r4
  34 0018 94F80122 		ldrb	r2, [r4, #513]	@ zero_extendqisi2
  35 001c 9847     		blx	r3
  36 001e FF23     		movs	r3, #255
  37 0020 84F80032 		strb	r3, [r4, #512]
  38              	.L2:
  39 0024 0020     		movs	r0, #0
  40 0026 10BD     		pop	{r4, pc}
  41              	.L10:
  42 0028 0020     		movs	r0, #0
  43 002a 7047     		bx	lr
  45              		.section	.text.USBD_CDC_GetFSCfgDesc,"ax",%progbits
  46              		.align	1
  47              		.p2align 2,,3
  48              		.syntax unified
  49              		.thumb
  50              		.thumb_func
  52              	USBD_CDC_GetFSCfgDesc:
  53              		@ args = 0, pretend = 0, frame = 0
  54              		@ frame_needed = 0, uses_anonymous_args = 0
  55              		@ link register save eliminated.
  56 0000 0346     		mov	r3, r0
  57 0002 4322     		movs	r2, #67
  58 0004 0148     		ldr	r0, .L15
  59 0006 1A80     		strh	r2, [r3]	@ movhi
  60 0008 7047     		bx	lr
ARM GAS  /var/folders/td/83895s255bq6rlxfmrv9fnww0000gn/T//cc1lnsVu.s 			page 2


  61              	.L16:
  62 000a 00BF     		.align	2
  63              	.L15:
  64 000c 00000000 		.word	USBD_CDC_CfgFSDesc
  66              		.section	.text.USBD_CDC_GetHSCfgDesc,"ax",%progbits
  67              		.align	1
  68              		.p2align 2,,3
  69              		.syntax unified
  70              		.thumb
  71              		.thumb_func
  73              	USBD_CDC_GetHSCfgDesc:
  74              		@ args = 0, pretend = 0, frame = 0
  75              		@ frame_needed = 0, uses_anonymous_args = 0
  76              		@ link register save eliminated.
  77 0000 0346     		mov	r3, r0
  78 0002 4322     		movs	r2, #67
  79 0004 0148     		ldr	r0, .L18
  80 0006 1A80     		strh	r2, [r3]	@ movhi
  81 0008 7047     		bx	lr
  82              	.L19:
  83 000a 00BF     		.align	2
  84              	.L18:
  85 000c 00000000 		.word	USBD_CDC_CfgHSDesc
  87              		.section	.text.USBD_CDC_GetOtherSpeedCfgDesc,"ax",%progbits
  88              		.align	1
  89              		.p2align 2,,3
  90              		.syntax unified
  91              		.thumb
  92              		.thumb_func
  94              	USBD_CDC_GetOtherSpeedCfgDesc:
  95              		@ args = 0, pretend = 0, frame = 0
  96              		@ frame_needed = 0, uses_anonymous_args = 0
  97              		@ link register save eliminated.
  98 0000 0346     		mov	r3, r0
  99 0002 4322     		movs	r2, #67
 100 0004 0148     		ldr	r0, .L21
 101 0006 1A80     		strh	r2, [r3]	@ movhi
 102 0008 7047     		bx	lr
 103              	.L22:
 104 000a 00BF     		.align	2
 105              	.L21:
 106 000c 00000000 		.word	USBD_CDC_OtherSpeedCfgDesc
 108              		.section	.text.USBD_CDC_GetDeviceQualifierDescriptor,"ax",%progbits
 109              		.align	1
 110              		.p2align 2,,3
 111              		.global	USBD_CDC_GetDeviceQualifierDescriptor
 112              		.syntax unified
 113              		.thumb
 114              		.thumb_func
 116              	USBD_CDC_GetDeviceQualifierDescriptor:
 117              		@ args = 0, pretend = 0, frame = 0
 118              		@ frame_needed = 0, uses_anonymous_args = 0
 119              		@ link register save eliminated.
 120 0000 0346     		mov	r3, r0
 121 0002 0A22     		movs	r2, #10
 122 0004 0148     		ldr	r0, .L24
 123 0006 1A80     		strh	r2, [r3]	@ movhi
ARM GAS  /var/folders/td/83895s255bq6rlxfmrv9fnww0000gn/T//cc1lnsVu.s 			page 3


 124 0008 7047     		bx	lr
 125              	.L25:
 126 000a 00BF     		.align	2
 127              	.L24:
 128 000c 00000000 		.word	USBD_CDC_DeviceQualifierDesc
 130              		.section	.text.USBD_CDC_DataOut,"ax",%progbits
 131              		.align	1
 132              		.p2align 2,,3
 133              		.syntax unified
 134              		.thumb
 135              		.thumb_func
 137              	USBD_CDC_DataOut:
 138              		@ args = 0, pretend = 0, frame = 0
 139              		@ frame_needed = 0, uses_anonymous_args = 0
 140 0000 38B5     		push	{r3, r4, r5, lr}
 141 0002 0446     		mov	r4, r0
 142 0004 D0F8B852 		ldr	r5, [r0, #696]
 143 0008 FFF7FEFF 		bl	USBD_LL_GetRxDataSize
 144 000c D4F8B832 		ldr	r3, [r4, #696]
 145 0010 C5F80C02 		str	r0, [r5, #524]
 146 0014 4BB1     		cbz	r3, .L28
 147 0016 D4F8BC32 		ldr	r3, [r4, #700]
 148 001a D5F80402 		ldr	r0, [r5, #516]
 149 001e DB68     		ldr	r3, [r3, #12]
 150 0020 05F50371 		add	r1, r5, #524
 151 0024 9847     		blx	r3
 152 0026 0020     		movs	r0, #0
 153 0028 38BD     		pop	{r3, r4, r5, pc}
 154              	.L28:
 155 002a 0220     		movs	r0, #2
 156 002c 38BD     		pop	{r3, r4, r5, pc}
 158 002e 00BF     		.section	.text.USBD_CDC_DataIn,"ax",%progbits
 159              		.align	1
 160              		.p2align 2,,3
 161              		.syntax unified
 162              		.thumb
 163              		.thumb_func
 165              	USBD_CDC_DataIn:
 166              		@ args = 0, pretend = 0, frame = 0
 167              		@ frame_needed = 0, uses_anonymous_args = 0
 168 0000 38B5     		push	{r3, r4, r5, lr}
 169 0002 D0F8B842 		ldr	r4, [r0, #696]
 170 0006 E4B1     		cbz	r4, .L34
 171 0008 01EB8103 		add	r3, r1, r1, lsl #2
 172 000c 00EB830C 		add	ip, r0, r3, lsl #2
 173 0010 DCF81C20 		ldr	r2, [ip, #28]
 174 0014 D0F8C052 		ldr	r5, [r0, #704]
 175 0018 22B9     		cbnz	r2, .L39
 176              	.L32:
 177 001a 0023     		movs	r3, #0
 178 001c C4F81432 		str	r3, [r4, #532]
 179              	.L33:
 180 0020 0020     		movs	r0, #0
 181 0022 38BD     		pop	{r3, r4, r5, pc}
 182              	.L39:
 183 0024 05EBC305 		add	r5, r5, r3, lsl #3
 184 0028 AB6B     		ldr	r3, [r5, #56]
ARM GAS  /var/folders/td/83895s255bq6rlxfmrv9fnww0000gn/T//cc1lnsVu.s 			page 4


 185 002a B2FBF3F5 		udiv	r5, r2, r3
 186 002e 03FB1523 		mls	r3, r3, r5, r2
 187 0032 002B     		cmp	r3, #0
 188 0034 F1D1     		bne	.L32
 189 0036 1A46     		mov	r2, r3
 190 0038 CCF81C30 		str	r3, [ip, #28]
 191 003c FFF7FEFF 		bl	USBD_LL_Transmit
 192 0040 EEE7     		b	.L33
 193              	.L34:
 194 0042 0220     		movs	r0, #2
 195 0044 38BD     		pop	{r3, r4, r5, pc}
 197 0046 00BF     		.section	.text.USBD_CDC_Setup,"ax",%progbits
 198              		.align	1
 199              		.p2align 2,,3
 200              		.syntax unified
 201              		.thumb
 202              		.thumb_func
 204              	USBD_CDC_Setup:
 205              		@ args = 0, pretend = 0, frame = 8
 206              		@ frame_needed = 0, uses_anonymous_args = 0
 207 0000 0023     		movs	r3, #0
 208 0002 70B5     		push	{r4, r5, r6, lr}
 209 0004 82B0     		sub	sp, sp, #8
 210 0006 8DF80530 		strb	r3, [sp, #5]
 211 000a ADF80630 		strh	r3, [sp, #6]	@ movhi
 212 000e 0B78     		ldrb	r3, [r1]	@ zero_extendqisi2
 213 0010 0C46     		mov	r4, r1
 214 0012 13F06002 		ands	r2, r3, #96
 215 0016 0546     		mov	r5, r0
 216 0018 D0F8B862 		ldr	r6, [r0, #696]
 217 001c 1AD0     		beq	.L41
 218 001e 202A     		cmp	r2, #32
 219 0020 06D0     		beq	.L52
 220              	.L42:
 221 0022 2846     		mov	r0, r5
 222 0024 2146     		mov	r1, r4
 223 0026 FFF7FEFF 		bl	USBD_CtlError
 224 002a 0220     		movs	r0, #2
 225              	.L46:
 226 002c 02B0     		add	sp, sp, #8
 227              		@ sp needed
 228 002e 70BD     		pop	{r4, r5, r6, pc}
 229              	.L52:
 230 0030 CA88     		ldrh	r2, [r1, #6]
 231 0032 91F801C0 		ldrb	ip, [r1, #1]	@ zero_extendqisi2
 232 0036 F2B1     		cbz	r2, .L43
 233 0038 1B06     		lsls	r3, r3, #24
 234 003a 32D5     		bpl	.L44
 235 003c D5F8BC32 		ldr	r3, [r5, #700]
 236 0040 3146     		mov	r1, r6
 237 0042 6046     		mov	r0, ip
 238 0044 9B68     		ldr	r3, [r3, #8]
 239 0046 9847     		blx	r3
 240 0048 3146     		mov	r1, r6
 241 004a 2846     		mov	r0, r5
 242 004c E288     		ldrh	r2, [r4, #6]
 243 004e FFF7FEFF 		bl	USBD_CtlSendData
ARM GAS  /var/folders/td/83895s255bq6rlxfmrv9fnww0000gn/T//cc1lnsVu.s 			page 5


 244 0052 15E0     		b	.L45
 245              	.L41:
 246 0054 4B78     		ldrb	r3, [r1, #1]	@ zero_extendqisi2
 247 0056 0A2B     		cmp	r3, #10
 248 0058 19D0     		beq	.L47
 249 005a 0B2B     		cmp	r3, #11
 250 005c 12D0     		beq	.L48
 251 005e 002B     		cmp	r3, #0
 252 0060 DFD1     		bne	.L42
 253 0062 90F89C32 		ldrb	r3, [r0, #668]	@ zero_extendqisi2
 254 0066 032B     		cmp	r3, #3
 255 0068 DBD1     		bne	.L42
 256 006a 0222     		movs	r2, #2
 257 006c 0DF10601 		add	r1, sp, #6
 258 0070 FFF7FEFF 		bl	USBD_CtlSendData
 259 0074 04E0     		b	.L45
 260              	.L43:
 261 0076 D0F8BC32 		ldr	r3, [r0, #700]
 262 007a 6046     		mov	r0, ip
 263 007c 9B68     		ldr	r3, [r3, #8]
 264 007e 9847     		blx	r3
 265              	.L45:
 266 0080 0020     		movs	r0, #0
 267 0082 D3E7     		b	.L46
 268              	.L48:
 269 0084 90F89C32 		ldrb	r3, [r0, #668]	@ zero_extendqisi2
 270 0088 032B     		cmp	r3, #3
 271 008a F9D0     		beq	.L45
 272 008c C9E7     		b	.L42
 273              	.L47:
 274 008e 90F89C32 		ldrb	r3, [r0, #668]	@ zero_extendqisi2
 275 0092 032B     		cmp	r3, #3
 276 0094 C5D1     		bne	.L42
 277 0096 0122     		movs	r2, #1
 278 0098 0DF10501 		add	r1, sp, #5
 279 009c FFF7FEFF 		bl	USBD_CtlSendData
 280 00a0 EEE7     		b	.L45
 281              	.L44:
 282 00a2 3146     		mov	r1, r6
 283 00a4 86F800C2 		strb	ip, [r6, #512]
 284 00a8 86F80122 		strb	r2, [r6, #513]
 285 00ac FFF7FEFF 		bl	USBD_CtlPrepareRx
 286 00b0 E6E7     		b	.L45
 288 00b2 00BF     		.section	.text.USBD_CDC_DeInit,"ax",%progbits
 289              		.align	1
 290              		.p2align 2,,3
 291              		.syntax unified
 292              		.thumb
 293              		.thumb_func
 295              	USBD_CDC_DeInit:
 296              		@ args = 0, pretend = 0, frame = 0
 297              		@ frame_needed = 0, uses_anonymous_args = 0
 298 0000 38B5     		push	{r3, r4, r5, lr}
 299 0002 0446     		mov	r4, r0
 300 0004 0025     		movs	r5, #0
 301 0006 8121     		movs	r1, #129
 302 0008 FFF7FEFF 		bl	USBD_LL_CloseEP
ARM GAS  /var/folders/td/83895s255bq6rlxfmrv9fnww0000gn/T//cc1lnsVu.s 			page 6


 303 000c 0121     		movs	r1, #1
 304 000e 2046     		mov	r0, r4
 305 0010 E562     		str	r5, [r4, #44]
 306 0012 FFF7FEFF 		bl	USBD_LL_CloseEP
 307 0016 8221     		movs	r1, #130
 308 0018 2046     		mov	r0, r4
 309 001a C4F86C51 		str	r5, [r4, #364]
 310 001e FFF7FEFF 		bl	USBD_LL_CloseEP
 311 0022 D4F8B832 		ldr	r3, [r4, #696]
 312 0026 2564     		str	r5, [r4, #64]
 313 0028 4BB1     		cbz	r3, .L54
 314 002a D4F8BC32 		ldr	r3, [r4, #700]
 315 002e 5B68     		ldr	r3, [r3, #4]
 316 0030 9847     		blx	r3
 317 0032 D4F8B802 		ldr	r0, [r4, #696]
 318 0036 FFF7FEFF 		bl	USBD_static_free
 319 003a C4F8B852 		str	r5, [r4, #696]
 320              	.L54:
 321 003e 0020     		movs	r0, #0
 322 0040 38BD     		pop	{r3, r4, r5, pc}
 324 0042 00BF     		.section	.text.USBD_CDC_Init,"ax",%progbits
 325              		.align	1
 326              		.p2align 2,,3
 327              		.syntax unified
 328              		.thumb
 329              		.thumb_func
 331              	USBD_CDC_Init:
 332              		@ args = 0, pretend = 0, frame = 0
 333              		@ frame_needed = 0, uses_anonymous_args = 0
 334 0000 70B5     		push	{r4, r5, r6, lr}
 335 0002 037C     		ldrb	r3, [r0, #16]	@ zero_extendqisi2
 336 0004 0446     		mov	r4, r0
 337 0006 9BBB     		cbnz	r3, .L60
 338 0008 4FF40073 		mov	r3, #512
 339 000c 0222     		movs	r2, #2
 340 000e 8121     		movs	r1, #129
 341 0010 FFF7FEFF 		bl	USBD_LL_OpenEP
 342 0014 0121     		movs	r1, #1
 343 0016 4FF40073 		mov	r3, #512
 344 001a 0222     		movs	r2, #2
 345 001c 2046     		mov	r0, r4
 346 001e E162     		str	r1, [r4, #44]
 347 0020 FFF7FEFF 		bl	USBD_LL_OpenEP
 348              	.L61:
 349 0024 0126     		movs	r6, #1
 350 0026 0823     		movs	r3, #8
 351 0028 0322     		movs	r2, #3
 352 002a 8221     		movs	r1, #130
 353 002c 2046     		mov	r0, r4
 354 002e C4F86C61 		str	r6, [r4, #364]
 355 0032 FFF7FEFF 		bl	USBD_LL_OpenEP
 356 0036 4FF40770 		mov	r0, #540
 357 003a 2664     		str	r6, [r4, #64]
 358 003c FFF7FEFF 		bl	USBD_static_malloc
 359 0040 0546     		mov	r5, r0
 360 0042 C4F8B802 		str	r0, [r4, #696]
 361 0046 48B3     		cbz	r0, .L65
ARM GAS  /var/folders/td/83895s255bq6rlxfmrv9fnww0000gn/T//cc1lnsVu.s 			page 7


 362 0048 D4F8BC32 		ldr	r3, [r4, #700]
 363 004c 1B68     		ldr	r3, [r3]
 364 004e 9847     		blx	r3
 365 0050 0023     		movs	r3, #0
 366 0052 C5F81432 		str	r3, [r5, #532]
 367 0056 C5F81832 		str	r3, [r5, #536]
 368 005a 237C     		ldrb	r3, [r4, #16]	@ zero_extendqisi2
 369 005c ABB1     		cbz	r3, .L67
 370 005e 4023     		movs	r3, #64
 371 0060 3146     		mov	r1, r6
 372 0062 2046     		mov	r0, r4
 373 0064 D5F80422 		ldr	r2, [r5, #516]
 374 0068 FFF7FEFF 		bl	USBD_LL_PrepareReceive
 375              	.L64:
 376 006c 0020     		movs	r0, #0
 377 006e 70BD     		pop	{r4, r5, r6, pc}
 378              	.L60:
 379 0070 4023     		movs	r3, #64
 380 0072 0222     		movs	r2, #2
 381 0074 8121     		movs	r1, #129
 382 0076 FFF7FEFF 		bl	USBD_LL_OpenEP
 383 007a 0121     		movs	r1, #1
 384 007c 4023     		movs	r3, #64
 385 007e 0222     		movs	r2, #2
 386 0080 2046     		mov	r0, r4
 387 0082 E162     		str	r1, [r4, #44]
 388 0084 FFF7FEFF 		bl	USBD_LL_OpenEP
 389 0088 CCE7     		b	.L61
 390              	.L67:
 391 008a 4FF40073 		mov	r3, #512
 392 008e 3146     		mov	r1, r6
 393 0090 2046     		mov	r0, r4
 394 0092 D5F80422 		ldr	r2, [r5, #516]
 395 0096 FFF7FEFF 		bl	USBD_LL_PrepareReceive
 396 009a E7E7     		b	.L64
 397              	.L65:
 398 009c 3046     		mov	r0, r6
 399 009e 70BD     		pop	{r4, r5, r6, pc}
 401              		.section	.text.USBD_CDC_RegisterInterface,"ax",%progbits
 402              		.align	1
 403              		.p2align 2,,3
 404              		.global	USBD_CDC_RegisterInterface
 405              		.syntax unified
 406              		.thumb
 407              		.thumb_func
 409              	USBD_CDC_RegisterInterface:
 410              		@ args = 0, pretend = 0, frame = 0
 411              		@ frame_needed = 0, uses_anonymous_args = 0
 412              		@ link register save eliminated.
 413 0000 0346     		mov	r3, r0
 414 0002 19B1     		cbz	r1, .L70
 415 0004 0020     		movs	r0, #0
 416 0006 C3F8BC12 		str	r1, [r3, #700]
 417 000a 7047     		bx	lr
 418              	.L70:
 419 000c 0220     		movs	r0, #2
 420 000e 7047     		bx	lr
ARM GAS  /var/folders/td/83895s255bq6rlxfmrv9fnww0000gn/T//cc1lnsVu.s 			page 8


 422              		.section	.text.USBD_CDC_SetTxBuffer,"ax",%progbits
 423              		.align	1
 424              		.p2align 2,,3
 425              		.global	USBD_CDC_SetTxBuffer
 426              		.syntax unified
 427              		.thumb
 428              		.thumb_func
 430              	USBD_CDC_SetTxBuffer:
 431              		@ args = 0, pretend = 0, frame = 0
 432              		@ frame_needed = 0, uses_anonymous_args = 0
 433              		@ link register save eliminated.
 434 0000 0346     		mov	r3, r0
 435 0002 D3F8B832 		ldr	r3, [r3, #696]
 436 0006 0020     		movs	r0, #0
 437 0008 C3F80812 		str	r1, [r3, #520]
 438 000c C3F81022 		str	r2, [r3, #528]
 439 0010 7047     		bx	lr
 441 0012 00BF     		.section	.text.USBD_CDC_SetRxBuffer,"ax",%progbits
 442              		.align	1
 443              		.p2align 2,,3
 444              		.global	USBD_CDC_SetRxBuffer
 445              		.syntax unified
 446              		.thumb
 447              		.thumb_func
 449              	USBD_CDC_SetRxBuffer:
 450              		@ args = 0, pretend = 0, frame = 0
 451              		@ frame_needed = 0, uses_anonymous_args = 0
 452              		@ link register save eliminated.
 453 0000 0346     		mov	r3, r0
 454 0002 D3F8B832 		ldr	r3, [r3, #696]
 455 0006 0020     		movs	r0, #0
 456 0008 C3F80412 		str	r1, [r3, #516]
 457 000c 7047     		bx	lr
 459 000e 00BF     		.section	.text.USBD_CDC_TransmitPacket,"ax",%progbits
 460              		.align	1
 461              		.p2align 2,,3
 462              		.global	USBD_CDC_TransmitPacket
 463              		.syntax unified
 464              		.thumb
 465              		.thumb_func
 467              	USBD_CDC_TransmitPacket:
 468              		@ args = 0, pretend = 0, frame = 0
 469              		@ frame_needed = 0, uses_anonymous_args = 0
 470 0000 F8B5     		push	{r3, r4, r5, r6, r7, lr}
 471 0002 D0F8B852 		ldr	r5, [r0, #696]
 472 0006 95B1     		cbz	r5, .L75
 473 0008 D5F81442 		ldr	r4, [r5, #532]
 474 000c 0CB1     		cbz	r4, .L78
 475 000e 0120     		movs	r0, #1
 476 0010 F8BD     		pop	{r3, r4, r5, r6, r7, pc}
 477              	.L78:
 478 0012 0127     		movs	r7, #1
 479 0014 D5F81062 		ldr	r6, [r5, #528]
 480 0018 D5F80822 		ldr	r2, [r5, #520]
 481 001c C5F81472 		str	r7, [r5, #532]
 482 0020 8121     		movs	r1, #129
 483 0022 B3B2     		uxth	r3, r6
ARM GAS  /var/folders/td/83895s255bq6rlxfmrv9fnww0000gn/T//cc1lnsVu.s 			page 9


 484 0024 0663     		str	r6, [r0, #48]
 485 0026 FFF7FEFF 		bl	USBD_LL_Transmit
 486 002a 2046     		mov	r0, r4
 487 002c F8BD     		pop	{r3, r4, r5, r6, r7, pc}
 488              	.L75:
 489 002e 0220     		movs	r0, #2
 490 0030 F8BD     		pop	{r3, r4, r5, r6, r7, pc}
 492 0032 00BF     		.section	.text.USBD_CDC_ReceivePacket,"ax",%progbits
 493              		.align	1
 494              		.p2align 2,,3
 495              		.global	USBD_CDC_ReceivePacket
 496              		.syntax unified
 497              		.thumb
 498              		.thumb_func
 500              	USBD_CDC_ReceivePacket:
 501              		@ args = 0, pretend = 0, frame = 0
 502              		@ frame_needed = 0, uses_anonymous_args = 0
 503 0000 D0F8B822 		ldr	r2, [r0, #696]
 504 0004 8AB1     		cbz	r2, .L83
 505 0006 08B5     		push	{r3, lr}
 506 0008 037C     		ldrb	r3, [r0, #16]	@ zero_extendqisi2
 507 000a D2F80422 		ldr	r2, [r2, #516]
 508 000e 2BB1     		cbz	r3, .L88
 509 0010 4023     		movs	r3, #64
 510 0012 0121     		movs	r1, #1
 511 0014 FFF7FEFF 		bl	USBD_LL_PrepareReceive
 512 0018 0020     		movs	r0, #0
 513 001a 08BD     		pop	{r3, pc}
 514              	.L88:
 515 001c 4FF40073 		mov	r3, #512
 516 0020 0121     		movs	r1, #1
 517 0022 FFF7FEFF 		bl	USBD_LL_PrepareReceive
 518 0026 0020     		movs	r0, #0
 519 0028 08BD     		pop	{r3, pc}
 520              	.L83:
 521 002a 0220     		movs	r0, #2
 522 002c 7047     		bx	lr
 524              		.global	USBD_CDC_OtherSpeedCfgDesc
 525 002e 00BF     		.section	.data.USBD_CDC_OtherSpeedCfgDesc,"aw"
 526              		.align	2
 529              	USBD_CDC_OtherSpeedCfgDesc:
 530 0000 09074300 		.ascii	"\011\007C\000\002\001\004\3002\011\004\000\000\001\002"
 530      020104C0 
 530      32090400 
 530      000102
 531 000f 02010005 		.ascii	"\002\001\000\005$\000\020\001\005$\001\000\001\004$"
 531      24001001 
 531      05240100 
 531      010424
 532 001e 02020524 		.ascii	"\002\002\005$\006\000\001\007\005\202\003\010\000\020"
 532      06000107 
 532      05820308 
 532      0010
 533 002c 09040100 		.ascii	"\011\004\001\000\002\012\000\000\000\007\005\001\002"
 533      020A0000 
 533      00070501 
 533      02
ARM GAS  /var/folders/td/83895s255bq6rlxfmrv9fnww0000gn/T//cc1lnsVu.s 			page 10


 534 0039 40000007 		.ascii	"@\000\000\007\005\201\002@\000\000"
 534      05810240 
 534      0000
 535              		.global	USBD_CDC_CfgFSDesc
 536              		.section	.data.USBD_CDC_CfgFSDesc,"aw"
 537              		.align	2
 540              	USBD_CDC_CfgFSDesc:
 541 0000 09024300 		.ascii	"\011\002C\000\002\001\000\3002\011\004\000\000\001\002"
 541      020100C0 
 541      32090400 
 541      000102
 542 000f 02010005 		.ascii	"\002\001\000\005$\000\020\001\005$\001\000\001\004$"
 542      24001001 
 542      05240100 
 542      010424
 543 001e 02020524 		.ascii	"\002\002\005$\006\000\001\007\005\202\003\010\000\020"
 543      06000107 
 543      05820308 
 543      0010
 544 002c 09040100 		.ascii	"\011\004\001\000\002\012\000\000\000\007\005\001\002"
 544      020A0000 
 544      00070501 
 544      02
 545 0039 40000007 		.ascii	"@\000\000\007\005\201\002@\000\000"
 545      05810240 
 545      0000
 546              		.global	USBD_CDC_CfgHSDesc
 547              		.section	.data.USBD_CDC_CfgHSDesc,"aw"
 548              		.align	2
 551              	USBD_CDC_CfgHSDesc:
 552 0000 09024300 		.ascii	"\011\002C\000\002\001\000\3002\011\004\000\000\001\002"
 552      020100C0 
 552      32090400 
 552      000102
 553 000f 02010005 		.ascii	"\002\001\000\005$\000\020\001\005$\001\000\001\004$"
 553      24001001 
 553      05240100 
 553      010424
 554 001e 02020524 		.ascii	"\002\002\005$\006\000\001\007\005\202\003\010\000\020"
 554      06000107 
 554      05820308 
 554      0010
 555 002c 09040100 		.ascii	"\011\004\001\000\002\012\000\000\000\007\005\001\002"
 555      020A0000 
 555      00070501 
 555      02
 556 0039 00020007 		.ascii	"\000\002\000\007\005\201\002\000\002\000"
 556      05810200 
 556      0200
 557              		.global	USBD_CDC
 558              		.section	.data.USBD_CDC,"aw"
 559              		.align	2
 562              	USBD_CDC:
 563 0000 00000000 		.word	USBD_CDC_Init
 564 0004 00000000 		.word	USBD_CDC_DeInit
 565 0008 00000000 		.word	USBD_CDC_Setup
 566 000c 00000000 		.word	0
ARM GAS  /var/folders/td/83895s255bq6rlxfmrv9fnww0000gn/T//cc1lnsVu.s 			page 11


 567 0010 00000000 		.word	USBD_CDC_EP0_RxReady
 568 0014 00000000 		.word	USBD_CDC_DataIn
 569 0018 00000000 		.word	USBD_CDC_DataOut
 570 001c 00000000 		.word	0
 571 0020 00000000 		.word	0
 572 0024 00000000 		.word	0
 573 0028 00000000 		.word	USBD_CDC_GetHSCfgDesc
 574 002c 00000000 		.word	USBD_CDC_GetFSCfgDesc
 575 0030 00000000 		.word	USBD_CDC_GetOtherSpeedCfgDesc
 576 0034 00000000 		.word	USBD_CDC_GetDeviceQualifierDescriptor
 577              		.section	.data.USBD_CDC_DeviceQualifierDesc,"aw"
 578              		.align	2
 581              	USBD_CDC_DeviceQualifierDesc:
 582 0000 0A060002 		.ascii	"\012\006\000\002\000\000\000@\001\000"
 582      00000040 
 582      0100
 583              		.ident	"GCC: (Arm GNU Toolchain 13.2.rel1 (Build arm-13.7)) 13.2.1 20231009"
ARM GAS  /var/folders/td/83895s255bq6rlxfmrv9fnww0000gn/T//cc1lnsVu.s 			page 12

