ARM GAS  /var/folders/td/83895s255bq6rlxfmrv9fnww0000gn/T//ccMaChhH.s 			page 1


   1              		.cpu cortex-m3
   2              		.arch armv7-m
   3              		.fpu softvfp
   4              		.eabi_attribute 20, 1
   5              		.eabi_attribute 21, 1
   6              		.eabi_attribute 23, 3
   7              		.eabi_attribute 24, 1
   8              		.eabi_attribute 25, 1
   9              		.eabi_attribute 26, 1
  10              		.eabi_attribute 30, 2
  11              		.eabi_attribute 34, 1
  12              		.eabi_attribute 18, 4
  13              		.file	"usbd_cdc_if.c"
  14              		.text
  15              		.section	.text.CDC_DeInit_FS,"ax",%progbits
  16              		.align	1
  17              		.p2align 2,,3
  18              		.syntax unified
  19              		.thumb
  20              		.thumb_func
  22              	CDC_DeInit_FS:
  23              		@ args = 0, pretend = 0, frame = 0
  24              		@ frame_needed = 0, uses_anonymous_args = 0
  25              		@ link register save eliminated.
  26 0000 0020     		movs	r0, #0
  27 0002 7047     		bx	lr
  29              		.section	.text.CDC_Control_FS,"ax",%progbits
  30              		.align	1
  31              		.p2align 2,,3
  32              		.syntax unified
  33              		.thumb
  34              		.thumb_func
  36              	CDC_Control_FS:
  37              		@ args = 0, pretend = 0, frame = 0
  38              		@ frame_needed = 0, uses_anonymous_args = 0
  39              		@ link register save eliminated.
  40 0000 0020     		movs	r0, #0
  41 0002 7047     		bx	lr
  43              		.global	__aeabi_f2d
  44              		.global	__aeabi_dmul
  45              		.global	__aeabi_d2iz
  46              		.section	.text.CDC_Receive_FS,"ax",%progbits
  47              		.align	1
  48              		.p2align 2,,3
  49              		.syntax unified
  50              		.thumb
  51              		.thumb_func
  53              	CDC_Receive_FS:
  54              		@ args = 0, pretend = 0, frame = 0
  55              		@ frame_needed = 0, uses_anonymous_args = 0
  56 0000 0A68     		ldr	r2, [r1]
  57 0002 2DE9F84F 		push	{r3, r4, r5, r6, r7, r8, r9, r10, fp, lr}
  58 0006 8318     		adds	r3, r0, r2
  59 0008 9842     		cmp	r0, r3
  60 000a 8346     		mov	fp, r0
  61 000c 33D2     		bcs	.L10
  62 000e 8946     		mov	r9, r1
ARM GAS  /var/folders/td/83895s255bq6rlxfmrv9fnww0000gn/T//ccMaChhH.s 			page 2


  63 0010 0446     		mov	r4, r0
  64 0012 0026     		movs	r6, #0
  65 0014 1D4F     		ldr	r7, .L17
  66 0016 DFF878A0 		ldr	r10, .L17+4
  67 001a 08E0     		b	.L5
  68              	.L16:
  69 001c C8F83400 		str	r0, [r8, #52]
  70 0020 D9F80020 		ldr	r2, [r9]
  71              	.L6:
  72 0024 0434     		adds	r4, r4, #4
  73 0026 0BEB0203 		add	r3, fp, r2
  74 002a 9C42     		cmp	r4, r3
  75 002c 23D2     		bcs	.L10
  76              	.L5:
  77 002e 2578     		ldrb	r5, [r4]	@ zero_extendqisi2
  78 0030 052D     		cmp	r5, #5
  79 0032 F7D8     		bhi	.L6
  80 0034 022D     		cmp	r5, #2
  81 0036 A5F10303 		sub	r3, r5, #3
  82 003a 92BF     		itee	ls
  83 003c 5346     		movls	r3, r10
  84 003e DDB2     		uxtbhi	r5, r3
  85 0040 144B     		ldrhi	r3, .L17+8
  86 0042 2068     		ldr	r0, [r4]	@ float
  87 0044 D3F80080 		ldr	r8, [r3]
  88 0048 FFF7FEFF 		bl	__aeabi_f2d
  89 004c 3246     		mov	r2, r6
  90 004e 3B46     		mov	r3, r7
  91 0050 FFF7FEFF 		bl	__aeabi_dmul
  92 0054 FFF7FEFF 		bl	__aeabi_d2iz
  93 0058 002D     		cmp	r5, #0
  94 005a DFD0     		beq	.L16
  95 005c 012D     		cmp	r5, #1
  96 005e 0CBF     		ite	eq
  97 0060 C8F83800 		streq	r0, [r8, #56]
  98 0064 C8F83C00 		strne	r0, [r8, #60]
  99 0068 D9F80020 		ldr	r2, [r9]
 100 006c 0434     		adds	r4, r4, #4
 101 006e 0BEB0203 		add	r3, fp, r2
 102 0072 9C42     		cmp	r4, r3
 103 0074 DBD3     		bcc	.L5
 104              	.L10:
 105 0076 5946     		mov	r1, fp
 106 0078 0748     		ldr	r0, .L17+12
 107 007a FFF7FEFF 		bl	USBD_CDC_SetRxBuffer
 108 007e 0648     		ldr	r0, .L17+12
 109 0080 FFF7FEFF 		bl	USBD_CDC_ReceivePacket
 110 0084 0020     		movs	r0, #0
 111 0086 BDE8F88F 		pop	{r3, r4, r5, r6, r7, r8, r9, r10, fp, pc}
 112              	.L18:
 113 008a 00BF     		.align	2
 114              	.L17:
 115 008c 00002440 		.word	1076101120
 116 0090 00000000 		.word	htim1
 117 0094 00000000 		.word	htim2
 118 0098 00000000 		.word	hUsbDeviceFS
 120              		.section	.text.CDC_Init_FS,"ax",%progbits
ARM GAS  /var/folders/td/83895s255bq6rlxfmrv9fnww0000gn/T//ccMaChhH.s 			page 3


 121              		.align	1
 122              		.p2align 2,,3
 123              		.syntax unified
 124              		.thumb
 125              		.thumb_func
 127              	CDC_Init_FS:
 128              		@ args = 0, pretend = 0, frame = 0
 129              		@ frame_needed = 0, uses_anonymous_args = 0
 130 0000 10B5     		push	{r4, lr}
 131 0002 064C     		ldr	r4, .L21
 132 0004 0022     		movs	r2, #0
 133 0006 2046     		mov	r0, r4
 134 0008 0549     		ldr	r1, .L21+4
 135 000a FFF7FEFF 		bl	USBD_CDC_SetTxBuffer
 136 000e 2046     		mov	r0, r4
 137 0010 0449     		ldr	r1, .L21+8
 138 0012 FFF7FEFF 		bl	USBD_CDC_SetRxBuffer
 139 0016 0020     		movs	r0, #0
 140 0018 10BD     		pop	{r4, pc}
 141              	.L22:
 142 001a 00BF     		.align	2
 143              	.L21:
 144 001c 00000000 		.word	hUsbDeviceFS
 145 0020 00000000 		.word	UserTxBufferFS
 146 0024 00000000 		.word	UserRxBufferFS
 148              		.section	.text.CDC_Transmit_FS,"ax",%progbits
 149              		.align	1
 150              		.p2align 2,,3
 151              		.global	CDC_Transmit_FS
 152              		.syntax unified
 153              		.thumb
 154              		.thumb_func
 156              	CDC_Transmit_FS:
 157              		@ args = 0, pretend = 0, frame = 0
 158              		@ frame_needed = 0, uses_anonymous_args = 0
 159 0000 10B5     		push	{r4, lr}
 160 0002 094C     		ldr	r4, .L27
 161 0004 D4F8B832 		ldr	r3, [r4, #696]
 162 0008 D3F81432 		ldr	r3, [r3, #532]
 163 000c 0BB1     		cbz	r3, .L26
 164 000e 0120     		movs	r0, #1
 165 0010 10BD     		pop	{r4, pc}
 166              	.L26:
 167 0012 0A46     		mov	r2, r1
 168 0014 0146     		mov	r1, r0
 169 0016 2046     		mov	r0, r4
 170 0018 FFF7FEFF 		bl	USBD_CDC_SetTxBuffer
 171 001c 2046     		mov	r0, r4
 172 001e BDE81040 		pop	{r4, lr}
 173 0022 FFF7FEBF 		b	USBD_CDC_TransmitPacket
 174              	.L28:
 175 0026 00BF     		.align	2
 176              	.L27:
 177 0028 00000000 		.word	hUsbDeviceFS
 179              		.global	USBD_Interface_fops_FS
 180              		.section	.data.USBD_Interface_fops_FS,"aw"
 181              		.align	2
ARM GAS  /var/folders/td/83895s255bq6rlxfmrv9fnww0000gn/T//ccMaChhH.s 			page 4


 184              	USBD_Interface_fops_FS:
 185 0000 00000000 		.word	CDC_Init_FS
 186 0004 00000000 		.word	CDC_DeInit_FS
 187 0008 00000000 		.word	CDC_Control_FS
 188 000c 00000000 		.word	CDC_Receive_FS
 189              		.global	UserTxBufferFS
 190              		.section	.bss.UserTxBufferFS,"aw",%nobits
 191              		.align	2
 194              	UserTxBufferFS:
 195 0000 00000000 		.space	1024
 195      00000000 
 195      00000000 
 195      00000000 
 195      00000000 
 196              		.global	UserRxBufferFS
 197              		.section	.bss.UserRxBufferFS,"aw",%nobits
 198              		.align	2
 201              	UserRxBufferFS:
 202 0000 00000000 		.space	1024
 202      00000000 
 202      00000000 
 202      00000000 
 202      00000000 
 203              		.ident	"GCC: (Arm GNU Toolchain 13.2.rel1 (Build arm-13.7)) 13.2.1 20231009"
ARM GAS  /var/folders/td/83895s255bq6rlxfmrv9fnww0000gn/T//ccMaChhH.s 			page 5


DEFINED SYMBOLS
                            *ABS*:00000000 usbd_cdc_if.c
/var/folders/td/83895s255bq6rlxfmrv9fnww0000gn/T//ccMaChhH.s:16     .text.CDC_DeInit_FS:00000000 $t
/var/folders/td/83895s255bq6rlxfmrv9fnww0000gn/T//ccMaChhH.s:22     .text.CDC_DeInit_FS:00000000 CDC_DeInit_FS
/var/folders/td/83895s255bq6rlxfmrv9fnww0000gn/T//ccMaChhH.s:30     .text.CDC_Control_FS:00000000 $t
/var/folders/td/83895s255bq6rlxfmrv9fnww0000gn/T//ccMaChhH.s:36     .text.CDC_Control_FS:00000000 CDC_Control_FS
/var/folders/td/83895s255bq6rlxfmrv9fnww0000gn/T//ccMaChhH.s:47     .text.CDC_Receive_FS:00000000 $t
/var/folders/td/83895s255bq6rlxfmrv9fnww0000gn/T//ccMaChhH.s:53     .text.CDC_Receive_FS:00000000 CDC_Receive_FS
/var/folders/td/83895s255bq6rlxfmrv9fnww0000gn/T//ccMaChhH.s:115    .text.CDC_Receive_FS:0000008c $d
/var/folders/td/83895s255bq6rlxfmrv9fnww0000gn/T//ccMaChhH.s:121    .text.CDC_Init_FS:00000000 $t
/var/folders/td/83895s255bq6rlxfmrv9fnww0000gn/T//ccMaChhH.s:127    .text.CDC_Init_FS:00000000 CDC_Init_FS
/var/folders/td/83895s255bq6rlxfmrv9fnww0000gn/T//ccMaChhH.s:144    .text.CDC_Init_FS:0000001c $d
/var/folders/td/83895s255bq6rlxfmrv9fnww0000gn/T//ccMaChhH.s:194    .bss.UserTxBufferFS:00000000 UserTxBufferFS
/var/folders/td/83895s255bq6rlxfmrv9fnww0000gn/T//ccMaChhH.s:201    .bss.UserRxBufferFS:00000000 UserRxBufferFS
/var/folders/td/83895s255bq6rlxfmrv9fnww0000gn/T//ccMaChhH.s:149    .text.CDC_Transmit_FS:00000000 $t
/var/folders/td/83895s255bq6rlxfmrv9fnww0000gn/T//ccMaChhH.s:156    .text.CDC_Transmit_FS:00000000 CDC_Transmit_FS
/var/folders/td/83895s255bq6rlxfmrv9fnww0000gn/T//ccMaChhH.s:177    .text.CDC_Transmit_FS:00000028 $d
/var/folders/td/83895s255bq6rlxfmrv9fnww0000gn/T//ccMaChhH.s:184    .data.USBD_Interface_fops_FS:00000000 USBD_Interface_fops_FS
/var/folders/td/83895s255bq6rlxfmrv9fnww0000gn/T//ccMaChhH.s:181    .data.USBD_Interface_fops_FS:00000000 $d
/var/folders/td/83895s255bq6rlxfmrv9fnww0000gn/T//ccMaChhH.s:191    .bss.UserTxBufferFS:00000000 $d
/var/folders/td/83895s255bq6rlxfmrv9fnww0000gn/T//ccMaChhH.s:198    .bss.UserRxBufferFS:00000000 $d

UNDEFINED SYMBOLS
__aeabi_f2d
__aeabi_dmul
__aeabi_d2iz
USBD_CDC_SetRxBuffer
USBD_CDC_ReceivePacket
htim1
htim2
hUsbDeviceFS
USBD_CDC_SetTxBuffer
USBD_CDC_TransmitPacket
