ARM GAS  /var/folders/td/83895s255bq6rlxfmrv9fnww0000gn/T//ccNR4s7e.s 			page 1


   1              		.cpu cortex-m3
   2              		.arch armv7-m
   3              		.fpu softvfp
   4              		.eabi_attribute 20, 1
   5              		.eabi_attribute 21, 1
   6              		.eabi_attribute 23, 3
   7              		.eabi_attribute 24, 1
   8              		.eabi_attribute 25, 1
   9              		.eabi_attribute 26, 1
  10              		.eabi_attribute 30, 2
  11              		.eabi_attribute 34, 1
  12              		.eabi_attribute 18, 4
  13              		.file	"usbd_desc.c"
  14              		.text
  15              		.section	.text.USBD_FS_DeviceDescriptor,"ax",%progbits
  16              		.align	1
  17              		.p2align 2,,3
  18              		.global	USBD_FS_DeviceDescriptor
  19              		.syntax unified
  20              		.thumb
  21              		.thumb_func
  23              	USBD_FS_DeviceDescriptor:
  24              		@ args = 0, pretend = 0, frame = 0
  25              		@ frame_needed = 0, uses_anonymous_args = 0
  26              		@ link register save eliminated.
  27 0000 1223     		movs	r3, #18
  28 0002 0148     		ldr	r0, .L3
  29 0004 0B80     		strh	r3, [r1]	@ movhi
  30 0006 7047     		bx	lr
  31              	.L4:
  32              		.align	2
  33              	.L3:
  34 0008 00000000 		.word	USBD_FS_DeviceDesc
  36              		.section	.text.USBD_FS_LangIDStrDescriptor,"ax",%progbits
  37              		.align	1
  38              		.p2align 2,,3
  39              		.global	USBD_FS_LangIDStrDescriptor
  40              		.syntax unified
  41              		.thumb
  42              		.thumb_func
  44              	USBD_FS_LangIDStrDescriptor:
  45              		@ args = 0, pretend = 0, frame = 0
  46              		@ frame_needed = 0, uses_anonymous_args = 0
  47              		@ link register save eliminated.
  48 0000 0423     		movs	r3, #4
  49 0002 0148     		ldr	r0, .L6
  50 0004 0B80     		strh	r3, [r1]	@ movhi
  51 0006 7047     		bx	lr
  52              	.L7:
  53              		.align	2
  54              	.L6:
  55 0008 00000000 		.word	USBD_LangIDDesc
  57              		.section	.rodata.USBD_FS_ManufacturerStrDescriptor.str1.4,"aMS",%progbits,1
  58              		.align	2
  59              	.LC0:
  60 0000 53544D69 		.ascii	"STMicroelectronics\000"
  60      63726F65 
ARM GAS  /var/folders/td/83895s255bq6rlxfmrv9fnww0000gn/T//ccNR4s7e.s 			page 2


  60      6C656374 
  60      726F6E69 
  60      637300
  61              		.section	.text.USBD_FS_ManufacturerStrDescriptor,"ax",%progbits
  62              		.align	1
  63              		.p2align 2,,3
  64              		.global	USBD_FS_ManufacturerStrDescriptor
  65              		.syntax unified
  66              		.thumb
  67              		.thumb_func
  69              	USBD_FS_ManufacturerStrDescriptor:
  70              		@ args = 0, pretend = 0, frame = 0
  71              		@ frame_needed = 0, uses_anonymous_args = 0
  72 0000 10B5     		push	{r4, lr}
  73 0002 044C     		ldr	r4, .L10
  74 0004 0A46     		mov	r2, r1
  75 0006 0448     		ldr	r0, .L10+4
  76 0008 2146     		mov	r1, r4
  77 000a FFF7FEFF 		bl	USBD_GetString
  78 000e 2046     		mov	r0, r4
  79 0010 10BD     		pop	{r4, pc}
  80              	.L11:
  81 0012 00BF     		.align	2
  82              	.L10:
  83 0014 00000000 		.word	USBD_StrDesc
  84 0018 00000000 		.word	.LC0
  86              		.section	.rodata.USBD_FS_ProductStrDescriptor.str1.4,"aMS",%progbits,1
  87              		.align	2
  88              	.LC1:
  89 0000 6370752D 		.ascii	"cpu-meter\000"
  89      6D657465 
  89      7200
  90              		.section	.text.USBD_FS_ProductStrDescriptor,"ax",%progbits
  91              		.align	1
  92              		.p2align 2,,3
  93              		.global	USBD_FS_ProductStrDescriptor
  94              		.syntax unified
  95              		.thumb
  96              		.thumb_func
  98              	USBD_FS_ProductStrDescriptor:
  99              		@ args = 0, pretend = 0, frame = 0
 100              		@ frame_needed = 0, uses_anonymous_args = 0
 101 0000 10B5     		push	{r4, lr}
 102 0002 044C     		ldr	r4, .L14
 103 0004 0A46     		mov	r2, r1
 104 0006 0448     		ldr	r0, .L14+4
 105 0008 2146     		mov	r1, r4
 106 000a FFF7FEFF 		bl	USBD_GetString
 107 000e 2046     		mov	r0, r4
 108 0010 10BD     		pop	{r4, pc}
 109              	.L15:
 110 0012 00BF     		.align	2
 111              	.L14:
 112 0014 00000000 		.word	USBD_StrDesc
 113 0018 00000000 		.word	.LC1
 115              		.section	.rodata.USBD_FS_ConfigStrDescriptor.str1.4,"aMS",%progbits,1
 116              		.align	2
ARM GAS  /var/folders/td/83895s255bq6rlxfmrv9fnww0000gn/T//ccNR4s7e.s 			page 3


 117              	.LC2:
 118 0000 43444320 		.ascii	"CDC Config\000"
 118      436F6E66 
 118      696700
 119              		.section	.text.USBD_FS_ConfigStrDescriptor,"ax",%progbits
 120              		.align	1
 121              		.p2align 2,,3
 122              		.global	USBD_FS_ConfigStrDescriptor
 123              		.syntax unified
 124              		.thumb
 125              		.thumb_func
 127              	USBD_FS_ConfigStrDescriptor:
 128              		@ args = 0, pretend = 0, frame = 0
 129              		@ frame_needed = 0, uses_anonymous_args = 0
 130 0000 10B5     		push	{r4, lr}
 131 0002 044C     		ldr	r4, .L18
 132 0004 0A46     		mov	r2, r1
 133 0006 0448     		ldr	r0, .L18+4
 134 0008 2146     		mov	r1, r4
 135 000a FFF7FEFF 		bl	USBD_GetString
 136 000e 2046     		mov	r0, r4
 137 0010 10BD     		pop	{r4, pc}
 138              	.L19:
 139 0012 00BF     		.align	2
 140              	.L18:
 141 0014 00000000 		.word	USBD_StrDesc
 142 0018 00000000 		.word	.LC2
 144              		.section	.rodata.USBD_FS_InterfaceStrDescriptor.str1.4,"aMS",%progbits,1
 145              		.align	2
 146              	.LC3:
 147 0000 43444320 		.ascii	"CDC Interface\000"
 147      496E7465 
 147      72666163 
 147      6500
 148              		.section	.text.USBD_FS_InterfaceStrDescriptor,"ax",%progbits
 149              		.align	1
 150              		.p2align 2,,3
 151              		.global	USBD_FS_InterfaceStrDescriptor
 152              		.syntax unified
 153              		.thumb
 154              		.thumb_func
 156              	USBD_FS_InterfaceStrDescriptor:
 157              		@ args = 0, pretend = 0, frame = 0
 158              		@ frame_needed = 0, uses_anonymous_args = 0
 159 0000 10B5     		push	{r4, lr}
 160 0002 044C     		ldr	r4, .L22
 161 0004 0A46     		mov	r2, r1
 162 0006 0448     		ldr	r0, .L22+4
 163 0008 2146     		mov	r1, r4
 164 000a FFF7FEFF 		bl	USBD_GetString
 165 000e 2046     		mov	r0, r4
 166 0010 10BD     		pop	{r4, pc}
 167              	.L23:
 168 0012 00BF     		.align	2
 169              	.L22:
 170 0014 00000000 		.word	USBD_StrDesc
 171 0018 00000000 		.word	.LC3
ARM GAS  /var/folders/td/83895s255bq6rlxfmrv9fnww0000gn/T//ccNR4s7e.s 			page 4


 173              		.section	.text.USBD_FS_SerialStrDescriptor,"ax",%progbits
 174              		.align	1
 175              		.p2align 2,,3
 176              		.global	USBD_FS_SerialStrDescriptor
 177              		.syntax unified
 178              		.thumb
 179              		.thumb_func
 181              	USBD_FS_SerialStrDescriptor:
 182              		@ args = 0, pretend = 0, frame = 0
 183              		@ frame_needed = 0, uses_anonymous_args = 0
 184 0000 10B5     		push	{r4, lr}
 185 0002 1A24     		movs	r4, #26
 186 0004 1948     		ldr	r0, .L38
 187 0006 D0F8E837 		ldr	r3, [r0, #2024]
 188 000a D0F8F027 		ldr	r2, [r0, #2032]
 189 000e 0C80     		strh	r4, [r1]	@ movhi
 190 0010 9B18     		adds	r3, r3, r2
 191 0012 01D1     		bne	.L37
 192 0014 1648     		ldr	r0, .L38+4
 193 0016 10BD     		pop	{r4, pc}
 194              	.L37:
 195 0018 154A     		ldr	r2, .L38+4
 196 001a 0024     		movs	r4, #0
 197 001c 1146     		mov	r1, r2
 198 001e D0F8EC07 		ldr	r0, [r0, #2028]
 199 0022 02F1100E 		add	lr, r2, #16
 200              	.L28:
 201 0026 4FEA137C 		lsr	ip, r3, #28
 202 002a B3F1204F 		cmp	r3, #-1610612736
 203 002e 34BF     		ite	cc
 204 0030 0CF1300C 		addcc	ip, ip, #48
 205 0034 0CF1370C 		addcs	ip, ip, #55
 206 0038 81F802C0 		strb	ip, [r1, #2]
 207 003c CC70     		strb	r4, [r1, #3]
 208 003e 0231     		adds	r1, r1, #2
 209 0040 8E45     		cmp	lr, r1
 210 0042 4FEA0313 		lsl	r3, r3, #4
 211 0046 EED1     		bne	.L28
 212 0048 0024     		movs	r4, #0
 213 004a 0A49     		ldr	r1, .L38+8
 214              	.L31:
 215 004c 030F     		lsrs	r3, r0, #28
 216 004e B0F1204F 		cmp	r0, #-1610612736
 217 0052 34BF     		ite	cc
 218 0054 3033     		addcc	r3, r3, #48
 219 0056 3733     		addcs	r3, r3, #55
 220 0058 9374     		strb	r3, [r2, #18]
 221 005a D474     		strb	r4, [r2, #19]
 222 005c 0232     		adds	r2, r2, #2
 223 005e 9142     		cmp	r1, r2
 224 0060 4FEA0010 		lsl	r0, r0, #4
 225 0064 F2D1     		bne	.L31
 226 0066 0248     		ldr	r0, .L38+4
 227 0068 10BD     		pop	{r4, pc}
 228              	.L39:
 229 006a 00BF     		.align	2
 230              	.L38:
ARM GAS  /var/folders/td/83895s255bq6rlxfmrv9fnww0000gn/T//ccNR4s7e.s 			page 5


 231 006c 00F0FF1F 		.word	536866816
 232 0070 00000000 		.word	USBD_StringSerial
 233 0074 08000000 		.word	USBD_StringSerial+8
 235              		.global	USBD_StringSerial
 236              		.section	.data.USBD_StringSerial,"aw"
 237              		.align	2
 240              	USBD_StringSerial:
 241 0000 1A0300   		.ascii	"\032\003\000"
 242 0003 00000000 		.space	23
 242      00000000 
 242      00000000 
 242      00000000 
 242      00000000 
 243              		.global	USBD_StrDesc
 244              		.section	.bss.USBD_StrDesc,"aw",%nobits
 245              		.align	2
 248              	USBD_StrDesc:
 249 0000 00000000 		.space	512
 249      00000000 
 249      00000000 
 249      00000000 
 249      00000000 
 250              		.global	USBD_LangIDDesc
 251              		.section	.data.USBD_LangIDDesc,"aw"
 252              		.align	2
 255              	USBD_LangIDDesc:
 256 0000 04030904 		.ascii	"\004\003\011\004"
 257              		.global	USBD_FS_DeviceDesc
 258              		.section	.data.USBD_FS_DeviceDesc,"aw"
 259              		.align	2
 262              	USBD_FS_DeviceDesc:
 263 0000 12010002 		.ascii	"\022\001\000\002\002\002\000@\203\004@W\000\002\001"
 263      02020040 
 263      83044057 
 263      000201
 264 000f 020301   		.ascii	"\002\003\001"
 265              		.global	FS_Desc
 266              		.section	.data.FS_Desc,"aw"
 267              		.align	2
 270              	FS_Desc:
 271 0000 00000000 		.word	USBD_FS_DeviceDescriptor
 272 0004 00000000 		.word	USBD_FS_LangIDStrDescriptor
 273 0008 00000000 		.word	USBD_FS_ManufacturerStrDescriptor
 274 000c 00000000 		.word	USBD_FS_ProductStrDescriptor
 275 0010 00000000 		.word	USBD_FS_SerialStrDescriptor
 276 0014 00000000 		.word	USBD_FS_ConfigStrDescriptor
 277 0018 00000000 		.word	USBD_FS_InterfaceStrDescriptor
 278              		.ident	"GCC: (Arm GNU Toolchain 13.2.rel1 (Build arm-13.7)) 13.2.1 20231009"
ARM GAS  /var/folders/td/83895s255bq6rlxfmrv9fnww0000gn/T//ccNR4s7e.s 			page 6

