ARM GAS  /var/folders/td/83895s255bq6rlxfmrv9fnww0000gn/T//cc0y3vyr.s 			page 1


   1              		.cpu cortex-m3
   2              		.arch armv7-m
   3              		.fpu softvfp
   4              		.eabi_attribute 20, 1
   5              		.eabi_attribute 21, 1
   6              		.eabi_attribute 23, 3
   7              		.eabi_attribute 24, 1
   8              		.eabi_attribute 25, 1
   9              		.eabi_attribute 26, 1
  10              		.eabi_attribute 30, 2
  11              		.eabi_attribute 34, 1
  12              		.eabi_attribute 18, 4
  13              		.file	"usbd_conf.c"
  14              		.text
  15              		.section	.text.HAL_PCD_MspInit,"ax",%progbits
  16              		.align	1
  17              		.p2align 2,,3
  18              		.global	HAL_PCD_MspInit
  19              		.syntax unified
  20              		.thumb
  21              		.thumb_func
  23              	HAL_PCD_MspInit:
  24              		@ args = 0, pretend = 0, frame = 8
  25              		@ frame_needed = 0, uses_anonymous_args = 0
  26 0000 124B     		ldr	r3, .L8
  27 0002 0268     		ldr	r2, [r0]
  28 0004 9A42     		cmp	r2, r3
  29 0006 00D0     		beq	.L7
  30 0008 7047     		bx	lr
  31              	.L7:
  32 000a 0022     		movs	r2, #0
  33 000c 03F5DA33 		add	r3, r3, #111616
  34 0010 D969     		ldr	r1, [r3, #28]
  35 0012 00B5     		push	{lr}
  36 0014 41F40001 		orr	r1, r1, #8388608
  37 0018 D961     		str	r1, [r3, #28]
  38 001a DB69     		ldr	r3, [r3, #28]
  39 001c 83B0     		sub	sp, sp, #12
  40 001e 03F40003 		and	r3, r3, #8388608
  41 0022 1146     		mov	r1, r2
  42 0024 0193     		str	r3, [sp, #4]
  43 0026 1320     		movs	r0, #19
  44 0028 019B     		ldr	r3, [sp, #4]
  45 002a FFF7FEFF 		bl	HAL_NVIC_SetPriority
  46 002e 1320     		movs	r0, #19
  47 0030 FFF7FEFF 		bl	HAL_NVIC_EnableIRQ
  48 0034 0022     		movs	r2, #0
  49 0036 1420     		movs	r0, #20
  50 0038 1146     		mov	r1, r2
  51 003a FFF7FEFF 		bl	HAL_NVIC_SetPriority
  52 003e 1420     		movs	r0, #20
  53 0040 03B0     		add	sp, sp, #12
  54              		@ sp needed
  55 0042 5DF804EB 		ldr	lr, [sp], #4
  56 0046 FFF7FEBF 		b	HAL_NVIC_EnableIRQ
  57              	.L9:
  58 004a 00BF     		.align	2
ARM GAS  /var/folders/td/83895s255bq6rlxfmrv9fnww0000gn/T//cc0y3vyr.s 			page 2


  59              	.L8:
  60 004c 005C0040 		.word	1073765376
  62              		.section	.text.HAL_PCD_MspDeInit,"ax",%progbits
  63              		.align	1
  64              		.p2align 2,,3
  65              		.global	HAL_PCD_MspDeInit
  66              		.syntax unified
  67              		.thumb
  68              		.thumb_func
  70              	HAL_PCD_MspDeInit:
  71              		@ args = 0, pretend = 0, frame = 0
  72              		@ frame_needed = 0, uses_anonymous_args = 0
  73 0000 08B5     		push	{r3, lr}
  74 0002 0268     		ldr	r2, [r0]
  75 0004 084B     		ldr	r3, .L14
  76 0006 9A42     		cmp	r2, r3
  77 0008 00D0     		beq	.L13
  78 000a 08BD     		pop	{r3, pc}
  79              	.L13:
  80 000c 074A     		ldr	r2, .L14+4
  81 000e 1320     		movs	r0, #19
  82 0010 D369     		ldr	r3, [r2, #28]
  83 0012 23F40003 		bic	r3, r3, #8388608
  84 0016 D361     		str	r3, [r2, #28]
  85 0018 FFF7FEFF 		bl	HAL_NVIC_DisableIRQ
  86 001c BDE80840 		pop	{r3, lr}
  87 0020 1420     		movs	r0, #20
  88 0022 FFF7FEBF 		b	HAL_NVIC_DisableIRQ
  89              	.L15:
  90 0026 00BF     		.align	2
  91              	.L14:
  92 0028 005C0040 		.word	1073765376
  93 002c 00100240 		.word	1073876992
  95              		.section	.text.HAL_PCD_SetupStageCallback,"ax",%progbits
  96              		.align	1
  97              		.p2align 2,,3
  98              		.global	HAL_PCD_SetupStageCallback
  99              		.syntax unified
 100              		.thumb
 101              		.thumb_func
 103              	HAL_PCD_SetupStageCallback:
 104              		@ args = 0, pretend = 0, frame = 0
 105              		@ frame_needed = 0, uses_anonymous_args = 0
 106              		@ link register save eliminated.
 107 0000 0146     		mov	r1, r0
 108 0002 D0F8EC02 		ldr	r0, [r0, #748]
 109 0006 01F52C71 		add	r1, r1, #688
 110 000a FFF7FEBF 		b	USBD_LL_SetupStage
 112 000e 00BF     		.section	.text.HAL_PCD_DataOutStageCallback,"ax",%progbits
 113              		.align	1
 114              		.p2align 2,,3
 115              		.global	HAL_PCD_DataOutStageCallback
 116              		.syntax unified
 117              		.thumb
 118              		.thumb_func
 120              	HAL_PCD_DataOutStageCallback:
 121              		@ args = 0, pretend = 0, frame = 0
ARM GAS  /var/folders/td/83895s255bq6rlxfmrv9fnww0000gn/T//cc0y3vyr.s 			page 3


 122              		@ frame_needed = 0, uses_anonymous_args = 0
 123              		@ link register save eliminated.
 124 0000 01EB8103 		add	r3, r1, r1, lsl #2
 125 0004 00EBC303 		add	r3, r0, r3, lsl #3
 126 0008 D3F87C21 		ldr	r2, [r3, #380]
 127 000c D0F8EC02 		ldr	r0, [r0, #748]
 128 0010 FFF7FEBF 		b	USBD_LL_DataOutStage
 130              		.section	.text.HAL_PCD_DataInStageCallback,"ax",%progbits
 131              		.align	1
 132              		.p2align 2,,3
 133              		.global	HAL_PCD_DataInStageCallback
 134              		.syntax unified
 135              		.thumb
 136              		.thumb_func
 138              	HAL_PCD_DataInStageCallback:
 139              		@ args = 0, pretend = 0, frame = 0
 140              		@ frame_needed = 0, uses_anonymous_args = 0
 141              		@ link register save eliminated.
 142 0000 01EB8103 		add	r3, r1, r1, lsl #2
 143 0004 00EBC303 		add	r3, r0, r3, lsl #3
 144 0008 DA6B     		ldr	r2, [r3, #60]
 145 000a D0F8EC02 		ldr	r0, [r0, #748]
 146 000e FFF7FEBF 		b	USBD_LL_DataInStage
 148 0012 00BF     		.section	.text.HAL_PCD_SOFCallback,"ax",%progbits
 149              		.align	1
 150              		.p2align 2,,3
 151              		.global	HAL_PCD_SOFCallback
 152              		.syntax unified
 153              		.thumb
 154              		.thumb_func
 156              	HAL_PCD_SOFCallback:
 157              		@ args = 0, pretend = 0, frame = 0
 158              		@ frame_needed = 0, uses_anonymous_args = 0
 159              		@ link register save eliminated.
 160 0000 D0F8EC02 		ldr	r0, [r0, #748]
 161 0004 FFF7FEBF 		b	USBD_LL_SOF
 163              		.section	.text.HAL_PCD_ResetCallback,"ax",%progbits
 164              		.align	1
 165              		.p2align 2,,3
 166              		.global	HAL_PCD_ResetCallback
 167              		.syntax unified
 168              		.thumb
 169              		.thumb_func
 171              	HAL_PCD_ResetCallback:
 172              		@ args = 0, pretend = 0, frame = 0
 173              		@ frame_needed = 0, uses_anonymous_args = 0
 174 0000 8368     		ldr	r3, [r0, #8]
 175 0002 10B5     		push	{r4, lr}
 176 0004 022B     		cmp	r3, #2
 177 0006 0446     		mov	r4, r0
 178 0008 01D0     		beq	.L21
 179 000a FFF7FEFF 		bl	Error_Handler
 180              	.L21:
 181 000e D4F8EC02 		ldr	r0, [r4, #748]
 182 0012 0121     		movs	r1, #1
 183 0014 FFF7FEFF 		bl	USBD_LL_SetSpeed
 184 0018 D4F8EC02 		ldr	r0, [r4, #748]
ARM GAS  /var/folders/td/83895s255bq6rlxfmrv9fnww0000gn/T//cc0y3vyr.s 			page 4


 185 001c BDE81040 		pop	{r4, lr}
 186 0020 FFF7FEBF 		b	USBD_LL_Reset
 188              		.section	.text.HAL_PCD_SuspendCallback,"ax",%progbits
 189              		.align	1
 190              		.p2align 2,,3
 191              		.global	HAL_PCD_SuspendCallback
 192              		.syntax unified
 193              		.thumb
 194              		.thumb_func
 196              	HAL_PCD_SuspendCallback:
 197              		@ args = 0, pretend = 0, frame = 0
 198              		@ frame_needed = 0, uses_anonymous_args = 0
 199 0000 10B5     		push	{r4, lr}
 200 0002 0446     		mov	r4, r0
 201 0004 D0F8EC02 		ldr	r0, [r0, #748]
 202 0008 FFF7FEFF 		bl	USBD_LL_Suspend
 203 000c A369     		ldr	r3, [r4, #24]
 204 000e 23B1     		cbz	r3, .L26
 205 0010 024A     		ldr	r2, .L32
 206 0012 1369     		ldr	r3, [r2, #16]
 207 0014 43F00603 		orr	r3, r3, #6
 208 0018 1361     		str	r3, [r2, #16]
 209              	.L26:
 210 001a 10BD     		pop	{r4, pc}
 211              	.L33:
 212              		.align	2
 213              	.L32:
 214 001c 00ED00E0 		.word	-536810240
 216              		.section	.text.HAL_PCD_ResumeCallback,"ax",%progbits
 217              		.align	1
 218              		.p2align 2,,3
 219              		.global	HAL_PCD_ResumeCallback
 220              		.syntax unified
 221              		.thumb
 222              		.thumb_func
 224              	HAL_PCD_ResumeCallback:
 225              		@ args = 0, pretend = 0, frame = 0
 226              		@ frame_needed = 0, uses_anonymous_args = 0
 227              		@ link register save eliminated.
 228 0000 D0F8EC02 		ldr	r0, [r0, #748]
 229 0004 FFF7FEBF 		b	USBD_LL_Resume
 231              		.section	.text.HAL_PCD_ISOOUTIncompleteCallback,"ax",%progbits
 232              		.align	1
 233              		.p2align 2,,3
 234              		.global	HAL_PCD_ISOOUTIncompleteCallback
 235              		.syntax unified
 236              		.thumb
 237              		.thumb_func
 239              	HAL_PCD_ISOOUTIncompleteCallback:
 240              		@ args = 0, pretend = 0, frame = 0
 241              		@ frame_needed = 0, uses_anonymous_args = 0
 242              		@ link register save eliminated.
 243 0000 D0F8EC02 		ldr	r0, [r0, #748]
 244 0004 FFF7FEBF 		b	USBD_LL_IsoOUTIncomplete
 246              		.section	.text.HAL_PCD_ISOINIncompleteCallback,"ax",%progbits
 247              		.align	1
 248              		.p2align 2,,3
ARM GAS  /var/folders/td/83895s255bq6rlxfmrv9fnww0000gn/T//cc0y3vyr.s 			page 5


 249              		.global	HAL_PCD_ISOINIncompleteCallback
 250              		.syntax unified
 251              		.thumb
 252              		.thumb_func
 254              	HAL_PCD_ISOINIncompleteCallback:
 255              		@ args = 0, pretend = 0, frame = 0
 256              		@ frame_needed = 0, uses_anonymous_args = 0
 257              		@ link register save eliminated.
 258 0000 D0F8EC02 		ldr	r0, [r0, #748]
 259 0004 FFF7FEBF 		b	USBD_LL_IsoINIncomplete
 261              		.section	.text.HAL_PCD_ConnectCallback,"ax",%progbits
 262              		.align	1
 263              		.p2align 2,,3
 264              		.global	HAL_PCD_ConnectCallback
 265              		.syntax unified
 266              		.thumb
 267              		.thumb_func
 269              	HAL_PCD_ConnectCallback:
 270              		@ args = 0, pretend = 0, frame = 0
 271              		@ frame_needed = 0, uses_anonymous_args = 0
 272              		@ link register save eliminated.
 273 0000 D0F8EC02 		ldr	r0, [r0, #748]
 274 0004 FFF7FEBF 		b	USBD_LL_DevConnected
 276              		.section	.text.HAL_PCD_DisconnectCallback,"ax",%progbits
 277              		.align	1
 278              		.p2align 2,,3
 279              		.global	HAL_PCD_DisconnectCallback
 280              		.syntax unified
 281              		.thumb
 282              		.thumb_func
 284              	HAL_PCD_DisconnectCallback:
 285              		@ args = 0, pretend = 0, frame = 0
 286              		@ frame_needed = 0, uses_anonymous_args = 0
 287              		@ link register save eliminated.
 288 0000 D0F8EC02 		ldr	r0, [r0, #748]
 289 0004 FFF7FEBF 		b	USBD_LL_DevDisconnected
 291              		.section	.text.USBD_LL_Init,"ax",%progbits
 292              		.align	1
 293              		.p2align 2,,3
 294              		.global	USBD_LL_Init
 295              		.syntax unified
 296              		.thumb
 297              		.thumb_func
 299              	USBD_LL_Init:
 300              		@ args = 0, pretend = 0, frame = 0
 301              		@ frame_needed = 0, uses_anonymous_args = 0
 302 0000 0822     		movs	r2, #8
 303 0002 38B5     		push	{r3, r4, r5, lr}
 304 0004 0024     		movs	r4, #0
 305 0006 0025     		movs	r5, #0
 306 0008 1E4B     		ldr	r3, .L46
 307 000a 0221     		movs	r1, #2
 308 000c 5A60     		str	r2, [r3, #4]
 309 000e 0022     		movs	r2, #0
 310 0010 C3E90645 		strd	r4, [r3, #24]
 311 0014 0446     		mov	r4, r0
 312 0016 1A62     		str	r2, [r3, #32]
ARM GAS  /var/folders/td/83895s255bq6rlxfmrv9fnww0000gn/T//cc0y3vyr.s 			page 6


 313 0018 1B4A     		ldr	r2, .L46+4
 314 001a C3F8EC42 		str	r4, [r3, #748]
 315 001e 1846     		mov	r0, r3
 316 0020 C4F8C032 		str	r3, [r4, #704]
 317 0024 9960     		str	r1, [r3, #8]
 318 0026 1A60     		str	r2, [r3]
 319 0028 FFF7FEFF 		bl	HAL_PCD_Init
 320 002c 30BB     		cbnz	r0, .L45
 321              	.L40:
 322 002e 0022     		movs	r2, #0
 323 0030 1823     		movs	r3, #24
 324 0032 1146     		mov	r1, r2
 325 0034 D4F8C002 		ldr	r0, [r4, #704]
 326 0038 FFF7FEFF 		bl	HAL_PCDEx_PMAConfig
 327 003c 5823     		movs	r3, #88
 328 003e 0022     		movs	r2, #0
 329 0040 8021     		movs	r1, #128
 330 0042 D4F8C002 		ldr	r0, [r4, #704]
 331 0046 FFF7FEFF 		bl	HAL_PCDEx_PMAConfig
 332 004a C023     		movs	r3, #192
 333 004c 0022     		movs	r2, #0
 334 004e 8121     		movs	r1, #129
 335 0050 D4F8C002 		ldr	r0, [r4, #704]
 336 0054 FFF7FEFF 		bl	HAL_PCDEx_PMAConfig
 337 0058 4FF48873 		mov	r3, #272
 338 005c 0022     		movs	r2, #0
 339 005e 0121     		movs	r1, #1
 340 0060 D4F8C002 		ldr	r0, [r4, #704]
 341 0064 FFF7FEFF 		bl	HAL_PCDEx_PMAConfig
 342 0068 4FF48073 		mov	r3, #256
 343 006c 0022     		movs	r2, #0
 344 006e 8221     		movs	r1, #130
 345 0070 D4F8C002 		ldr	r0, [r4, #704]
 346 0074 FFF7FEFF 		bl	HAL_PCDEx_PMAConfig
 347 0078 0020     		movs	r0, #0
 348 007a 38BD     		pop	{r3, r4, r5, pc}
 349              	.L45:
 350 007c FFF7FEFF 		bl	Error_Handler
 351 0080 D5E7     		b	.L40
 352              	.L47:
 353 0082 00BF     		.align	2
 354              	.L46:
 355 0084 00000000 		.word	hpcd_USB_FS
 356 0088 005C0040 		.word	1073765376
 358              		.section	.text.USBD_LL_DeInit,"ax",%progbits
 359              		.align	1
 360              		.p2align 2,,3
 361              		.global	USBD_LL_DeInit
 362              		.syntax unified
 363              		.thumb
 364              		.thumb_func
 366              	USBD_LL_DeInit:
 367              		@ args = 0, pretend = 0, frame = 0
 368              		@ frame_needed = 0, uses_anonymous_args = 0
 369 0000 08B5     		push	{r3, lr}
 370 0002 D0F8C002 		ldr	r0, [r0, #704]
 371 0006 FFF7FEFF 		bl	HAL_PCD_DeInit
ARM GAS  /var/folders/td/83895s255bq6rlxfmrv9fnww0000gn/T//cc0y3vyr.s 			page 7


 372 000a 18B1     		cbz	r0, .L49
 373 000c 0228     		cmp	r0, #2
 374 000e 0CBF     		ite	eq
 375 0010 0120     		moveq	r0, #1
 376 0012 0220     		movne	r0, #2
 377              	.L49:
 378 0014 08BD     		pop	{r3, pc}
 380 0016 00BF     		.section	.text.USBD_LL_Start,"ax",%progbits
 381              		.align	1
 382              		.p2align 2,,3
 383              		.global	USBD_LL_Start
 384              		.syntax unified
 385              		.thumb
 386              		.thumb_func
 388              	USBD_LL_Start:
 389              		@ args = 0, pretend = 0, frame = 0
 390              		@ frame_needed = 0, uses_anonymous_args = 0
 391 0000 08B5     		push	{r3, lr}
 392 0002 D0F8C002 		ldr	r0, [r0, #704]
 393 0006 FFF7FEFF 		bl	HAL_PCD_Start
 394 000a 18B1     		cbz	r0, .L56
 395 000c 0228     		cmp	r0, #2
 396 000e 0CBF     		ite	eq
 397 0010 0120     		moveq	r0, #1
 398 0012 0220     		movne	r0, #2
 399              	.L56:
 400 0014 08BD     		pop	{r3, pc}
 402 0016 00BF     		.section	.text.USBD_LL_Stop,"ax",%progbits
 403              		.align	1
 404              		.p2align 2,,3
 405              		.global	USBD_LL_Stop
 406              		.syntax unified
 407              		.thumb
 408              		.thumb_func
 410              	USBD_LL_Stop:
 411              		@ args = 0, pretend = 0, frame = 0
 412              		@ frame_needed = 0, uses_anonymous_args = 0
 413 0000 08B5     		push	{r3, lr}
 414 0002 D0F8C002 		ldr	r0, [r0, #704]
 415 0006 FFF7FEFF 		bl	HAL_PCD_Stop
 416 000a 18B1     		cbz	r0, .L63
 417 000c 0228     		cmp	r0, #2
 418 000e 0CBF     		ite	eq
 419 0010 0120     		moveq	r0, #1
 420 0012 0220     		movne	r0, #2
 421              	.L63:
 422 0014 08BD     		pop	{r3, pc}
 424 0016 00BF     		.section	.text.USBD_LL_OpenEP,"ax",%progbits
 425              		.align	1
 426              		.p2align 2,,3
 427              		.global	USBD_LL_OpenEP
 428              		.syntax unified
 429              		.thumb
 430              		.thumb_func
 432              	USBD_LL_OpenEP:
 433              		@ args = 0, pretend = 0, frame = 0
 434              		@ frame_needed = 0, uses_anonymous_args = 0
ARM GAS  /var/folders/td/83895s255bq6rlxfmrv9fnww0000gn/T//cc0y3vyr.s 			page 8


 435 0000 9446     		mov	ip, r2
 436 0002 08B5     		push	{r3, lr}
 437 0004 1A46     		mov	r2, r3
 438 0006 D0F8C002 		ldr	r0, [r0, #704]
 439 000a 6346     		mov	r3, ip
 440 000c FFF7FEFF 		bl	HAL_PCD_EP_Open
 441 0010 18B1     		cbz	r0, .L70
 442 0012 0228     		cmp	r0, #2
 443 0014 0CBF     		ite	eq
 444 0016 0120     		moveq	r0, #1
 445 0018 0220     		movne	r0, #2
 446              	.L70:
 447 001a 08BD     		pop	{r3, pc}
 449              		.section	.text.USBD_LL_CloseEP,"ax",%progbits
 450              		.align	1
 451              		.p2align 2,,3
 452              		.global	USBD_LL_CloseEP
 453              		.syntax unified
 454              		.thumb
 455              		.thumb_func
 457              	USBD_LL_CloseEP:
 458              		@ args = 0, pretend = 0, frame = 0
 459              		@ frame_needed = 0, uses_anonymous_args = 0
 460 0000 08B5     		push	{r3, lr}
 461 0002 D0F8C002 		ldr	r0, [r0, #704]
 462 0006 FFF7FEFF 		bl	HAL_PCD_EP_Close
 463 000a 18B1     		cbz	r0, .L77
 464 000c 0228     		cmp	r0, #2
 465 000e 0CBF     		ite	eq
 466 0010 0120     		moveq	r0, #1
 467 0012 0220     		movne	r0, #2
 468              	.L77:
 469 0014 08BD     		pop	{r3, pc}
 471 0016 00BF     		.section	.text.USBD_LL_FlushEP,"ax",%progbits
 472              		.align	1
 473              		.p2align 2,,3
 474              		.global	USBD_LL_FlushEP
 475              		.syntax unified
 476              		.thumb
 477              		.thumb_func
 479              	USBD_LL_FlushEP:
 480              		@ args = 0, pretend = 0, frame = 0
 481              		@ frame_needed = 0, uses_anonymous_args = 0
 482 0000 08B5     		push	{r3, lr}
 483 0002 D0F8C002 		ldr	r0, [r0, #704]
 484 0006 FFF7FEFF 		bl	HAL_PCD_EP_Flush
 485 000a 18B1     		cbz	r0, .L84
 486 000c 0228     		cmp	r0, #2
 487 000e 0CBF     		ite	eq
 488 0010 0120     		moveq	r0, #1
 489 0012 0220     		movne	r0, #2
 490              	.L84:
 491 0014 08BD     		pop	{r3, pc}
 493 0016 00BF     		.section	.text.USBD_LL_StallEP,"ax",%progbits
 494              		.align	1
 495              		.p2align 2,,3
 496              		.global	USBD_LL_StallEP
ARM GAS  /var/folders/td/83895s255bq6rlxfmrv9fnww0000gn/T//cc0y3vyr.s 			page 9


 497              		.syntax unified
 498              		.thumb
 499              		.thumb_func
 501              	USBD_LL_StallEP:
 502              		@ args = 0, pretend = 0, frame = 0
 503              		@ frame_needed = 0, uses_anonymous_args = 0
 504 0000 08B5     		push	{r3, lr}
 505 0002 D0F8C002 		ldr	r0, [r0, #704]
 506 0006 FFF7FEFF 		bl	HAL_PCD_EP_SetStall
 507 000a 18B1     		cbz	r0, .L91
 508 000c 0228     		cmp	r0, #2
 509 000e 0CBF     		ite	eq
 510 0010 0120     		moveq	r0, #1
 511 0012 0220     		movne	r0, #2
 512              	.L91:
 513 0014 08BD     		pop	{r3, pc}
 515 0016 00BF     		.section	.text.USBD_LL_ClearStallEP,"ax",%progbits
 516              		.align	1
 517              		.p2align 2,,3
 518              		.global	USBD_LL_ClearStallEP
 519              		.syntax unified
 520              		.thumb
 521              		.thumb_func
 523              	USBD_LL_ClearStallEP:
 524              		@ args = 0, pretend = 0, frame = 0
 525              		@ frame_needed = 0, uses_anonymous_args = 0
 526 0000 08B5     		push	{r3, lr}
 527 0002 D0F8C002 		ldr	r0, [r0, #704]
 528 0006 FFF7FEFF 		bl	HAL_PCD_EP_ClrStall
 529 000a 18B1     		cbz	r0, .L98
 530 000c 0228     		cmp	r0, #2
 531 000e 0CBF     		ite	eq
 532 0010 0120     		moveq	r0, #1
 533 0012 0220     		movne	r0, #2
 534              	.L98:
 535 0014 08BD     		pop	{r3, pc}
 537 0016 00BF     		.section	.text.USBD_LL_IsStallEP,"ax",%progbits
 538              		.align	1
 539              		.p2align 2,,3
 540              		.global	USBD_LL_IsStallEP
 541              		.syntax unified
 542              		.thumb
 543              		.thumb_func
 545              	USBD_LL_IsStallEP:
 546              		@ args = 0, pretend = 0, frame = 0
 547              		@ frame_needed = 0, uses_anonymous_args = 0
 548              		@ link register save eliminated.
 549 0000 0A06     		lsls	r2, r1, #24
 550 0002 D0F8C032 		ldr	r3, [r0, #704]
 551 0006 06D4     		bmi	.L107
 552 0008 01EB8101 		add	r1, r1, r1, lsl #2
 553 000c 03EBC103 		add	r3, r3, r1, lsl #3
 554 0010 93F86A01 		ldrb	r0, [r3, #362]	@ zero_extendqisi2
 555 0014 7047     		bx	lr
 556              	.L107:
 557 0016 01F07F01 		and	r1, r1, #127
 558 001a 0131     		adds	r1, r1, #1
ARM GAS  /var/folders/td/83895s255bq6rlxfmrv9fnww0000gn/T//cc0y3vyr.s 			page 10


 559 001c 01EB8101 		add	r1, r1, r1, lsl #2
 560 0020 03EBC103 		add	r3, r3, r1, lsl #3
 561 0024 9878     		ldrb	r0, [r3, #2]	@ zero_extendqisi2
 562 0026 7047     		bx	lr
 564              		.section	.text.USBD_LL_SetUSBAddress,"ax",%progbits
 565              		.align	1
 566              		.p2align 2,,3
 567              		.global	USBD_LL_SetUSBAddress
 568              		.syntax unified
 569              		.thumb
 570              		.thumb_func
 572              	USBD_LL_SetUSBAddress:
 573              		@ args = 0, pretend = 0, frame = 0
 574              		@ frame_needed = 0, uses_anonymous_args = 0
 575 0000 08B5     		push	{r3, lr}
 576 0002 D0F8C002 		ldr	r0, [r0, #704]
 577 0006 FFF7FEFF 		bl	HAL_PCD_SetAddress
 578 000a 18B1     		cbz	r0, .L109
 579 000c 0228     		cmp	r0, #2
 580 000e 0CBF     		ite	eq
 581 0010 0120     		moveq	r0, #1
 582 0012 0220     		movne	r0, #2
 583              	.L109:
 584 0014 08BD     		pop	{r3, pc}
 586 0016 00BF     		.section	.text.USBD_LL_Transmit,"ax",%progbits
 587              		.align	1
 588              		.p2align 2,,3
 589              		.global	USBD_LL_Transmit
 590              		.syntax unified
 591              		.thumb
 592              		.thumb_func
 594              	USBD_LL_Transmit:
 595              		@ args = 0, pretend = 0, frame = 0
 596              		@ frame_needed = 0, uses_anonymous_args = 0
 597 0000 08B5     		push	{r3, lr}
 598 0002 D0F8C002 		ldr	r0, [r0, #704]
 599 0006 FFF7FEFF 		bl	HAL_PCD_EP_Transmit
 600 000a 18B1     		cbz	r0, .L116
 601 000c 0228     		cmp	r0, #2
 602 000e 0CBF     		ite	eq
 603 0010 0120     		moveq	r0, #1
 604 0012 0220     		movne	r0, #2
 605              	.L116:
 606 0014 08BD     		pop	{r3, pc}
 608 0016 00BF     		.section	.text.USBD_LL_PrepareReceive,"ax",%progbits
 609              		.align	1
 610              		.p2align 2,,3
 611              		.global	USBD_LL_PrepareReceive
 612              		.syntax unified
 613              		.thumb
 614              		.thumb_func
 616              	USBD_LL_PrepareReceive:
 617              		@ args = 0, pretend = 0, frame = 0
 618              		@ frame_needed = 0, uses_anonymous_args = 0
 619 0000 08B5     		push	{r3, lr}
 620 0002 D0F8C002 		ldr	r0, [r0, #704]
 621 0006 FFF7FEFF 		bl	HAL_PCD_EP_Receive
ARM GAS  /var/folders/td/83895s255bq6rlxfmrv9fnww0000gn/T//cc0y3vyr.s 			page 11


 622 000a 18B1     		cbz	r0, .L123
 623 000c 0228     		cmp	r0, #2
 624 000e 0CBF     		ite	eq
 625 0010 0120     		moveq	r0, #1
 626 0012 0220     		movne	r0, #2
 627              	.L123:
 628 0014 08BD     		pop	{r3, pc}
 630 0016 00BF     		.section	.text.USBD_LL_GetRxDataSize,"ax",%progbits
 631              		.align	1
 632              		.p2align 2,,3
 633              		.global	USBD_LL_GetRxDataSize
 634              		.syntax unified
 635              		.thumb
 636              		.thumb_func
 638              	USBD_LL_GetRxDataSize:
 639              		@ args = 0, pretend = 0, frame = 0
 640              		@ frame_needed = 0, uses_anonymous_args = 0
 641              		@ link register save eliminated.
 642 0000 D0F8C002 		ldr	r0, [r0, #704]
 643 0004 FFF7FEBF 		b	HAL_PCD_EP_GetRxCount
 645              		.section	.text.USBD_LL_Delay,"ax",%progbits
 646              		.align	1
 647              		.p2align 2,,3
 648              		.global	USBD_LL_Delay
 649              		.syntax unified
 650              		.thumb
 651              		.thumb_func
 653              	USBD_LL_Delay:
 654              		@ args = 0, pretend = 0, frame = 0
 655              		@ frame_needed = 0, uses_anonymous_args = 0
 656              		@ link register save eliminated.
 657 0000 FFF7FEBF 		b	HAL_Delay
 659              		.section	.text.USBD_static_malloc,"ax",%progbits
 660              		.align	1
 661              		.p2align 2,,3
 662              		.global	USBD_static_malloc
 663              		.syntax unified
 664              		.thumb
 665              		.thumb_func
 667              	USBD_static_malloc:
 668              		@ args = 0, pretend = 0, frame = 0
 669              		@ frame_needed = 0, uses_anonymous_args = 0
 670              		@ link register save eliminated.
 671 0000 0048     		ldr	r0, .L132
 672 0002 7047     		bx	lr
 673              	.L133:
 674              		.align	2
 675              	.L132:
 676 0004 00000000 		.word	mem.0
 678              		.section	.text.USBD_static_free,"ax",%progbits
 679              		.align	1
 680              		.p2align 2,,3
 681              		.global	USBD_static_free
 682              		.syntax unified
 683              		.thumb
 684              		.thumb_func
 686              	USBD_static_free:
ARM GAS  /var/folders/td/83895s255bq6rlxfmrv9fnww0000gn/T//cc0y3vyr.s 			page 12


 687              		@ args = 0, pretend = 0, frame = 0
 688              		@ frame_needed = 0, uses_anonymous_args = 0
 689              		@ link register save eliminated.
 690 0000 7047     		bx	lr
 692 0002 00BF     		.section	.text.HAL_PCDEx_SetConnectionState,"ax",%progbits
 693              		.align	1
 694              		.p2align 2,,3
 695              		.global	HAL_PCDEx_SetConnectionState
 696              		.syntax unified
 697              		.thumb
 698              		.thumb_func
 700              	HAL_PCDEx_SetConnectionState:
 701              		@ args = 0, pretend = 0, frame = 0
 702              		@ frame_needed = 0, uses_anonymous_args = 0
 703              		@ link register save eliminated.
 704 0000 7047     		bx	lr
 706 0002 00BF     		.section	.bss.mem.0,"aw",%nobits
 707              		.align	2
 710              	mem.0:
 711 0000 00000000 		.space	544
 711      00000000 
 711      00000000 
 711      00000000 
 711      00000000 
 712              		.global	hpcd_USB_FS
 713              		.section	.bss.hpcd_USB_FS,"aw",%nobits
 714              		.align	3
 717              	hpcd_USB_FS:
 718 0000 00000000 		.space	752
 718      00000000 
 718      00000000 
 718      00000000 
 718      00000000 
 719              		.ident	"GCC: (Arm GNU Toolchain 13.2.rel1 (Build arm-13.7)) 13.2.1 20231009"
ARM GAS  /var/folders/td/83895s255bq6rlxfmrv9fnww0000gn/T//cc0y3vyr.s 			page 13

