ARM GAS  /var/folders/td/83895s255bq6rlxfmrv9fnww0000gn/T//cc3nHt7H.s 			page 1


   1              		.cpu cortex-m3
   2              		.arch armv7-m
   3              		.fpu softvfp
   4              		.eabi_attribute 20, 1
   5              		.eabi_attribute 21, 1
   6              		.eabi_attribute 23, 3
   7              		.eabi_attribute 24, 1
   8              		.eabi_attribute 25, 1
   9              		.eabi_attribute 26, 1
  10              		.eabi_attribute 30, 2
  11              		.eabi_attribute 34, 1
  12              		.eabi_attribute 18, 4
  13              		.file	"usbd_ctlreq.c"
  14              		.text
  15              		.section	.text.USBD_StdDevReq,"ax",%progbits
  16              		.align	1
  17              		.p2align 2,,3
  18              		.global	USBD_StdDevReq
  19              		.syntax unified
  20              		.thumb
  21              		.thumb_func
  23              	USBD_StdDevReq:
  24              		@ args = 0, pretend = 0, frame = 8
  25              		@ frame_needed = 0, uses_anonymous_args = 0
  26 0000 30B5     		push	{r4, r5, lr}
  27 0002 0B78     		ldrb	r3, [r1]	@ zero_extendqisi2
  28 0004 0D46     		mov	r5, r1
  29 0006 03F06003 		and	r3, r3, #96
  30 000a 202B     		cmp	r3, #32
  31 000c 0446     		mov	r4, r0
  32 000e 83B0     		sub	sp, sp, #12
  33 0010 28D0     		beq	.L2
  34 0012 402B     		cmp	r3, #64
  35 0014 26D0     		beq	.L2
  36 0016 53B1     		cbz	r3, .L3
  37              	.L4:
  38 0018 8021     		movs	r1, #128
  39 001a 2046     		mov	r0, r4
  40 001c FFF7FEFF 		bl	USBD_LL_StallEP
  41 0020 0021     		movs	r1, #0
  42 0022 2046     		mov	r0, r4
  43 0024 FFF7FEFF 		bl	USBD_LL_StallEP
  44              	.L5:
  45 0028 0020     		movs	r0, #0
  46 002a 03B0     		add	sp, sp, #12
  47              		@ sp needed
  48 002c 30BD     		pop	{r4, r5, pc}
  49              	.L3:
  50 002e 4B78     		ldrb	r3, [r1, #1]	@ zero_extendqisi2
  51 0030 092B     		cmp	r3, #9
  52 0032 F1D8     		bhi	.L4
  53 0034 01A2     		adr	r2, .L7
  54 0036 52F823F0 		ldr	pc, [r2, r3, lsl #2]
  55 003a 00BF     		.p2align 2
  56              	.L7:
  57 003c A9000000 		.word	.L13+1
  58 0040 D1000000 		.word	.L12+1
ARM GAS  /var/folders/td/83895s255bq6rlxfmrv9fnww0000gn/T//cc3nHt7H.s 			page 2


  59 0044 19000000 		.word	.L4+1
  60 0048 EF000000 		.word	.L11+1
  61 004c 19000000 		.word	.L4+1
  62 0050 F7000000 		.word	.L10+1
  63 0054 31010000 		.word	.L9+1
  64 0058 19000000 		.word	.L4+1
  65 005c 65010000 		.word	.L8+1
  66 0060 77000000 		.word	.L6+1
  67              		.p2align 1
  68              	.L2:
  69 0064 D4F8B432 		ldr	r3, [r4, #692]
  70 0068 2946     		mov	r1, r5
  71 006a 2046     		mov	r0, r4
  72 006c 9B68     		ldr	r3, [r3, #8]
  73 006e 9847     		blx	r3
  74 0070 0020     		movs	r0, #0
  75 0072 03B0     		add	sp, sp, #12
  76              		@ sp needed
  77 0074 30BD     		pop	{r4, r5, pc}
  78              	.L6:
  79 0076 8978     		ldrb	r1, [r1, #2]	@ zero_extendqisi2
  80 0078 994D     		ldr	r5, .L102
  81 007a 0129     		cmp	r1, #1
  82 007c 2970     		strb	r1, [r5]
  83 007e CBD8     		bhi	.L4
  84 0080 90F89C32 		ldrb	r3, [r0, #668]	@ zero_extendqisi2
  85 0084 022B     		cmp	r3, #2
  86 0086 00F00B81 		beq	.L38
  87 008a 032B     		cmp	r3, #3
  88 008c 00F0F980 		beq	.L39
  89 0090 8021     		movs	r1, #128
  90 0092 FFF7FEFF 		bl	USBD_LL_StallEP
  91 0096 0021     		movs	r1, #0
  92 0098 2046     		mov	r0, r4
  93 009a FFF7FEFF 		bl	USBD_LL_StallEP
  94 009e 2046     		mov	r0, r4
  95 00a0 2978     		ldrb	r1, [r5]	@ zero_extendqisi2
  96 00a2 FFF7FEFF 		bl	USBD_ClrClassConfig
  97 00a6 BFE7     		b	.L5
  98              	.L13:
  99 00a8 90F89C32 		ldrb	r3, [r0, #668]	@ zero_extendqisi2
 100 00ac 013B     		subs	r3, r3, #1
 101 00ae 022B     		cmp	r3, #2
 102 00b0 B2D8     		bhi	.L4
 103 00b2 CA88     		ldrh	r2, [r1, #6]
 104 00b4 022A     		cmp	r2, #2
 105 00b6 AFD1     		bne	.L4
 106 00b8 D0F8A432 		ldr	r3, [r0, #676]
 107 00bc 0146     		mov	r1, r0
 108 00be 002B     		cmp	r3, #0
 109 00c0 0CBF     		ite	eq
 110 00c2 0123     		moveq	r3, #1
 111 00c4 0323     		movne	r3, #3
 112 00c6 41F80C3F 		str	r3, [r1, #12]!
 113 00ca FFF7FEFF 		bl	USBD_CtlSendData
 114 00ce ABE7     		b	.L5
 115              	.L12:
ARM GAS  /var/folders/td/83895s255bq6rlxfmrv9fnww0000gn/T//cc3nHt7H.s 			page 3


 116 00d0 90F89C32 		ldrb	r3, [r0, #668]	@ zero_extendqisi2
 117 00d4 013B     		subs	r3, r3, #1
 118 00d6 022B     		cmp	r3, #2
 119 00d8 9ED8     		bhi	.L4
 120 00da 4B88     		ldrh	r3, [r1, #2]
 121 00dc 012B     		cmp	r3, #1
 122 00de A3D1     		bne	.L5
 123 00e0 0023     		movs	r3, #0
 124              	.L98:
 125 00e2 2046     		mov	r0, r4
 126 00e4 C4F8A432 		str	r3, [r4, #676]
 127 00e8 FFF7FEFF 		bl	USBD_CtlSendStatus
 128 00ec 9CE7     		b	.L5
 129              	.L11:
 130 00ee 4B88     		ldrh	r3, [r1, #2]
 131 00f0 012B     		cmp	r3, #1
 132 00f2 99D1     		bne	.L5
 133 00f4 F5E7     		b	.L98
 134              	.L10:
 135 00f6 8B88     		ldrh	r3, [r1, #4]
 136 00f8 002B     		cmp	r3, #0
 137 00fa 8DD1     		bne	.L4
 138 00fc CB88     		ldrh	r3, [r1, #6]
 139 00fe 002B     		cmp	r3, #0
 140 0100 8AD1     		bne	.L4
 141 0102 4B88     		ldrh	r3, [r1, #2]
 142 0104 7F2B     		cmp	r3, #127
 143 0106 87D8     		bhi	.L4
 144 0108 90F89C22 		ldrb	r2, [r0, #668]	@ zero_extendqisi2
 145 010c 032A     		cmp	r2, #3
 146 010e 83D0     		beq	.L4
 147 0110 DDB2     		uxtb	r5, r3
 148 0112 2946     		mov	r1, r5
 149 0114 80F89E52 		strb	r5, [r0, #670]
 150 0118 FFF7FEFF 		bl	USBD_LL_SetUSBAddress
 151 011c 2046     		mov	r0, r4
 152 011e FFF7FEFF 		bl	USBD_CtlSendStatus
 153 0122 002D     		cmp	r5, #0
 154 0124 00F0D780 		beq	.L37
 155 0128 0223     		movs	r3, #2
 156 012a 84F89C32 		strb	r3, [r4, #668]
 157 012e 7BE7     		b	.L5
 158              	.L9:
 159 0130 0021     		movs	r1, #0
 160 0132 6A88     		ldrh	r2, [r5, #2]
 161 0134 ADF80610 		strh	r1, [sp, #6]	@ movhi
 162 0138 130A     		lsrs	r3, r2, #8
 163 013a 013B     		subs	r3, r3, #1
 164 013c 062B     		cmp	r3, #6
 165 013e 3FF66BAF 		bhi	.L4
 166 0142 01A1     		adr	r1, .L16
 167 0144 51F823F0 		ldr	pc, [r1, r3, lsl #2]
 168              		.p2align 2
 169              	.L16:
 170 0148 F7010000 		.word	.L20+1
 171 014c DF010000 		.word	.L19+1
 172 0150 CD010000 		.word	.L18+1
ARM GAS  /var/folders/td/83895s255bq6rlxfmrv9fnww0000gn/T//cc3nHt7H.s 			page 4


 173 0154 19000000 		.word	.L4+1
 174 0158 19000000 		.word	.L4+1
 175 015c B7010000 		.word	.L17+1
 176 0160 89010000 		.word	.L15+1
 177              		.p2align 1
 178              	.L8:
 179 0164 CA88     		ldrh	r2, [r1, #6]
 180 0166 012A     		cmp	r2, #1
 181 0168 7FF456AF 		bne	.L4
 182 016c 90F89C32 		ldrb	r3, [r0, #668]	@ zero_extendqisi2
 183 0170 022B     		cmp	r3, #2
 184 0172 7FD8     		bhi	.L43
 185 0174 002B     		cmp	r3, #0
 186 0176 3FF44FAF 		beq	.L4
 187 017a 0146     		mov	r1, r0
 188 017c 0023     		movs	r3, #0
 189 017e 41F8083F 		str	r3, [r1, #8]!
 190 0182 FFF7FEFF 		bl	USBD_CtlSendData
 191 0186 4FE7     		b	.L5
 192              	.L15:
 193 0188 037C     		ldrb	r3, [r0, #16]	@ zero_extendqisi2
 194 018a 002B     		cmp	r3, #0
 195 018c 7FF444AF 		bne	.L4
 196 0190 D0F8B432 		ldr	r3, [r0, #692]
 197 0194 0DF10600 		add	r0, sp, #6
 198 0198 1B6B     		ldr	r3, [r3, #48]
 199 019a 9847     		blx	r3
 200 019c 0723     		movs	r3, #7
 201 019e 4370     		strb	r3, [r0, #1]
 202              	.L21:
 203 01a0 BDF80630 		ldrh	r3, [sp, #6]
 204 01a4 EA88     		ldrh	r2, [r5, #6]
 205 01a6 002B     		cmp	r3, #0
 206 01a8 60D0     		beq	.L32
 207 01aa 002A     		cmp	r2, #0
 208 01ac 54D1     		bne	.L33
 209              	.L99:
 210 01ae 2046     		mov	r0, r4
 211 01b0 FFF7FEFF 		bl	USBD_CtlSendStatus
 212 01b4 38E7     		b	.L5
 213              	.L17:
 214 01b6 037C     		ldrb	r3, [r0, #16]	@ zero_extendqisi2
 215 01b8 002B     		cmp	r3, #0
 216 01ba 7FF42DAF 		bne	.L4
 217 01be D0F8B432 		ldr	r3, [r0, #692]
 218 01c2 0DF10600 		add	r0, sp, #6
 219 01c6 5B6B     		ldr	r3, [r3, #52]
 220 01c8 9847     		blx	r3
 221 01ca E9E7     		b	.L21
 222              	.L18:
 223 01cc D2B2     		uxtb	r2, r2
 224 01ce 052A     		cmp	r2, #5
 225 01d0 3FF622AF 		bhi	.L4
 226 01d4 DFE802F0 		tbb	[pc, r2]
 227              	.L24:
 228 01d8 3A       		.byte	(.L29-.L24)/2
 229 01d9 34       		.byte	(.L28-.L24)/2
ARM GAS  /var/folders/td/83895s255bq6rlxfmrv9fnww0000gn/T//cc3nHt7H.s 			page 5


 230 01da 2E       		.byte	(.L27-.L24)/2
 231 01db 28       		.byte	(.L26-.L24)/2
 232 01dc 22       		.byte	(.L25-.L24)/2
 233 01dd 17       		.byte	(.L23-.L24)/2
 234              		.p2align 1
 235              	.L19:
 236 01de 027C     		ldrb	r2, [r0, #16]	@ zero_extendqisi2
 237 01e0 D0F8B432 		ldr	r3, [r0, #692]
 238 01e4 002A     		cmp	r2, #0
 239 01e6 68D1     		bne	.L22
 240 01e8 9B6A     		ldr	r3, [r3, #40]
 241 01ea 0DF10600 		add	r0, sp, #6
 242 01ee 9847     		blx	r3
 243 01f0 0223     		movs	r3, #2
 244 01f2 4370     		strb	r3, [r0, #1]
 245 01f4 D4E7     		b	.L21
 246              	.L20:
 247 01f6 D0F8B032 		ldr	r3, [r0, #688]
 248 01fa 0DF10601 		add	r1, sp, #6
 249 01fe 1B68     		ldr	r3, [r3]
 250 0200 007C     		ldrb	r0, [r0, #16]	@ zero_extendqisi2
 251 0202 9847     		blx	r3
 252 0204 CCE7     		b	.L21
 253              	.L23:
 254 0206 D0F8B032 		ldr	r3, [r0, #688]
 255 020a 9B69     		ldr	r3, [r3, #24]
 256 020c 002B     		cmp	r3, #0
 257 020e 3FF403AF 		beq	.L4
 258              	.L97:
 259 0212 207C     		ldrb	r0, [r4, #16]	@ zero_extendqisi2
 260 0214 0DF10601 		add	r1, sp, #6
 261 0218 9847     		blx	r3
 262 021a C1E7     		b	.L21
 263              	.L25:
 264 021c D0F8B032 		ldr	r3, [r0, #688]
 265 0220 5B69     		ldr	r3, [r3, #20]
 266 0222 002B     		cmp	r3, #0
 267 0224 F5D1     		bne	.L97
 268 0226 F7E6     		b	.L4
 269              	.L26:
 270 0228 D0F8B032 		ldr	r3, [r0, #688]
 271 022c 1B69     		ldr	r3, [r3, #16]
 272 022e 002B     		cmp	r3, #0
 273 0230 EFD1     		bne	.L97
 274 0232 F1E6     		b	.L4
 275              	.L27:
 276 0234 D0F8B032 		ldr	r3, [r0, #688]
 277 0238 DB68     		ldr	r3, [r3, #12]
 278 023a 002B     		cmp	r3, #0
 279 023c E9D1     		bne	.L97
 280 023e EBE6     		b	.L4
 281              	.L28:
 282 0240 D0F8B032 		ldr	r3, [r0, #688]
 283 0244 9B68     		ldr	r3, [r3, #8]
 284 0246 002B     		cmp	r3, #0
 285 0248 E3D1     		bne	.L97
 286 024a E5E6     		b	.L4
ARM GAS  /var/folders/td/83895s255bq6rlxfmrv9fnww0000gn/T//cc3nHt7H.s 			page 6


 287              	.L29:
 288 024c D0F8B032 		ldr	r3, [r0, #688]
 289 0250 5B68     		ldr	r3, [r3, #4]
 290 0252 002B     		cmp	r3, #0
 291 0254 DDD1     		bne	.L97
 292 0256 DFE6     		b	.L4
 293              	.L33:
 294 0258 9A42     		cmp	r2, r3
 295 025a 28BF     		it	cs
 296 025c 1A46     		movcs	r2, r3
 297 025e 0146     		mov	r1, r0
 298 0260 2046     		mov	r0, r4
 299 0262 ADF80620 		strh	r2, [sp, #6]	@ movhi
 300 0266 FFF7FEFF 		bl	USBD_CtlSendData
 301 026a EA88     		ldrh	r2, [r5, #6]
 302              	.L32:
 303 026c 002A     		cmp	r2, #0
 304 026e 7FF4DBAE 		bne	.L5
 305 0272 9CE7     		b	.L99
 306              	.L43:
 307 0274 032B     		cmp	r3, #3
 308 0276 7FF4CFAE 		bne	.L4
 309 027a 011D     		adds	r1, r0, #4
 310 027c FFF7FEFF 		bl	USBD_CtlSendData
 311 0280 D2E6     		b	.L5
 312              	.L39:
 313 0282 09B3     		cbz	r1, .L101
 314 0284 4168     		ldr	r1, [r0, #4]
 315 0286 0129     		cmp	r1, #1
 316 0288 91D0     		beq	.L99
 317 028a C9B2     		uxtb	r1, r1
 318 028c FFF7FEFF 		bl	USBD_ClrClassConfig
 319 0290 2978     		ldrb	r1, [r5]	@ zero_extendqisi2
 320 0292 2046     		mov	r0, r4
 321 0294 6160     		str	r1, [r4, #4]
 322 0296 FFF7FEFF 		bl	USBD_SetClassConfig
 323 029a 0228     		cmp	r0, #2
 324 029c 87D1     		bne	.L99
 325 029e BBE6     		b	.L4
 326              	.L38:
 327 02a0 0029     		cmp	r1, #0
 328 02a2 84D0     		beq	.L99
 329 02a4 0121     		movs	r1, #1
 330 02a6 0323     		movs	r3, #3
 331 02a8 4160     		str	r1, [r0, #4]
 332 02aa 80F89C32 		strb	r3, [r0, #668]
 333 02ae FFF7FEFF 		bl	USBD_SetClassConfig
 334 02b2 0228     		cmp	r0, #2
 335 02b4 7FF47BAF 		bne	.L99
 336 02b8 AEE6     		b	.L4
 337              	.L22:
 338 02ba DB6A     		ldr	r3, [r3, #44]
 339 02bc 0DF10600 		add	r0, sp, #6
 340 02c0 9847     		blx	r3
 341 02c2 0223     		movs	r3, #2
 342 02c4 4370     		strb	r3, [r0, #1]
 343 02c6 6BE7     		b	.L21
ARM GAS  /var/folders/td/83895s255bq6rlxfmrv9fnww0000gn/T//cc3nHt7H.s 			page 7


 344              	.L101:
 345 02c8 0223     		movs	r3, #2
 346 02ca 4160     		str	r1, [r0, #4]
 347 02cc 80F89C32 		strb	r3, [r0, #668]
 348 02d0 FFF7FEFF 		bl	USBD_ClrClassConfig
 349 02d4 6BE7     		b	.L99
 350              	.L37:
 351 02d6 0123     		movs	r3, #1
 352 02d8 84F89C32 		strb	r3, [r4, #668]
 353 02dc A4E6     		b	.L5
 354              	.L103:
 355 02de 00BF     		.align	2
 356              	.L102:
 357 02e0 00000000 		.word	cfgidx.0
 359              		.section	.text.USBD_StdItfReq,"ax",%progbits
 360              		.align	1
 361              		.p2align 2,,3
 362              		.global	USBD_StdItfReq
 363              		.syntax unified
 364              		.thumb
 365              		.thumb_func
 367              	USBD_StdItfReq:
 368              		@ args = 0, pretend = 0, frame = 0
 369              		@ frame_needed = 0, uses_anonymous_args = 0
 370 0000 38B5     		push	{r3, r4, r5, lr}
 371 0002 0B78     		ldrb	r3, [r1]	@ zero_extendqisi2
 372 0004 0D46     		mov	r5, r1
 373 0006 5A06     		lsls	r2, r3, #25
 374 0008 0446     		mov	r4, r0
 375 000a 0CD5     		bpl	.L105
 376 000c 03F06002 		and	r2, r3, #96
 377 0010 402A     		cmp	r2, #64
 378 0012 08D0     		beq	.L105
 379 0014 8021     		movs	r1, #128
 380 0016 FFF7FEFF 		bl	USBD_LL_StallEP
 381 001a 0021     		movs	r1, #0
 382 001c 2046     		mov	r0, r4
 383 001e FFF7FEFF 		bl	USBD_LL_StallEP
 384              	.L108:
 385 0022 0020     		movs	r0, #0
 386 0024 38BD     		pop	{r3, r4, r5, pc}
 387              	.L105:
 388 0026 94F89C32 		ldrb	r3, [r4, #668]	@ zero_extendqisi2
 389 002a 013B     		subs	r3, r3, #1
 390 002c 022B     		cmp	r3, #2
 391 002e 11D8     		bhi	.L107
 392 0030 2B79     		ldrb	r3, [r5, #4]	@ zero_extendqisi2
 393 0032 012B     		cmp	r3, #1
 394 0034 0ED8     		bhi	.L107
 395 0036 D4F8B432 		ldr	r3, [r4, #692]
 396 003a 2946     		mov	r1, r5
 397 003c 9B68     		ldr	r3, [r3, #8]
 398 003e 2046     		mov	r0, r4
 399 0040 9847     		blx	r3
 400 0042 EB88     		ldrh	r3, [r5, #6]
 401 0044 002B     		cmp	r3, #0
 402 0046 ECD1     		bne	.L108
ARM GAS  /var/folders/td/83895s255bq6rlxfmrv9fnww0000gn/T//cc3nHt7H.s 			page 8


 403 0048 0028     		cmp	r0, #0
 404 004a EAD1     		bne	.L108
 405 004c 2046     		mov	r0, r4
 406 004e FFF7FEFF 		bl	USBD_CtlSendStatus
 407 0052 E6E7     		b	.L108
 408              	.L107:
 409 0054 8021     		movs	r1, #128
 410 0056 2046     		mov	r0, r4
 411 0058 FFF7FEFF 		bl	USBD_LL_StallEP
 412 005c 0021     		movs	r1, #0
 413 005e 2046     		mov	r0, r4
 414 0060 FFF7FEFF 		bl	USBD_LL_StallEP
 415 0064 0020     		movs	r0, #0
 416 0066 38BD     		pop	{r3, r4, r5, pc}
 418              		.section	.text.USBD_StdEPReq,"ax",%progbits
 419              		.align	1
 420              		.p2align 2,,3
 421              		.global	USBD_StdEPReq
 422              		.syntax unified
 423              		.thumb
 424              		.thumb_func
 426              	USBD_StdEPReq:
 427              		@ args = 0, pretend = 0, frame = 0
 428              		@ frame_needed = 0, uses_anonymous_args = 0
 429 0000 70B5     		push	{r4, r5, r6, lr}
 430 0002 0B78     		ldrb	r3, [r1]	@ zero_extendqisi2
 431 0004 0446     		mov	r4, r0
 432 0006 03F06003 		and	r3, r3, #96
 433 000a 202B     		cmp	r3, #32
 434 000c 8A88     		ldrh	r2, [r1, #4]
 435 000e 3CD0     		beq	.L114
 436 0010 402B     		cmp	r3, #64
 437 0012 3AD0     		beq	.L114
 438 0014 4BB1     		cbz	r3, .L115
 439              	.L116:
 440 0016 8021     		movs	r1, #128
 441 0018 2046     		mov	r0, r4
 442 001a FFF7FEFF 		bl	USBD_LL_StallEP
 443 001e 0021     		movs	r1, #0
 444 0020 2046     		mov	r0, r4
 445 0022 FFF7FEFF 		bl	USBD_LL_StallEP
 446              	.L117:
 447 0026 0020     		movs	r0, #0
 448 0028 70BD     		pop	{r4, r5, r6, pc}
 449              	.L115:
 450 002a 4B78     		ldrb	r3, [r1, #1]	@ zero_extendqisi2
 451 002c D5B2     		uxtb	r5, r2
 452 002e 012B     		cmp	r3, #1
 453 0030 42D0     		beq	.L118
 454 0032 032B     		cmp	r3, #3
 455 0034 30D0     		beq	.L119
 456 0036 002B     		cmp	r3, #0
 457 0038 EDD1     		bne	.L116
 458 003a 90F89C32 		ldrb	r3, [r0, #668]	@ zero_extendqisi2
 459 003e 022B     		cmp	r3, #2
 460 0040 53D0     		beq	.L127
 461 0042 032B     		cmp	r3, #3
ARM GAS  /var/folders/td/83895s255bq6rlxfmrv9fnww0000gn/T//cc3nHt7H.s 			page 9


 462 0044 E7D1     		bne	.L116
 463 0046 05F00F03 		and	r3, r5, #15
 464 004a 03EB8303 		add	r3, r3, r3, lsl #2
 465 004e 1206     		lsls	r2, r2, #24
 466 0050 00EB8303 		add	r3, r0, r3, lsl #2
 467 0054 58D4     		bmi	.L171
 468 0056 D3F85831 		ldr	r3, [r3, #344]
 469 005a 002B     		cmp	r3, #0
 470 005c DBD0     		beq	.L116
 471 005e 05EB8506 		add	r6, r5, r5, lsl #2
 472 0062 00EB8606 		add	r6, r0, r6, lsl #2
 473 0066 06F5AA76 		add	r6, r6, #340
 474 006a 002D     		cmp	r5, #0
 475 006c 58D0     		beq	.L134
 476              	.L135:
 477 006e 2946     		mov	r1, r5
 478 0070 2046     		mov	r0, r4
 479 0072 FFF7FEFF 		bl	USBD_LL_IsStallEP
 480 0076 0028     		cmp	r0, #0
 481 0078 59D0     		beq	.L137
 482 007a 0123     		movs	r3, #1
 483 007c 3360     		str	r3, [r6]
 484              	.L136:
 485 007e 0222     		movs	r2, #2
 486 0080 3146     		mov	r1, r6
 487 0082 2046     		mov	r0, r4
 488 0084 FFF7FEFF 		bl	USBD_CtlSendData
 489 0088 CDE7     		b	.L117
 490              	.L114:
 491 008a D4F8B432 		ldr	r3, [r4, #692]
 492 008e 2046     		mov	r0, r4
 493 0090 9B68     		ldr	r3, [r3, #8]
 494 0092 9847     		blx	r3
 495 0094 0020     		movs	r0, #0
 496 0096 70BD     		pop	{r4, r5, r6, pc}
 497              	.L119:
 498 0098 90F89C32 		ldrb	r3, [r0, #668]	@ zero_extendqisi2
 499 009c 022B     		cmp	r3, #2
 500 009e 1AD0     		beq	.L125
 501 00a0 032B     		cmp	r3, #3
 502 00a2 B8D1     		bne	.L116
 503 00a4 4B88     		ldrh	r3, [r1, #2]
 504 00a6 93B9     		cbnz	r3, .L124
 505 00a8 6A06     		lsls	r2, r5, #25
 506 00aa 10D0     		beq	.L124
 507 00ac CB88     		ldrh	r3, [r1, #6]
 508 00ae 73B9     		cbnz	r3, .L124
 509 00b0 2946     		mov	r1, r5
 510 00b2 FFF7FEFF 		bl	USBD_LL_StallEP
 511 00b6 0AE0     		b	.L124
 512              	.L118:
 513 00b8 90F89C32 		ldrb	r3, [r0, #668]	@ zero_extendqisi2
 514 00bc 022B     		cmp	r3, #2
 515 00be 0AD0     		beq	.L125
 516 00c0 032B     		cmp	r3, #3
 517 00c2 A8D1     		bne	.L116
 518 00c4 4B88     		ldrh	r3, [r1, #2]
ARM GAS  /var/folders/td/83895s255bq6rlxfmrv9fnww0000gn/T//cc3nHt7H.s 			page 10


 519 00c6 002B     		cmp	r3, #0
 520 00c8 ADD1     		bne	.L117
 521 00ca 6E06     		lsls	r6, r5, #25
 522 00cc 2BD1     		bne	.L172
 523              	.L124:
 524 00ce 2046     		mov	r0, r4
 525 00d0 FFF7FEFF 		bl	USBD_CtlSendStatus
 526 00d4 A7E7     		b	.L117
 527              	.L125:
 528 00d6 6B06     		lsls	r3, r5, #25
 529 00d8 9DD0     		beq	.L116
 530 00da 2946     		mov	r1, r5
 531 00dc FFF7FEFF 		bl	USBD_LL_StallEP
 532 00e0 8021     		movs	r1, #128
 533 00e2 2046     		mov	r0, r4
 534 00e4 FFF7FEFF 		bl	USBD_LL_StallEP
 535 00e8 9DE7     		b	.L117
 536              	.L127:
 537 00ea 6806     		lsls	r0, r5, #25
 538 00ec 93D1     		bne	.L116
 539 00ee 0023     		movs	r3, #0
 540 00f0 1106     		lsls	r1, r2, #24
 541 00f2 4CBF     		ite	mi
 542 00f4 04F11401 		addmi	r1, r4, #20
 543 00f8 04F5AA71 		addpl	r1, r4, #340
 544 00fc 0222     		movs	r2, #2
 545 00fe 2046     		mov	r0, r4
 546 0100 0B60     		str	r3, [r1]
 547 0102 FFF7FEFF 		bl	USBD_CtlSendData
 548 0106 8EE7     		b	.L117
 549              	.L171:
 550 0108 9B69     		ldr	r3, [r3, #24]
 551 010a 002B     		cmp	r3, #0
 552 010c 83D0     		beq	.L116
 553 010e 05F07F06 		and	r6, r5, #127
 554 0112 0136     		adds	r6, r6, #1
 555 0114 06EB8606 		add	r6, r6, r6, lsl #2
 556 0118 802D     		cmp	r5, #128
 557 011a 00EB8606 		add	r6, r0, r6, lsl #2
 558 011e A6D1     		bne	.L135
 559              	.L134:
 560 0120 0023     		movs	r3, #0
 561 0122 3360     		str	r3, [r6]
 562 0124 ABE7     		b	.L136
 563              	.L172:
 564 0126 2946     		mov	r1, r5
 565 0128 FFF7FEFF 		bl	USBD_LL_ClearStallEP
 566 012c CFE7     		b	.L124
 567              	.L137:
 568 012e 3060     		str	r0, [r6]
 569 0130 A5E7     		b	.L136
 571 0132 00BF     		.section	.text.USBD_ParseSetupRequest,"ax",%progbits
 572              		.align	1
 573              		.p2align 2,,3
 574              		.global	USBD_ParseSetupRequest
 575              		.syntax unified
 576              		.thumb
ARM GAS  /var/folders/td/83895s255bq6rlxfmrv9fnww0000gn/T//cc3nHt7H.s 			page 11


 577              		.thumb_func
 579              	USBD_ParseSetupRequest:
 580              		@ args = 0, pretend = 0, frame = 0
 581              		@ frame_needed = 0, uses_anonymous_args = 0
 582              		@ link register save eliminated.
 583 0000 0B78     		ldrb	r3, [r1]	@ zero_extendqisi2
 584 0002 0370     		strb	r3, [r0]
 585 0004 4B78     		ldrb	r3, [r1, #1]	@ zero_extendqisi2
 586 0006 4370     		strb	r3, [r0, #1]
 587 0008 4B88     		ldrh	r3, [r1, #2]	@ unaligned
 588 000a 4380     		strh	r3, [r0, #2]	@ movhi
 589 000c 8B88     		ldrh	r3, [r1, #4]	@ unaligned
 590 000e 8380     		strh	r3, [r0, #4]	@ movhi
 591 0010 CB88     		ldrh	r3, [r1, #6]	@ unaligned
 592 0012 C380     		strh	r3, [r0, #6]	@ movhi
 593 0014 7047     		bx	lr
 595              		.section	.text.USBD_CtlError,"ax",%progbits
 596              		.align	1
 597              		.p2align 2,,3
 598              		.global	USBD_CtlError
 599              		.syntax unified
 600              		.thumb
 601              		.thumb_func
 603              	USBD_CtlError:
 604              		@ args = 0, pretend = 0, frame = 0
 605              		@ frame_needed = 0, uses_anonymous_args = 0
 606 0000 10B5     		push	{r4, lr}
 607 0002 0446     		mov	r4, r0
 608 0004 8021     		movs	r1, #128
 609 0006 FFF7FEFF 		bl	USBD_LL_StallEP
 610 000a 2046     		mov	r0, r4
 611 000c BDE81040 		pop	{r4, lr}
 612 0010 0021     		movs	r1, #0
 613 0012 FFF7FEBF 		b	USBD_LL_StallEP
 615 0016 00BF     		.section	.text.USBD_GetString,"ax",%progbits
 616              		.align	1
 617              		.p2align 2,,3
 618              		.global	USBD_GetString
 619              		.syntax unified
 620              		.thumb
 621              		.thumb_func
 623              	USBD_GetString:
 624              		@ args = 0, pretend = 0, frame = 0
 625              		@ frame_needed = 0, uses_anonymous_args = 0
 626 0000 08B3     		cbz	r0, .L187
 627 0002 70B5     		push	{r4, r5, r6, lr}
 628 0004 0378     		ldrb	r3, [r0]	@ zero_extendqisi2
 629 0006 0546     		mov	r5, r0
 630 0008 0E46     		mov	r6, r1
 631 000a 1446     		mov	r4, r2
 632 000c E3B1     		cbz	r3, .L181
 633 000e 0130     		adds	r0, r0, #1
 634 0010 FFF7FEFF 		bl	strlen
 635 0014 431C     		adds	r3, r0, #1
 636 0016 DBB2     		uxtb	r3, r3
 637 0018 0133     		adds	r3, r3, #1
 638 001a 5B00     		lsls	r3, r3, #1
ARM GAS  /var/folders/td/83895s255bq6rlxfmrv9fnww0000gn/T//cc3nHt7H.s 			page 12


 639 001c DAB2     		uxtb	r2, r3
 640              	.L178:
 641 001e 2380     		strh	r3, [r4]	@ movhi
 642 0020 0323     		movs	r3, #3
 643 0022 3270     		strb	r2, [r6]
 644 0024 7370     		strb	r3, [r6, #1]
 645 0026 2C78     		ldrb	r4, [r5]	@ zero_extendqisi2
 646 0028 64B1     		cbz	r4, .L176
 647 002a 2846     		mov	r0, r5
 648 002c 0223     		movs	r3, #2
 649 002e 0021     		movs	r1, #0
 650              	.L180:
 651 0030 5A1C     		adds	r2, r3, #1
 652 0032 D2B2     		uxtb	r2, r2
 653 0034 F454     		strb	r4, [r6, r3]
 654 0036 B154     		strb	r1, [r6, r2]
 655 0038 10F8014F 		ldrb	r4, [r0, #1]!	@ zero_extendqisi2
 656 003c 0233     		adds	r3, r3, #2
 657 003e DBB2     		uxtb	r3, r3
 658 0040 002C     		cmp	r4, #0
 659 0042 F5D1     		bne	.L180
 660              	.L176:
 661 0044 70BD     		pop	{r4, r5, r6, pc}
 662              	.L187:
 663 0046 7047     		bx	lr
 664              	.L181:
 665 0048 0222     		movs	r2, #2
 666 004a 1346     		mov	r3, r2
 667 004c E7E7     		b	.L178
 669 004e 00BF     		.section	.bss.cfgidx.0,"aw",%nobits
 672              	cfgidx.0:
 673 0000 00       		.space	1
 674              		.ident	"GCC: (Arm GNU Toolchain 13.2.rel1 (Build arm-13.7)) 13.2.1 20231009"
ARM GAS  /var/folders/td/83895s255bq6rlxfmrv9fnww0000gn/T//cc3nHt7H.s 			page 13

