ARM GAS  /var/folders/td/83895s255bq6rlxfmrv9fnww0000gn/T//ccFk7GDb.s 			page 1


   1              		.cpu cortex-m3
   2              		.arch armv7-m
   3              		.fpu softvfp
   4              		.eabi_attribute 20, 1
   5              		.eabi_attribute 21, 1
   6              		.eabi_attribute 23, 3
   7              		.eabi_attribute 24, 1
   8              		.eabi_attribute 25, 1
   9              		.eabi_attribute 26, 1
  10              		.eabi_attribute 30, 2
  11              		.eabi_attribute 34, 1
  12              		.eabi_attribute 18, 4
  13              		.file	"usbd_ioreq.c"
  14              		.text
  15              		.section	.text.USBD_CtlSendData,"ax",%progbits
  16              		.align	1
  17              		.p2align 2,,3
  18              		.global	USBD_CtlSendData
  19              		.syntax unified
  20              		.thumb
  21              		.thumb_func
  23              	USBD_CtlSendData:
  24              		@ args = 0, pretend = 0, frame = 0
  25              		@ frame_needed = 0, uses_anonymous_args = 0
  26 0000 10B5     		push	{r4, lr}
  27 0002 1346     		mov	r3, r2
  28 0004 0224     		movs	r4, #2
  29 0006 0A46     		mov	r2, r1
  30 0008 C0E90733 		strd	r3, r3, [r0, #28]
  31 000c 0021     		movs	r1, #0
  32 000e C0F89442 		str	r4, [r0, #660]
  33 0012 FFF7FEFF 		bl	USBD_LL_Transmit
  34 0016 0020     		movs	r0, #0
  35 0018 10BD     		pop	{r4, pc}
  37 001a 00BF     		.section	.text.USBD_CtlContinueSendData,"ax",%progbits
  38              		.align	1
  39              		.p2align 2,,3
  40              		.global	USBD_CtlContinueSendData
  41              		.syntax unified
  42              		.thumb
  43              		.thumb_func
  45              	USBD_CtlContinueSendData:
  46              		@ args = 0, pretend = 0, frame = 0
  47              		@ frame_needed = 0, uses_anonymous_args = 0
  48 0000 8C46     		mov	ip, r1
  49 0002 08B5     		push	{r3, lr}
  50 0004 0021     		movs	r1, #0
  51 0006 1346     		mov	r3, r2
  52 0008 6246     		mov	r2, ip
  53 000a FFF7FEFF 		bl	USBD_LL_Transmit
  54 000e 0020     		movs	r0, #0
  55 0010 08BD     		pop	{r3, pc}
  57 0012 00BF     		.section	.text.USBD_CtlPrepareRx,"ax",%progbits
  58              		.align	1
  59              		.p2align 2,,3
  60              		.global	USBD_CtlPrepareRx
  61              		.syntax unified
ARM GAS  /var/folders/td/83895s255bq6rlxfmrv9fnww0000gn/T//ccFk7GDb.s 			page 2


  62              		.thumb
  63              		.thumb_func
  65              	USBD_CtlPrepareRx:
  66              		@ args = 0, pretend = 0, frame = 0
  67              		@ frame_needed = 0, uses_anonymous_args = 0
  68 0000 10B5     		push	{r4, lr}
  69 0002 1346     		mov	r3, r2
  70 0004 0324     		movs	r4, #3
  71 0006 0A46     		mov	r2, r1
  72 0008 C0E95733 		strd	r3, r3, [r0, #348]
  73 000c 0021     		movs	r1, #0
  74 000e C0F89442 		str	r4, [r0, #660]
  75 0012 FFF7FEFF 		bl	USBD_LL_PrepareReceive
  76 0016 0020     		movs	r0, #0
  77 0018 10BD     		pop	{r4, pc}
  79 001a 00BF     		.section	.text.USBD_CtlContinueRx,"ax",%progbits
  80              		.align	1
  81              		.p2align 2,,3
  82              		.global	USBD_CtlContinueRx
  83              		.syntax unified
  84              		.thumb
  85              		.thumb_func
  87              	USBD_CtlContinueRx:
  88              		@ args = 0, pretend = 0, frame = 0
  89              		@ frame_needed = 0, uses_anonymous_args = 0
  90 0000 8C46     		mov	ip, r1
  91 0002 08B5     		push	{r3, lr}
  92 0004 0021     		movs	r1, #0
  93 0006 1346     		mov	r3, r2
  94 0008 6246     		mov	r2, ip
  95 000a FFF7FEFF 		bl	USBD_LL_PrepareReceive
  96 000e 0020     		movs	r0, #0
  97 0010 08BD     		pop	{r3, pc}
  99 0012 00BF     		.section	.text.USBD_CtlSendStatus,"ax",%progbits
 100              		.align	1
 101              		.p2align 2,,3
 102              		.global	USBD_CtlSendStatus
 103              		.syntax unified
 104              		.thumb
 105              		.thumb_func
 107              	USBD_CtlSendStatus:
 108              		@ args = 0, pretend = 0, frame = 0
 109              		@ frame_needed = 0, uses_anonymous_args = 0
 110 0000 08B5     		push	{r3, lr}
 111 0002 0421     		movs	r1, #4
 112 0004 0023     		movs	r3, #0
 113 0006 C0F89412 		str	r1, [r0, #660]
 114 000a 1A46     		mov	r2, r3
 115 000c 1946     		mov	r1, r3
 116 000e FFF7FEFF 		bl	USBD_LL_Transmit
 117 0012 0020     		movs	r0, #0
 118 0014 08BD     		pop	{r3, pc}
 120 0016 00BF     		.section	.text.USBD_CtlReceiveStatus,"ax",%progbits
 121              		.align	1
 122              		.p2align 2,,3
 123              		.global	USBD_CtlReceiveStatus
 124              		.syntax unified
ARM GAS  /var/folders/td/83895s255bq6rlxfmrv9fnww0000gn/T//ccFk7GDb.s 			page 3


 125              		.thumb
 126              		.thumb_func
 128              	USBD_CtlReceiveStatus:
 129              		@ args = 0, pretend = 0, frame = 0
 130              		@ frame_needed = 0, uses_anonymous_args = 0
 131 0000 08B5     		push	{r3, lr}
 132 0002 0521     		movs	r1, #5
 133 0004 0023     		movs	r3, #0
 134 0006 C0F89412 		str	r1, [r0, #660]
 135 000a 1A46     		mov	r2, r3
 136 000c 1946     		mov	r1, r3
 137 000e FFF7FEFF 		bl	USBD_LL_PrepareReceive
 138 0012 0020     		movs	r0, #0
 139 0014 08BD     		pop	{r3, pc}
 141 0016 00BF     		.section	.text.USBD_GetRxCount,"ax",%progbits
 142              		.align	1
 143              		.p2align 2,,3
 144              		.global	USBD_GetRxCount
 145              		.syntax unified
 146              		.thumb
 147              		.thumb_func
 149              	USBD_GetRxCount:
 150              		@ args = 0, pretend = 0, frame = 0
 151              		@ frame_needed = 0, uses_anonymous_args = 0
 152              		@ link register save eliminated.
 153 0000 FFF7FEBF 		b	USBD_LL_GetRxDataSize
 155              		.ident	"GCC: (Arm GNU Toolchain 13.2.rel1 (Build arm-13.7)) 13.2.1 20231009"
ARM GAS  /var/folders/td/83895s255bq6rlxfmrv9fnww0000gn/T//ccFk7GDb.s 			page 4

