ARM GAS  /var/folders/td/83895s255bq6rlxfmrv9fnww0000gn/T//ccTM5Gxx.s 			page 1


   1              		.cpu cortex-m3
   2              		.arch armv7-m
   3              		.fpu softvfp
   4              		.eabi_attribute 20, 1
   5              		.eabi_attribute 21, 1
   6              		.eabi_attribute 23, 3
   7              		.eabi_attribute 24, 1
   8              		.eabi_attribute 25, 1
   9              		.eabi_attribute 26, 1
  10              		.eabi_attribute 30, 2
  11              		.eabi_attribute 34, 1
  12              		.eabi_attribute 18, 4
  13              		.file	"usbd_core.c"
  14              		.text
  15              		.section	.text.USBD_Init,"ax",%progbits
  16              		.align	1
  17              		.p2align 2,,3
  18              		.global	USBD_Init
  19              		.syntax unified
  20              		.thumb
  21              		.thumb_func
  23              	USBD_Init:
  24              		@ args = 0, pretend = 0, frame = 0
  25              		@ frame_needed = 0, uses_anonymous_args = 0
  26 0000 88B1     		cbz	r0, .L5
  27 0002 08B5     		push	{r3, lr}
  28 0004 D0F8B432 		ldr	r3, [r0, #692]
  29 0008 13B1     		cbz	r3, .L3
  30 000a 0023     		movs	r3, #0
  31 000c C0F8B432 		str	r3, [r0, #692]
  32              	.L3:
  33 0010 09B1     		cbz	r1, .L4
  34 0012 C0F8B012 		str	r1, [r0, #688]
  35              	.L4:
  36 0016 0123     		movs	r3, #1
  37 0018 0270     		strb	r2, [r0]
  38 001a 80F89C32 		strb	r3, [r0, #668]
  39 001e FFF7FEFF 		bl	USBD_LL_Init
  40 0022 0020     		movs	r0, #0
  41 0024 08BD     		pop	{r3, pc}
  42              	.L5:
  43 0026 0220     		movs	r0, #2
  44 0028 7047     		bx	lr
  46 002a 00BF     		.section	.text.USBD_DeInit,"ax",%progbits
  47              		.align	1
  48              		.p2align 2,,3
  49              		.global	USBD_DeInit
  50              		.syntax unified
  51              		.thumb
  52              		.thumb_func
  54              	USBD_DeInit:
  55              		@ args = 0, pretend = 0, frame = 0
  56              		@ frame_needed = 0, uses_anonymous_args = 0
  57 0000 0122     		movs	r2, #1
  58 0002 10B5     		push	{r4, lr}
  59 0004 0446     		mov	r4, r0
  60 0006 D0F8B432 		ldr	r3, [r0, #692]
ARM GAS  /var/folders/td/83895s255bq6rlxfmrv9fnww0000gn/T//ccTM5Gxx.s 			page 2


  61 000a 80F89C22 		strb	r2, [r0, #668]
  62 000e 5B68     		ldr	r3, [r3, #4]
  63 0010 0179     		ldrb	r1, [r0, #4]	@ zero_extendqisi2
  64 0012 9847     		blx	r3
  65 0014 2046     		mov	r0, r4
  66 0016 FFF7FEFF 		bl	USBD_LL_Stop
  67 001a 2046     		mov	r0, r4
  68 001c FFF7FEFF 		bl	USBD_LL_DeInit
  69 0020 0020     		movs	r0, #0
  70 0022 10BD     		pop	{r4, pc}
  72              		.section	.text.USBD_RegisterClass,"ax",%progbits
  73              		.align	1
  74              		.p2align 2,,3
  75              		.global	USBD_RegisterClass
  76              		.syntax unified
  77              		.thumb
  78              		.thumb_func
  80              	USBD_RegisterClass:
  81              		@ args = 0, pretend = 0, frame = 0
  82              		@ frame_needed = 0, uses_anonymous_args = 0
  83              		@ link register save eliminated.
  84 0000 0346     		mov	r3, r0
  85 0002 19B1     		cbz	r1, .L21
  86 0004 0020     		movs	r0, #0
  87 0006 C3F8B412 		str	r1, [r3, #692]
  88 000a 7047     		bx	lr
  89              	.L21:
  90 000c 0220     		movs	r0, #2
  91 000e 7047     		bx	lr
  93              		.section	.text.USBD_Start,"ax",%progbits
  94              		.align	1
  95              		.p2align 2,,3
  96              		.global	USBD_Start
  97              		.syntax unified
  98              		.thumb
  99              		.thumb_func
 101              	USBD_Start:
 102              		@ args = 0, pretend = 0, frame = 0
 103              		@ frame_needed = 0, uses_anonymous_args = 0
 104 0000 08B5     		push	{r3, lr}
 105 0002 FFF7FEFF 		bl	USBD_LL_Start
 106 0006 0020     		movs	r0, #0
 107 0008 08BD     		pop	{r3, pc}
 109 000a 00BF     		.section	.text.USBD_Stop,"ax",%progbits
 110              		.align	1
 111              		.p2align 2,,3
 112              		.global	USBD_Stop
 113              		.syntax unified
 114              		.thumb
 115              		.thumb_func
 117              	USBD_Stop:
 118              		@ args = 0, pretend = 0, frame = 0
 119              		@ frame_needed = 0, uses_anonymous_args = 0
 120 0000 10B5     		push	{r4, lr}
 121 0002 0446     		mov	r4, r0
 122 0004 D0F8B432 		ldr	r3, [r0, #692]
 123 0008 0179     		ldrb	r1, [r0, #4]	@ zero_extendqisi2
ARM GAS  /var/folders/td/83895s255bq6rlxfmrv9fnww0000gn/T//ccTM5Gxx.s 			page 3


 124 000a 5B68     		ldr	r3, [r3, #4]
 125 000c 9847     		blx	r3
 126 000e 2046     		mov	r0, r4
 127 0010 FFF7FEFF 		bl	USBD_LL_Stop
 128 0014 0020     		movs	r0, #0
 129 0016 10BD     		pop	{r4, pc}
 131              		.section	.text.USBD_RunTestMode,"ax",%progbits
 132              		.align	1
 133              		.p2align 2,,3
 134              		.global	USBD_RunTestMode
 135              		.syntax unified
 136              		.thumb
 137              		.thumb_func
 139              	USBD_RunTestMode:
 140              		@ args = 0, pretend = 0, frame = 0
 141              		@ frame_needed = 0, uses_anonymous_args = 0
 142              		@ link register save eliminated.
 143 0000 0020     		movs	r0, #0
 144 0002 7047     		bx	lr
 146              		.section	.text.USBD_SetClassConfig,"ax",%progbits
 147              		.align	1
 148              		.p2align 2,,3
 149              		.global	USBD_SetClassConfig
 150              		.syntax unified
 151              		.thumb
 152              		.thumb_func
 154              	USBD_SetClassConfig:
 155              		@ args = 0, pretend = 0, frame = 0
 156              		@ frame_needed = 0, uses_anonymous_args = 0
 157 0000 08B5     		push	{r3, lr}
 158 0002 D0F8B432 		ldr	r3, [r0, #692]
 159 0006 33B1     		cbz	r3, .L29
 160 0008 1B68     		ldr	r3, [r3]
 161 000a 9847     		blx	r3
 162 000c 0038     		subs	r0, r0, #0
 163 000e 18BF     		it	ne
 164 0010 0120     		movne	r0, #1
 165 0012 4000     		lsls	r0, r0, #1
 166 0014 08BD     		pop	{r3, pc}
 167              	.L29:
 168 0016 0220     		movs	r0, #2
 169 0018 08BD     		pop	{r3, pc}
 171 001a 00BF     		.section	.text.USBD_ClrClassConfig,"ax",%progbits
 172              		.align	1
 173              		.p2align 2,,3
 174              		.global	USBD_ClrClassConfig
 175              		.syntax unified
 176              		.thumb
 177              		.thumb_func
 179              	USBD_ClrClassConfig:
 180              		@ args = 0, pretend = 0, frame = 0
 181              		@ frame_needed = 0, uses_anonymous_args = 0
 182 0000 08B5     		push	{r3, lr}
 183 0002 D0F8B432 		ldr	r3, [r0, #692]
 184 0006 5B68     		ldr	r3, [r3, #4]
 185 0008 9847     		blx	r3
 186 000a 0020     		movs	r0, #0
ARM GAS  /var/folders/td/83895s255bq6rlxfmrv9fnww0000gn/T//ccTM5Gxx.s 			page 4


 187 000c 08BD     		pop	{r3, pc}
 189 000e 00BF     		.section	.text.USBD_LL_SetupStage,"ax",%progbits
 190              		.align	1
 191              		.p2align 2,,3
 192              		.global	USBD_LL_SetupStage
 193              		.syntax unified
 194              		.thumb
 195              		.thumb_func
 197              	USBD_LL_SetupStage:
 198              		@ args = 0, pretend = 0, frame = 0
 199              		@ frame_needed = 0, uses_anonymous_args = 0
 200 0000 38B5     		push	{r3, r4, r5, lr}
 201 0002 0446     		mov	r4, r0
 202 0004 00F52A75 		add	r5, r0, #680
 203 0008 2846     		mov	r0, r5
 204 000a FFF7FEFF 		bl	USBD_ParseSetupRequest
 205 000e 0123     		movs	r3, #1
 206 0010 94F8A812 		ldrb	r1, [r4, #680]	@ zero_extendqisi2
 207 0014 B4F8AE22 		ldrh	r2, [r4, #686]
 208 0018 C4F89432 		str	r3, [r4, #660]
 209 001c 01F01F03 		and	r3, r1, #31
 210 0020 012B     		cmp	r3, #1
 211 0022 C4F89822 		str	r2, [r4, #664]
 212 0026 0ED0     		beq	.L34
 213 0028 022B     		cmp	r3, #2
 214 002a 06D0     		beq	.L35
 215 002c 8BB9     		cbnz	r3, .L36
 216 002e 2946     		mov	r1, r5
 217 0030 2046     		mov	r0, r4
 218 0032 FFF7FEFF 		bl	USBD_StdDevReq
 219 0036 0020     		movs	r0, #0
 220 0038 38BD     		pop	{r3, r4, r5, pc}
 221              	.L35:
 222 003a 2946     		mov	r1, r5
 223 003c 2046     		mov	r0, r4
 224 003e FFF7FEFF 		bl	USBD_StdEPReq
 225 0042 0020     		movs	r0, #0
 226 0044 38BD     		pop	{r3, r4, r5, pc}
 227              	.L34:
 228 0046 2946     		mov	r1, r5
 229 0048 2046     		mov	r0, r4
 230 004a FFF7FEFF 		bl	USBD_StdItfReq
 231 004e 0020     		movs	r0, #0
 232 0050 38BD     		pop	{r3, r4, r5, pc}
 233              	.L36:
 234 0052 2046     		mov	r0, r4
 235 0054 01F08001 		and	r1, r1, #128
 236 0058 FFF7FEFF 		bl	USBD_LL_StallEP
 237 005c 0020     		movs	r0, #0
 238 005e 38BD     		pop	{r3, r4, r5, pc}
 240              		.section	.text.USBD_LL_DataOutStage,"ax",%progbits
 241              		.align	1
 242              		.p2align 2,,3
 243              		.global	USBD_LL_DataOutStage
 244              		.syntax unified
 245              		.thumb
 246              		.thumb_func
ARM GAS  /var/folders/td/83895s255bq6rlxfmrv9fnww0000gn/T//ccTM5Gxx.s 			page 5


 248              	USBD_LL_DataOutStage:
 249              		@ args = 0, pretend = 0, frame = 0
 250              		@ frame_needed = 0, uses_anonymous_args = 0
 251 0000 10B5     		push	{r4, lr}
 252 0002 0446     		mov	r4, r0
 253 0004 59B9     		cbnz	r1, .L40
 254 0006 9446     		mov	ip, r2
 255 0008 D0F89422 		ldr	r2, [r0, #660]
 256 000c 032A     		cmp	r2, #3
 257 000e 13D0     		beq	.L54
 258 0010 052A     		cmp	r2, #5
 259 0012 0DD1     		bne	.L45
 260 0014 C4F89412 		str	r1, [r4, #660]
 261 0018 FFF7FEFF 		bl	USBD_LL_StallEP
 262 001c 08E0     		b	.L45
 263              	.L40:
 264 001e D0F8B432 		ldr	r3, [r0, #692]
 265 0022 9B69     		ldr	r3, [r3, #24]
 266 0024 33B1     		cbz	r3, .L49
 267 0026 90F89C22 		ldrb	r2, [r0, #668]	@ zero_extendqisi2
 268 002a 032A     		cmp	r2, #3
 269 002c 02D1     		bne	.L49
 270 002e 9847     		blx	r3
 271              	.L45:
 272 0030 0020     		movs	r0, #0
 273 0032 10BD     		pop	{r4, pc}
 274              	.L49:
 275 0034 0220     		movs	r0, #2
 276 0036 10BD     		pop	{r4, pc}
 277              	.L54:
 278 0038 D0E95832 		ldrd	r3, r2, [r0, #352]
 279 003c 9342     		cmp	r3, r2
 280 003e 0AD9     		bls	.L42
 281 0040 9B1A     		subs	r3, r3, r2
 282 0042 9A42     		cmp	r2, r3
 283 0044 6146     		mov	r1, ip
 284 0046 C0F86031 		str	r3, [r0, #352]
 285 004a 8CBF     		ite	hi
 286 004c 9AB2     		uxthhi	r2, r3
 287 004e 92B2     		uxthls	r2, r2
 288 0050 FFF7FEFF 		bl	USBD_CtlContinueRx
 289 0054 ECE7     		b	.L45
 290              	.L42:
 291 0056 D0F8B432 		ldr	r3, [r0, #692]
 292 005a 1B69     		ldr	r3, [r3, #16]
 293 005c 1BB1     		cbz	r3, .L46
 294 005e 90F89C22 		ldrb	r2, [r0, #668]	@ zero_extendqisi2
 295 0062 032A     		cmp	r2, #3
 296 0064 03D0     		beq	.L55
 297              	.L46:
 298 0066 2046     		mov	r0, r4
 299 0068 FFF7FEFF 		bl	USBD_CtlSendStatus
 300 006c E0E7     		b	.L45
 301              	.L55:
 302 006e 9847     		blx	r3
 303 0070 F9E7     		b	.L46
 305 0072 00BF     		.section	.text.USBD_LL_DataInStage,"ax",%progbits
ARM GAS  /var/folders/td/83895s255bq6rlxfmrv9fnww0000gn/T//ccTM5Gxx.s 			page 6


 306              		.align	1
 307              		.p2align 2,,3
 308              		.global	USBD_LL_DataInStage
 309              		.syntax unified
 310              		.thumb
 311              		.thumb_func
 313              	USBD_LL_DataInStage:
 314              		@ args = 0, pretend = 0, frame = 0
 315              		@ frame_needed = 0, uses_anonymous_args = 0
 316 0000 70B5     		push	{r4, r5, r6, lr}
 317 0002 0446     		mov	r4, r0
 318 0004 91B9     		cbnz	r1, .L57
 319 0006 D0F89432 		ldr	r3, [r0, #660]
 320 000a 022B     		cmp	r3, #2
 321 000c 1BD0     		beq	.L72
 322 000e 33F00403 		bics	r3, r3, #4
 323 0012 02D1     		bne	.L60
 324 0014 8021     		movs	r1, #128
 325 0016 FFF7FEFF 		bl	USBD_LL_StallEP
 326              	.L60:
 327 001a 94F8A032 		ldrb	r3, [r4, #672]	@ zero_extendqisi2
 328 001e 012B     		cmp	r3, #1
 329 0020 02D1     		bne	.L65
 330 0022 0023     		movs	r3, #0
 331 0024 84F8A032 		strb	r3, [r4, #672]
 332              	.L65:
 333 0028 0020     		movs	r0, #0
 334              	.L64:
 335 002a 70BD     		pop	{r4, r5, r6, pc}
 336              	.L57:
 337 002c D0F8B432 		ldr	r3, [r0, #692]
 338 0030 5B69     		ldr	r3, [r3, #20]
 339 0032 33B1     		cbz	r3, .L67
 340 0034 90F89C22 		ldrb	r2, [r0, #668]	@ zero_extendqisi2
 341 0038 032A     		cmp	r2, #3
 342 003a 02D1     		bne	.L67
 343 003c 9847     		blx	r3
 344 003e 0020     		movs	r0, #0
 345 0040 F3E7     		b	.L64
 346              	.L67:
 347 0042 0220     		movs	r0, #2
 348 0044 70BD     		pop	{r4, r5, r6, pc}
 349              	.L72:
 350 0046 D0E90836 		ldrd	r3, r6, [r0, #32]
 351 004a B342     		cmp	r3, r6
 352 004c 27D8     		bhi	.L73
 353 004e C369     		ldr	r3, [r0, #28]
 354 0050 B3FBF6F5 		udiv	r5, r3, r6
 355 0054 06FB1535 		mls	r5, r6, r5, r3
 356 0058 8DB9     		cbnz	r5, .L61
 357 005a 9E42     		cmp	r6, r3
 358 005c 0FD8     		bhi	.L61
 359 005e D0F89822 		ldr	r2, [r0, #664]
 360 0062 9342     		cmp	r3, r2
 361 0064 0BD2     		bcs	.L61
 362 0066 2A46     		mov	r2, r5
 363 0068 FFF7FEFF 		bl	USBD_CtlContinueSendData
ARM GAS  /var/folders/td/83895s255bq6rlxfmrv9fnww0000gn/T//ccTM5Gxx.s 			page 7


 364 006c 2B46     		mov	r3, r5
 365 006e 2A46     		mov	r2, r5
 366 0070 2946     		mov	r1, r5
 367 0072 2046     		mov	r0, r4
 368 0074 C4F89852 		str	r5, [r4, #664]
 369 0078 FFF7FEFF 		bl	USBD_LL_PrepareReceive
 370 007c CDE7     		b	.L60
 371              	.L61:
 372 007e D4F8B432 		ldr	r3, [r4, #692]
 373 0082 DB68     		ldr	r3, [r3, #12]
 374 0084 1BB1     		cbz	r3, .L62
 375 0086 94F89C22 		ldrb	r2, [r4, #668]	@ zero_extendqisi2
 376 008a 032A     		cmp	r2, #3
 377 008c 15D0     		beq	.L74
 378              	.L62:
 379 008e 8021     		movs	r1, #128
 380 0090 2046     		mov	r0, r4
 381 0092 FFF7FEFF 		bl	USBD_LL_StallEP
 382 0096 2046     		mov	r0, r4
 383 0098 FFF7FEFF 		bl	USBD_CtlReceiveStatus
 384 009c BDE7     		b	.L60
 385              	.L73:
 386 009e 0D46     		mov	r5, r1
 387 00a0 9B1B     		subs	r3, r3, r6
 388 00a2 1146     		mov	r1, r2
 389 00a4 0362     		str	r3, [r0, #32]
 390 00a6 9AB2     		uxth	r2, r3
 391 00a8 FFF7FEFF 		bl	USBD_CtlContinueSendData
 392 00ac 2B46     		mov	r3, r5
 393 00ae 2A46     		mov	r2, r5
 394 00b0 2946     		mov	r1, r5
 395 00b2 2046     		mov	r0, r4
 396 00b4 FFF7FEFF 		bl	USBD_LL_PrepareReceive
 397 00b8 AFE7     		b	.L60
 398              	.L74:
 399 00ba 2046     		mov	r0, r4
 400 00bc 9847     		blx	r3
 401 00be E6E7     		b	.L62
 403              		.section	.text.USBD_LL_Reset,"ax",%progbits
 404              		.align	1
 405              		.p2align 2,,3
 406              		.global	USBD_LL_Reset
 407              		.syntax unified
 408              		.thumb
 409              		.thumb_func
 411              	USBD_LL_Reset:
 412              		@ args = 0, pretend = 0, frame = 0
 413              		@ frame_needed = 0, uses_anonymous_args = 0
 414 0000 0022     		movs	r2, #0
 415 0002 70B5     		push	{r4, r5, r6, lr}
 416 0004 0446     		mov	r4, r0
 417 0006 4026     		movs	r6, #64
 418 0008 0125     		movs	r5, #1
 419 000a 1146     		mov	r1, r2
 420 000c 4023     		movs	r3, #64
 421 000e FFF7FEFF 		bl	USBD_LL_OpenEP
 422 0012 8021     		movs	r1, #128
ARM GAS  /var/folders/td/83895s255bq6rlxfmrv9fnww0000gn/T//ccTM5Gxx.s 			page 8


 423 0014 3346     		mov	r3, r6
 424 0016 0022     		movs	r2, #0
 425 0018 2046     		mov	r0, r4
 426 001a C4F85851 		str	r5, [r4, #344]
 427 001e C4F86461 		str	r6, [r4, #356]
 428 0022 FFF7FEFF 		bl	USBD_LL_OpenEP
 429 0026 0021     		movs	r1, #0
 430 0028 D4F8B832 		ldr	r3, [r4, #696]
 431 002c A561     		str	r5, [r4, #24]
 432 002e 6662     		str	r6, [r4, #36]
 433 0030 84F89C52 		strb	r5, [r4, #668]
 434 0034 C4F89412 		str	r1, [r4, #660]
 435 0038 6160     		str	r1, [r4, #4]
 436 003a C4F8A412 		str	r1, [r4, #676]
 437 003e 23B1     		cbz	r3, .L76
 438 0040 D4F8B432 		ldr	r3, [r4, #692]
 439 0044 2046     		mov	r0, r4
 440 0046 5B68     		ldr	r3, [r3, #4]
 441 0048 9847     		blx	r3
 442              	.L76:
 443 004a 0020     		movs	r0, #0
 444 004c 70BD     		pop	{r4, r5, r6, pc}
 446 004e 00BF     		.section	.text.USBD_LL_SetSpeed,"ax",%progbits
 447              		.align	1
 448              		.p2align 2,,3
 449              		.global	USBD_LL_SetSpeed
 450              		.syntax unified
 451              		.thumb
 452              		.thumb_func
 454              	USBD_LL_SetSpeed:
 455              		@ args = 0, pretend = 0, frame = 0
 456              		@ frame_needed = 0, uses_anonymous_args = 0
 457              		@ link register save eliminated.
 458 0000 0346     		mov	r3, r0
 459 0002 0020     		movs	r0, #0
 460 0004 1974     		strb	r1, [r3, #16]
 461 0006 7047     		bx	lr
 463              		.section	.text.USBD_LL_Suspend,"ax",%progbits
 464              		.align	1
 465              		.p2align 2,,3
 466              		.global	USBD_LL_Suspend
 467              		.syntax unified
 468              		.thumb
 469              		.thumb_func
 471              	USBD_LL_Suspend:
 472              		@ args = 0, pretend = 0, frame = 0
 473              		@ frame_needed = 0, uses_anonymous_args = 0
 474              		@ link register save eliminated.
 475 0000 0346     		mov	r3, r0
 476 0002 0421     		movs	r1, #4
 477 0004 93F89C22 		ldrb	r2, [r3, #668]	@ zero_extendqisi2
 478 0008 0020     		movs	r0, #0
 479 000a 83F89C12 		strb	r1, [r3, #668]
 480 000e 83F89D22 		strb	r2, [r3, #669]
 481 0012 7047     		bx	lr
 483              		.section	.text.USBD_LL_Resume,"ax",%progbits
 484              		.align	1
ARM GAS  /var/folders/td/83895s255bq6rlxfmrv9fnww0000gn/T//ccTM5Gxx.s 			page 9


 485              		.p2align 2,,3
 486              		.global	USBD_LL_Resume
 487              		.syntax unified
 488              		.thumb
 489              		.thumb_func
 491              	USBD_LL_Resume:
 492              		@ args = 0, pretend = 0, frame = 0
 493              		@ frame_needed = 0, uses_anonymous_args = 0
 494              		@ link register save eliminated.
 495 0000 90F89C32 		ldrb	r3, [r0, #668]	@ zero_extendqisi2
 496 0004 042B     		cmp	r3, #4
 497 0006 04BF     		itt	eq
 498 0008 90F89D32 		ldrbeq	r3, [r0, #669]	@ zero_extendqisi2
 499 000c 80F89C32 		strbeq	r3, [r0, #668]
 500 0010 0020     		movs	r0, #0
 501 0012 7047     		bx	lr
 503              		.section	.text.USBD_LL_SOF,"ax",%progbits
 504              		.align	1
 505              		.p2align 2,,3
 506              		.global	USBD_LL_SOF
 507              		.syntax unified
 508              		.thumb
 509              		.thumb_func
 511              	USBD_LL_SOF:
 512              		@ args = 0, pretend = 0, frame = 0
 513              		@ frame_needed = 0, uses_anonymous_args = 0
 514 0000 90F89C22 		ldrb	r2, [r0, #668]	@ zero_extendqisi2
 515 0004 032A     		cmp	r2, #3
 516 0006 01D0     		beq	.L94
 517 0008 0020     		movs	r0, #0
 518 000a 7047     		bx	lr
 519              	.L94:
 520 000c 08B5     		push	{r3, lr}
 521 000e D0F8B432 		ldr	r3, [r0, #692]
 522 0012 DB69     		ldr	r3, [r3, #28]
 523 0014 03B1     		cbz	r3, .L86
 524 0016 9847     		blx	r3
 525              	.L86:
 526 0018 0020     		movs	r0, #0
 527 001a 08BD     		pop	{r3, pc}
 529              		.section	.text.USBD_LL_IsoINIncomplete,"ax",%progbits
 530              		.align	1
 531              		.p2align 2,,3
 532              		.global	USBD_LL_IsoINIncomplete
 533              		.syntax unified
 534              		.thumb
 535              		.thumb_func
 537              	USBD_LL_IsoINIncomplete:
 538              		@ args = 0, pretend = 0, frame = 0
 539              		@ frame_needed = 0, uses_anonymous_args = 0
 540              		@ link register save eliminated.
 541 0000 0020     		movs	r0, #0
 542 0002 7047     		bx	lr
 544              		.section	.text.USBD_LL_IsoOUTIncomplete,"ax",%progbits
 545              		.align	1
 546              		.p2align 2,,3
 547              		.global	USBD_LL_IsoOUTIncomplete
ARM GAS  /var/folders/td/83895s255bq6rlxfmrv9fnww0000gn/T//ccTM5Gxx.s 			page 10


 548              		.syntax unified
 549              		.thumb
 550              		.thumb_func
 552              	USBD_LL_IsoOUTIncomplete:
 553              		@ args = 0, pretend = 0, frame = 0
 554              		@ frame_needed = 0, uses_anonymous_args = 0
 555              		@ link register save eliminated.
 556 0000 0020     		movs	r0, #0
 557 0002 7047     		bx	lr
 559              		.section	.text.USBD_LL_DevConnected,"ax",%progbits
 560              		.align	1
 561              		.p2align 2,,3
 562              		.global	USBD_LL_DevConnected
 563              		.syntax unified
 564              		.thumb
 565              		.thumb_func
 567              	USBD_LL_DevConnected:
 568              		@ args = 0, pretend = 0, frame = 0
 569              		@ frame_needed = 0, uses_anonymous_args = 0
 570              		@ link register save eliminated.
 571 0000 0020     		movs	r0, #0
 572 0002 7047     		bx	lr
 574              		.section	.text.USBD_LL_DevDisconnected,"ax",%progbits
 575              		.align	1
 576              		.p2align 2,,3
 577              		.global	USBD_LL_DevDisconnected
 578              		.syntax unified
 579              		.thumb
 580              		.thumb_func
 582              	USBD_LL_DevDisconnected:
 583              		@ args = 0, pretend = 0, frame = 0
 584              		@ frame_needed = 0, uses_anonymous_args = 0
 585 0000 0121     		movs	r1, #1
 586 0002 08B5     		push	{r3, lr}
 587 0004 D0F8B422 		ldr	r2, [r0, #692]
 588 0008 80F89C12 		strb	r1, [r0, #668]
 589 000c 5268     		ldr	r2, [r2, #4]
 590 000e 0179     		ldrb	r1, [r0, #4]	@ zero_extendqisi2
 591 0010 9047     		blx	r2
 592 0012 0020     		movs	r0, #0
 593 0014 08BD     		pop	{r3, pc}
 595 0016 00BF     		.ident	"GCC: (Arm GNU Toolchain 13.2.rel1 (Build arm-13.7)) 13.2.1 20231009"
ARM GAS  /var/folders/td/83895s255bq6rlxfmrv9fnww0000gn/T//ccTM5Gxx.s 			page 11

